

Microchip MPLAB XC8 Assembler V2.30 build 20200825195618 
                                                                                               Mon Jan 18 21:19:33 2021

Microchip MPLAB XC8 C Compiler v2.30 (Free license) build 20200825195618 Og1 
     1                           	processor	18F4520
     2                           	fnconf	rparam,??,?,0
     3                           	pagewidth 120
     4                           	opt	flic
     5                           	psect	smallconst,global,reloc=2,class=SMALLCONST,delta=1,noexec
     6                           	psect	cinit,global,reloc=2,class=CODE,delta=1
     7                           	psect	bssCOMRAM,global,class=COMRAM,space=1,delta=1,lowdata,noexec
     8                           	psect	bssBANK1,global,class=BANK1,space=1,delta=1,lowdata,noexec
     9                           	psect	bssBANK2,global,class=BANK2,space=1,delta=1,lowdata,noexec
    10                           	psect	cstackBANK2,global,class=BANK2,space=1,delta=1,lowdata,noexec
    11                           	psect	cstackBANK1,global,class=BANK1,space=1,delta=1,lowdata,noexec
    12                           	psect	cstackBANK0,global,class=BANK0,space=1,delta=1,lowdata,noexec
    13                           	psect	cstackCOMRAM,global,class=COMRAM,space=1,delta=1,lowdata,noexec
    14                           	psect	text0,global,reloc=2,class=CODE,delta=1
    15                           	psect	text1,global,reloc=2,class=CODE,delta=1,group=3
    16                           	psect	text2,global,reloc=2,class=CODE,delta=1,group=1
    17                           	psect	text3,global,reloc=2,class=CODE,delta=1,group=1
    18                           	psect	text4,global,reloc=2,class=CODE,delta=1,group=3
    19                           	psect	text5,global,reloc=2,class=CODE,delta=1,group=1
    20                           	psect	text6,global,reloc=2,class=CODE,delta=1,group=3
    21                           	psect	text7,global,reloc=2,class=CODE,delta=1,group=3
    22                           	psect	text8,global,reloc=2,class=CODE,delta=1,group=1
    23                           	psect	text9,global,reloc=2,class=CODE,delta=1,group=3
    24                           	psect	text10,global,reloc=2,class=CODE,delta=1,group=3
    25                           	psect	text11,global,reloc=2,class=CODE,delta=1,group=3
    26                           	psect	text12,global,reloc=2,class=CODE,delta=1,group=3
    27                           	psect	text13,global,reloc=2,class=CODE,delta=1,group=3
    28                           	psect	text14,global,reloc=2,class=CODE,delta=1,group=3
    29                           	psect	text15,global,reloc=2,class=CODE,delta=1,group=2
    30                           	psect	text16,global,reloc=2,class=CODE,delta=1,group=2
    31                           	psect	text17,global,reloc=2,class=CODE,delta=1,group=3
    32                           	psect	text18,global,reloc=2,class=CODE,delta=1,group=3
    33                           	psect	text19,global,reloc=2,class=CODE,delta=1,group=3
    34                           	psect	text20,global,reloc=2,class=CODE,delta=1,group=2
    35                           	psect	text21,global,reloc=2,class=CODE,delta=1
    36                           	psect	text22,global,reloc=2,class=CODE,delta=1,group=3
    37                           	psect	text23,global,reloc=2,class=CODE,delta=1,group=3
    38                           	psect	text24,global,reloc=2,class=CODE,delta=1,group=3
    39                           	psect	text25,global,reloc=2,class=CODE,delta=1,group=3
    40                           	psect	text26,global,reloc=2,class=CODE,delta=1,group=2
    41                           	psect	text27,global,reloc=2,class=CODE,delta=1,group=3
    42                           	psect	text28,global,reloc=2,class=CODE,delta=1,group=2
    43                           	psect	text29,global,reloc=2,class=CODE,delta=1,group=3
    44                           	psect	text30,global,reloc=2,class=CODE,delta=1,group=2
    45                           	psect	text31,global,reloc=2,class=CODE,delta=1,group=2
    46                           	psect	text32,global,reloc=2,class=CODE,delta=1,group=2
    47                           	psect	text33,global,reloc=2,class=CODE,delta=1,group=2
    48                           	psect	text34,global,reloc=2,class=CODE,delta=1,group=2
    49                           	psect	text35,global,reloc=2,class=CODE,delta=1,group=2
    50                           	psect	text36,global,reloc=2,class=CODE,delta=1,group=2
    51                           	psect	text37,global,reloc=2,class=CODE,delta=1
    52                           	psect	text38,global,reloc=2,class=CODE,delta=1
    53                           	psect	text39,global,reloc=2,class=CODE,delta=1
    54                           	psect	text40,global,reloc=2,class=CODE,delta=1
    55                           	psect	text41,global,reloc=2,class=CODE,delta=1
    56                           	psect	text42,global,reloc=2,class=CODE,delta=1
    57                           	psect	text43,global,reloc=2,class=CODE,delta=1
    58                           	psect	text44,global,reloc=2,class=CODE,delta=1
    59                           	psect	text45,global,reloc=2,class=CODE,delta=1
    60                           	psect	text46,global,reloc=2,class=CODE,delta=1
    61                           	psect	intcodelo,global,reloc=2,class=CODE,delta=1
    62                           	psect	text48,global,reloc=2,class=CODE,delta=1
    63                           	psect	text49,global,reloc=2,class=CODE,delta=1
    64                           	psect	text50,global,reloc=2,class=CODE,delta=1
    65                           	psect	intcode,global,reloc=2,class=CODE,delta=1
    66                           	psect	intcode_body,global,reloc=2,class=CODE,delta=1
    67                           	psect	intsave_regs,global,class=BIGRAM,space=1,delta=1,noexec
    68                           	psect	rparam,global,class=COMRAM,space=1,delta=1,noexec
    69                           	psect	temp,global,ovrld,common,class=COMRAM,space=1,delta=1
    70                           	psect	idloc,global,abs,ovrld,class=IDLOC,space=5,delta=1,noexec
    71                           	psect	config,global,abs,ovrld,class=CONFIG,space=4,delta=1,noexec
    72  0000                     
    73                           ; Version 2.30
    74                           ; Generated 26/08/2020 GMT
    75                           ; 
    76                           ; Copyright © 2020, Microchip Technology Inc. and its subsidiaries ("Microchip")
    77                           ; All rights reserved.
    78                           ; 
    79                           ; This software is developed by Microchip Technology Inc. and its subsidiaries ("Microch
      +                          ip").
    80                           ; 
    81                           ; Redistribution and use in source and binary forms, with or without modification, are
    82                           ; permitted provided that the following conditions are met:
    83                           ; 
    84                           ;     1. Redistributions of source code must retain the above copyright notice, this lis
      +                          t of
    85                           ;        conditions and the following disclaimer.
    86                           ; 
    87                           ;     2. Redistributions in binary form must reproduce the above copyright notice, this 
      +                          list
    88                           ;        of conditions and the following disclaimer in the documentation and/or other
    89                           ;        materials provided with the distribution. Publication is not required when
    90                           ;        this file is used in an embedded application.
    91                           ; 
    92                           ;     3. Microchip's name may not be used to endorse or promote products derived from th
      +                          is
    93                           ;        software without specific prior written permission.
    94                           ; 
    95                           ; THIS SOFTWARE IS PROVIDED BY MICROCHIP "AS IS" AND ANY EXPRESS OR IMPLIED WARRANTIES,
    96                           ; INCLUDING, BUT NOT LIMITED TO, THE IMPLIED WARRANTIES OF MERCHANTABILITY AND FITNESS F
      +                          OR
    97                           ; PURPOSE ARE DISCLAIMED.  IN NO EVENT SHALL MICROCHIP BE LIABLE FOR ANY DIRECT, INDIREC
      +                          T,
    98                           ; INCIDENTAL, SPECIAL, EXEMPLARY, OR CONSEQUENTIAL DAMAGES (INCLUDING BUT NOT LIMITED TO
    99                           ; PROCUREMENT OF SUBSTITUTE GOODS OR SERVICES; LOSS OF USE, DATA OR PROFITS; OR BUSINESS
   100                           ; INTERRUPTION) HOWSOEVER CAUSED AND ON ANY THEORY OF LIABILITY, WHETHER IN CONTRACT, ST
      +                          RICT
   101                           ; LIABILITY, OR TORT (INCLUDING NEGLIGENCE OR OTHERWISE) ARISING IN ANY WAY OUT OF THE U
      +                          SE OF
   102                           ; THIS SOFTWARE, EVEN IF ADVISED OF THE POSSIBILITY OF SUCH DAMAGE.
   103                           ; 
   104                           ; 
   105                           ; Code-generator required, PIC18F4520 Definitions
   106                           ; 
   107                           ; SFR Addresses
   108  0000                     
   109                           	psect	smallconst
   110  000600                     __psmallconst:
   111                           	callstack 0
   112  000600  00                 	db	0
   113  000601                     _dp_l:
   114                           	callstack 0
   115  000601  0000               	dw	0
   116  000603  0000               	dw	0
   117  000605  CFDC               	dw	53212
   118  000607  35D1               	dw	13777
   119  000609                     __end_of_dp_l:
   120                           	callstack 0
   121  000609                     _dp_h:
   122                           	callstack 0
   123  000609  0000               	dw	0
   124  00060B  0000               	dw	0
   125  00060D  C000               	dw	49152
   126  00060F  3F15               	dw	16149
   127  000611                     __end_of_dp_h:
   128                           	callstack 0
   129  000611  4260               	dw	16992
   130  000613  0DA2               	dw	3490
   131  000615                     __end_of_tiny@sqrtf$F1715:
   132                           	callstack 0
   133  000615  A570               	dw	42352
   134  000617  36EC               	dw	14060
   135  000619                     __end_of_ivln2_l:
   136                           	callstack 0
   137  000619  AA3B               	dw	43579
   138  00061B  3FB8               	dw	16312
   139  00061D                     __end_of_ivln2:
   140                           	callstack 0
   141  00061D  384F               	dw	14415
   142  00061F  3F76               	dw	16246
   143  000621                     __end_of_cp:
   144                           	callstack 0
   145  000621  AA3C               	dw	43580
   146  000623  3338               	dw	13112
   147  000625                     __end_of_ovt:
   148                           	callstack 0
   149  000625  BE8C               	dw	48780
   150  000627  35BF               	dw	13759
   151  000629                     __end_of_lg2_l:
   152                           	callstack 0
   153  000629  7200               	dw	29184
   154  00062B  3F31               	dw	16177
   155  00062D                     __end_of_lg2_h:
   156                           	callstack 0
   157  00062D  7218               	dw	29208
   158  00062F  3F31               	dw	16177
   159  000631                     __end_of_lg2:
   160                           	callstack 0
   161  000631  BB4C               	dw	47948
   162  000633  3331               	dw	13105
   163  000635                     __end_of_P5:
   164                           	callstack 0
   165  000635  EA0E               	dw	59918
   166  000637  B5DD               	dw	46557
   167  000639                     __end_of_P4:
   168                           	callstack 0
   169  000639  B355               	dw	45909
   170  00063B  388A               	dw	14474
   171  00063D                     __end_of_P3:
   172                           	callstack 0
   173  00063D  0B61               	dw	2913
   174  00063F  BB36               	dw	47926
   175  000641                     __end_of_P2:
   176                           	callstack 0
   177  000641  AAAB               	dw	43691
   178  000643  3E2A               	dw	15914
   179  000645                     __end_of_P1:
   180                           	callstack 0
   181  000645  F142               	dw	61762
   182  000647  3E53               	dw	15955
   183  000649                     __end_of_L6:
   184                           	callstack 0
   185  000649  3255               	dw	12885
   186  00064B  3E6C               	dw	15980
   187  00064D                     __end_of_L5:
   188                           	callstack 0
   189  00064D  A305               	dw	41733
   190  00064F  3E8B               	dw	16011
   191  000651                     __end_of_L4:
   192                           	callstack 0
   193  000651  AAAB               	dw	43691
   194  000653  3EAA               	dw	16042
   195  000655                     __end_of_L3:
   196                           	callstack 0
   197  000655  6DB7               	dw	28087
   198  000657  3EDB               	dw	16091
   199  000659                     __end_of_L2:
   200                           	callstack 0
   201  000659  999A               	dw	39322
   202  00065B  3F19               	dw	16153
   203  00065D                     __end_of_L1:
   204                           	callstack 0
   205  00065D  4260               	dw	16992
   206  00065F  0DA2               	dw	3490
   207  000661                     __end_of_tiny:
   208                           	callstack 0
   209  000661  F2CA               	dw	62154
   210  000663  7149               	dw	29001
   211  000665                     __end_of_huge:
   212                           	callstack 0
   213  000665  0000               	dw	0
   214  000667  4B80               	dw	19328
   215  000669                     __end_of_two24:
   216                           	callstack 0
   217  000669                     _bp:
   218                           	callstack 0
   219  000669  0000               	dw	0
   220  00066B  3F80               	dw	16256
   221  00066D  0000               	dw	0
   222  00066F  3FC0               	dw	16320
   223  000671                     __end_of_bp:
   224                           	callstack 0
   225  000671  AA00               	dw	43520
   226  000673  3FB8               	dw	16312
   227  000675                     __end_of_ivln2_h:
   228                           	callstack 0
   229  000675  23C6               	dw	9158
   230  000677  B8F6               	dw	47350
   231  000679                     __end_of_cp_l:
   232                           	callstack 0
   233  000679  4000               	dw	16384
   234  00067B  3F76               	dw	16246
   235  00067D                     __end_of_cp_h:
   236                           	callstack 0
   237  0000                     _TMR1L	set	4046
   238  0000                     _TMR1H	set	4047
   239  0000                     _T1CON	set	4045
   240  0000                     _PR2	set	4043
   241  0000                     _LATC	set	3979
   242  0000                     _TRISC	set	3988
   243  0000                     _T2CON	set	4042
   244  0000                     _CCPR2L	set	4027
   245  0000                     _CCP2CONbits	set	4026
   246  0000                     _CCP1CONbits	set	4029
   247  0000                     _CCPR1L	set	4030
   248  0000                     _T1CONbits	set	4045
   249  0000                     _ADCON0bits	set	4034
   250  0000                     _ADRESL	set	4035
   251  0000                     _ADRESH	set	4036
   252  0000                     _ADCON2bits	set	4032
   253  0000                     _ADCON1	set	4033
   254  0000                     _TRISA	set	3986
   255  0000                     _INTCONbits	set	4082
   256  0000                     _RCONbits	set	4048
   257  0000                     _RCREG	set	4014
   258  0000                     _TXREG	set	4013
   259  0000                     _IPR1bits	set	3999
   260  0000                     _PIE1bits	set	3997
   261  0000                     _PIR1bits	set	3998
   262  0000                     _RCSTAbits	set	4011
   263  0000                     _SPBRG	set	4015
   264  0000                     _BAUDCONbits	set	4024
   265  0000                     _TXSTAbits	set	4012
   266  0000                     _TRISCbits	set	3988
   267  0000                     _ADFM	set	32263
   268  0000                     _CREN	set	32092
   269  0000                     _RCIF	set	31989
   270  0000                     _IRCF0	set	32412
   271  0000                     _IRCF1	set	32413
   272  0000                     _IRCF2	set	32414
   273  00067D                     STR_1:
   274  00067D  25                 	db	37
   275  00067E  2E                 	db	46
   276  00067F  32                 	db	50	;'2'
   277  000680  66                 	db	102	;'f'
   278  000681  00                 	db	0
   279  000682                     STR_4:
   280  000682  49                 	db	73	;'I'
   281  000683  4E                 	db	78	;'N'
   282  000684  46                 	db	70	;'F'
   283  000685  00                 	db	0
   284  000686                     STR_8:
   285  000686  4E                 	db	78	;'N'
   286  000687  41                 	db	65	;'A'
   287  000688  4E                 	db	78	;'N'
   288  000689  00                 	db	0
   289  00068A                     STR_5:
   290  00068A  69                 	db	105	;'i'
   291  00068B  6E                 	db	110	;'n'
   292  00068C  66                 	db	102	;'f'
   293  00068D  00                 	db	0
   294  00068E                     STR_9:
   295  00068E  6E                 	db	110	;'n'
   296  00068F  61                 	db	97	;'a'
   297  000690  6E                 	db	110	;'n'
   298  000691  00                 	db	0
   299  000692                     STR_12:
   300  000692  6C                 	db	108	;'l'
   301  000693  66                 	db	102	;'f'
   302  000694  00                 	db	0
   303  000695                     STR_2:
   304  000695  20                 	db	32
   305  000696  20                 	db	32
   306  000697  00                 	db	0
   307  000698  00                 	db	0	; dummy byte at the end
   308  0000                     
   309                           ; #config settings
   310                           
   311                           	psect	cinit
   312  006BC4                     __pcinit:
   313                           	callstack 0
   314  006BC4                     start_initialization:
   315                           	callstack 0
   316  006BC4                     __initialization:
   317                           	callstack 0
   318                           
   319                           ; Clear objects allocated to BANK2 (128 bytes)
   320  006BC4  EE02  F000         	lfsr	0,__pbssBANK2
   321  006BC8  0E80               	movlw	128
   322  006BCA                     clear_0:
   323  006BCA  6AEE               	clrf	postinc0,c
   324  006BCC  06E8               	decf	wreg,f,c
   325  006BCE  E1FD               	bnz	clear_0
   326                           
   327                           ; Clear objects allocated to BANK1 (8 bytes)
   328  006BD0  EE01  F0F4         	lfsr	0,__pbssBANK1
   329  006BD4  0E08               	movlw	8
   330  006BD6                     clear_1:
   331  006BD6  6AEE               	clrf	postinc0,c
   332  006BD8  06E8               	decf	wreg,f,c
   333  006BDA  E1FD               	bnz	clear_1
   334                           
   335                           ; Clear objects allocated to COMRAM (16 bytes)
   336  006BDC  EE00  F05E         	lfsr	0,__pbssCOMRAM
   337  006BE0  0E10               	movlw	16
   338  006BE2                     clear_2:
   339  006BE2  6AEE               	clrf	postinc0,c
   340  006BE4  06E8               	decf	wreg,f,c
   341  006BE6  E1FD               	bnz	clear_2
   342  006BE8                     end_of_initialization:
   343                           	callstack 0
   344  006BE8                     __end_of__initialization:
   345                           	callstack 0
   346  006BE8  906E               	bcf	int$flags,0,c	;clear compiler interrupt flag (level 1)
   347  006BEA  926E               	bcf	int$flags,1,c	;clear compiler interrupt flag (level 2)
   348  006BEC  0E00               	movlw	low (__Lmediumconst shr (0+16))
   349  006BEE  6EF8               	movwf	tblptru,c
   350  006BF0  0100               	movlb	0
   351  006BF2  EF93  F02B         	goto	_main	;jump to C main() function
   352                           
   353                           	psect	bssCOMRAM
   354  00005E                     __pbssCOMRAM:
   355                           	callstack 0
   356  00005E                     _width:
   357                           	callstack 0
   358  00005E                     	ds	2
   359  000060                     _prec:
   360                           	callstack 0
   361  000060                     	ds	2
   362  000062                     _flags:
   363                           	callstack 0
   364  000062                     	ds	2
   365  000064                     _in:
   366                           	callstack 0
   367  000064                     	ds	2
   368  000066                     _count:
   369                           	callstack 0
   370  000066                     	ds	2
   371  000068                     _delay_cycle:
   372                           	callstack 0
   373  000068                     	ds	2
   374  00006A                     _time:
   375                           	callstack 0
   376  00006A                     	ds	2
   377  00006C                     _lenStr:
   378                           	callstack 0
   379  00006C                     	ds	2
   380                           
   381                           	psect	bssBANK1
   382  0001F4                     __pbssBANK1:
   383                           	callstack 0
   384  0001F4                     ___fpclassifyf@F465:
   385                           	callstack 0
   386  0001F4                     	ds	4
   387  0001F8                     _errno:
   388                           	callstack 0
   389  0001F8                     	ds	2
   390  0001FA                     _nout:
   391                           	callstack 0
   392  0001FA                     	ds	2
   393                           
   394                           	psect	bssBANK2
   395  000200                     __pbssBANK2:
   396                           	callstack 0
   397  000200                     fabsf@F465:
   398                           	callstack 0
   399  000200                     	ds	4
   400  000204                     floorf@F527:
   401                           	callstack 0
   402  000204                     	ds	4
   403  000208                     _dbuf:
   404                           	callstack 0
   405  000208                     	ds	80
   406  000258                     _str:
   407                           	callstack 0
   408  000258                     	ds	20
   409  00026C                     _mystring:
   410                           	callstack 0
   411  00026C                     	ds	20
   412                           
   413                           	psect	cstackBANK2
   414  000280                     __pcstackBANK2:
   415                           	callstack 0
   416  000280                     ?_vfprintf:
   417                           	callstack 0
   418  000280                     vfprintf@fp:
   419                           	callstack 0
   420                           
   421                           ; 2 bytes @ 0x0
   422  000280                     	ds	2
   423  000282                     vfprintf@fmt:
   424                           	callstack 0
   425                           
   426                           ; 2 bytes @ 0x2
   427  000282                     	ds	2
   428  000284                     vfprintf@ap:
   429                           	callstack 0
   430                           
   431                           ; 2 bytes @ 0x4
   432  000284                     	ds	2
   433  000286                     ?_sprintf:
   434                           	callstack 0
   435  000286                     sprintf@s:
   436                           	callstack 0
   437                           
   438                           ; 2 bytes @ 0x6
   439  000286                     	ds	2
   440  000288                     sprintf@fmt:
   441                           	callstack 0
   442                           
   443                           ; 2 bytes @ 0x8
   444  000288                     	ds	6
   445                           
   446                           	psect	cstackBANK1
   447  000100                     __pcstackBANK1:
   448                           	callstack 0
   449  000100                     _powf$1987:
   450                           	callstack 0
   451                           
   452                           ; 4 bytes @ 0x0
   453  000100                     	ds	4
   454  000104                     _powf$1988:
   455                           	callstack 0
   456                           
   457                           ; 4 bytes @ 0x4
   458  000104                     	ds	4
   459  000108                     _powf$1992:
   460                           	callstack 0
   461                           
   462                           ; 4 bytes @ 0x8
   463  000108                     	ds	4
   464  00010C                     _powf$1993:
   465                           	callstack 0
   466                           
   467                           ; 4 bytes @ 0xC
   468  00010C                     	ds	4
   469  000110                     _powf$1994:
   470                           	callstack 0
   471                           
   472                           ; 4 bytes @ 0x10
   473  000110                     	ds	4
   474  000114                     _powf$1995:
   475                           	callstack 0
   476                           
   477                           ; 4 bytes @ 0x14
   478  000114                     	ds	4
   479  000118                     _powf$1996:
   480                           	callstack 0
   481                           
   482                           ; 4 bytes @ 0x18
   483  000118                     	ds	4
   484  00011C                     powf@t2:
   485                           	callstack 0
   486                           
   487                           ; 4 bytes @ 0x1C
   488  00011C                     	ds	4
   489  000120                     powf@z_h:
   490                           	callstack 0
   491                           
   492                           ; 4 bytes @ 0x20
   493  000120                     	ds	4
   494  000124                     powf@z_l:
   495                           	callstack 0
   496                           
   497                           ; 4 bytes @ 0x24
   498  000124                     	ds	4
   499  000128                     powf@y1:
   500                           	callstack 0
   501                           
   502                           ; 4 bytes @ 0x28
   503  000128                     	ds	4
   504  00012C                     powf@i:
   505                           	callstack 0
   506                           
   507                           ; 4 bytes @ 0x2C
   508  00012C                     	ds	4
   509  000130                     powf@s_l:
   510                           	callstack 0
   511                           
   512                           ; 4 bytes @ 0x30
   513  000130                     	ds	4
   514  000134                     powf@t_l:
   515                           	callstack 0
   516                           
   517                           ; 4 bytes @ 0x34
   518  000134                     	ds	4
   519  000138                     _powf$1986:
   520                           	callstack 0
   521                           
   522                           ; 4 bytes @ 0x38
   523  000138                     	ds	4
   524  00013C                     _powf$1990:
   525                           	callstack 0
   526                           
   527                           ; 4 bytes @ 0x3C
   528  00013C                     	ds	4
   529  000140                     _powf$1991:
   530                           	callstack 0
   531                           
   532                           ; 4 bytes @ 0x40
   533  000140                     	ds	4
   534  000144                     powf@w:
   535                           	callstack 0
   536                           
   537                           ; 4 bytes @ 0x44
   538  000144                     	ds	4
   539  000148                     _powf$1984:
   540                           	callstack 0
   541                           
   542                           ; 4 bytes @ 0x48
   543  000148                     	ds	4
   544  00014C                     powf@r:
   545                           	callstack 0
   546                           
   547                           ; 4 bytes @ 0x4C
   548  00014C                     	ds	4
   549  000150                     powf@yisint:
   550                           	callstack 0
   551                           
   552                           ; 4 bytes @ 0x50
   553  000150                     	ds	4
   554  000154                     _powf$1983:
   555                           	callstack 0
   556                           
   557                           ; 4 bytes @ 0x54
   558  000154                     	ds	4
   559  000158                     _powf$1989:
   560                           	callstack 0
   561                           
   562                           ; 4 bytes @ 0x58
   563  000158                     	ds	4
   564  00015C                     powf@s:
   565                           	callstack 0
   566                           
   567                           ; 4 bytes @ 0x5C
   568  00015C                     	ds	4
   569  000160                     powf@hx:
   570                           	callstack 0
   571                           
   572                           ; 4 bytes @ 0x60
   573  000160                     	ds	4
   574  000164                     powf@p_l:
   575                           	callstack 0
   576                           
   577                           ; 4 bytes @ 0x64
   578  000164                     	ds	4
   579  000168                     powf@t_h:
   580                           	callstack 0
   581                           
   582                           ; 4 bytes @ 0x68
   583  000168                     	ds	4
   584  00016C                     powf@s_h:
   585                           	callstack 0
   586                           
   587                           ; 4 bytes @ 0x6C
   588  00016C                     	ds	4
   589  000170                     powf@ax:
   590                           	callstack 0
   591                           
   592                           ; 4 bytes @ 0x70
   593  000170                     	ds	4
   594  000174                     powf@u:
   595                           	callstack 0
   596                           
   597                           ; 4 bytes @ 0x74
   598  000174                     	ds	4
   599  000178                     powf@v:
   600                           	callstack 0
   601                           
   602                           ; 4 bytes @ 0x78
   603  000178                     	ds	4
   604  00017C                     powf@hy:
   605                           	callstack 0
   606                           
   607                           ; 4 bytes @ 0x7C
   608  00017C                     	ds	4
   609  000180                     powf@n:
   610                           	callstack 0
   611                           
   612                           ; 4 bytes @ 0x80
   613  000180                     	ds	4
   614  000184                     powf@t1:
   615                           	callstack 0
   616                           
   617                           ; 4 bytes @ 0x84
   618  000184                     	ds	4
   619  000188                     powf@sn:
   620                           	callstack 0
   621                           
   622                           ; 4 bytes @ 0x88
   623  000188                     	ds	4
   624  00018C                     powf@s2:
   625                           	callstack 0
   626                           
   627                           ; 4 bytes @ 0x8C
   628  00018C                     	ds	4
   629  000190                     powf@iy:
   630                           	callstack 0
   631                           
   632                           ; 4 bytes @ 0x90
   633  000190                     	ds	4
   634  000194                     powf@is:
   635                           	callstack 0
   636                           
   637                           ; 4 bytes @ 0x94
   638  000194                     	ds	4
   639  000198                     _powf$1985:
   640                           	callstack 0
   641                           
   642                           ; 4 bytes @ 0x98
   643  000198                     	ds	4
   644  00019C                     powf@p_h:
   645                           	callstack 0
   646                           
   647                           ; 4 bytes @ 0x9C
   648  00019C                     	ds	4
   649  0001A0                     powf@k:
   650                           	callstack 0
   651                           
   652                           ; 4 bytes @ 0xA0
   653  0001A0                     	ds	4
   654  0001A4                     _powf$1982:
   655                           	callstack 0
   656                           
   657                           ; 4 bytes @ 0xA4
   658  0001A4                     	ds	4
   659  0001A8                     powf@ix:
   660                           	callstack 0
   661                           
   662                           ; 4 bytes @ 0xA8
   663  0001A8                     	ds	4
   664  0001AC                     powf@j:
   665                           	callstack 0
   666                           
   667                           ; 4 bytes @ 0xAC
   668  0001AC                     	ds	4
   669  0001B0                     powf@t:
   670                           	callstack 0
   671                           
   672                           ; 4 bytes @ 0xB0
   673  0001B0                     	ds	4
   674  0001B4                     powf@z:
   675                           	callstack 0
   676                           
   677                           ; 4 bytes @ 0xB4
   678  0001B4                     	ds	4
   679  0001B8                     powf@__xc8_float_word:
   680                           	callstack 0
   681                           
   682                           ; 4 bytes @ 0xB8
   683  0001B8                     	ds	4
   684  0001BC                     _efgtoa$1462:
   685                           	callstack 0
   686                           
   687                           ; 2 bytes @ 0xBC
   688  0001BC                     	ds	2
   689  0001BE                     _efgtoa$1463:
   690                           	callstack 0
   691                           
   692                           ; 2 bytes @ 0xBE
   693  0001BE                     	ds	2
   694  0001C0                     _efgtoa$1468:
   695                           	callstack 0
   696                           
   697                           ; 2 bytes @ 0xC0
   698  0001C0                     	ds	2
   699  0001C2                     _efgtoa$1472:
   700                           	callstack 0
   701                           
   702                           ; 2 bytes @ 0xC2
   703  0001C2                     	ds	2
   704  0001C4                     _efgtoa$1473:
   705                           	callstack 0
   706                           
   707                           ; 2 bytes @ 0xC4
   708  0001C4                     	ds	2
   709  0001C6                     _efgtoa$1474:
   710                           	callstack 0
   711                           
   712                           ; 2 bytes @ 0xC6
   713  0001C6                     	ds	2
   714  0001C8                     efgtoa@t:
   715                           	callstack 0
   716                           
   717                           ; 2 bytes @ 0xC8
   718  0001C8                     	ds	2
   719  0001CA                     efgtoa@pp:
   720                           	callstack 0
   721                           
   722                           ; 2 bytes @ 0xCA
   723  0001CA                     	ds	2
   724  0001CC                     efgtoa@ne:
   725                           	callstack 0
   726                           
   727                           ; 2 bytes @ 0xCC
   728  0001CC                     	ds	2
   729  0001CE                     efgtoa@m:
   730                           	callstack 0
   731                           
   732                           ; 2 bytes @ 0xCE
   733  0001CE                     	ds	2
   734  0001D0                     efgtoa@ou:
   735                           	callstack 0
   736                           
   737                           ; 4 bytes @ 0xD0
   738  0001D0                     	ds	4
   739  0001D4                     efgtoa@d:
   740                           	callstack 0
   741                           
   742                           ; 2 bytes @ 0xD4
   743  0001D4                     	ds	2
   744  0001D6                     efgtoa@sign:
   745                           	callstack 0
   746                           
   747                           ; 2 bytes @ 0xD6
   748  0001D6                     	ds	2
   749  0001D8                     efgtoa@p:
   750                           	callstack 0
   751                           
   752                           ; 2 bytes @ 0xD8
   753  0001D8                     	ds	2
   754  0001DA                     efgtoa@w:
   755                           	callstack 0
   756                           
   757                           ; 2 bytes @ 0xDA
   758  0001DA                     	ds	2
   759  0001DC                     efgtoa@nmode:
   760                           	callstack 0
   761                           
   762                           ; 1 bytes @ 0xDC
   763  0001DC                     	ds	1
   764  0001DD                     efgtoa@mode:
   765                           	callstack 0
   766                           
   767                           ; 1 bytes @ 0xDD
   768  0001DD                     	ds	1
   769  0001DE                     efgtoa@h:
   770                           	callstack 0
   771                           
   772                           ; 4 bytes @ 0xDE
   773  0001DE                     	ds	4
   774  0001E2                     efgtoa@l:
   775                           	callstack 0
   776                           
   777                           ; 4 bytes @ 0xE2
   778  0001E2                     	ds	4
   779  0001E6                     efgtoa@i:
   780                           	callstack 0
   781                           
   782                           ; 2 bytes @ 0xE6
   783  0001E6                     	ds	2
   784  0001E8                     efgtoa@g:
   785                           	callstack 0
   786                           
   787                           ; 4 bytes @ 0xE8
   788  0001E8                     	ds	4
   789  0001EC                     efgtoa@e:
   790                           	callstack 0
   791                           
   792                           ; 2 bytes @ 0xEC
   793  0001EC                     	ds	2
   794  0001EE                     efgtoa@n:
   795                           	callstack 0
   796                           
   797                           ; 2 bytes @ 0xEE
   798  0001EE                     	ds	2
   799  0001F0                     efgtoa@u:
   800                           	callstack 0
   801                           
   802                           ; 4 bytes @ 0xF0
   803  0001F0                     	ds	4
   804                           
   805                           	psect	cstackBANK0
   806  000080                     __pcstackBANK0:
   807                           	callstack 0
   808  000080                     ___fldiv@rem:
   809                           	callstack 0
   810                           
   811                           ; 4 bytes @ 0x0
   812  000080                     	ds	4
   813  000084                     ___fldiv@sign:
   814                           	callstack 0
   815  000084                     sqrtf@s:
   816                           	callstack 0
   817                           
   818                           ; 4 bytes @ 0x4
   819  000084                     	ds	1
   820  000085                     ___fldiv@new_exp:
   821                           	callstack 0
   822                           
   823                           ; 2 bytes @ 0x5
   824  000085                     	ds	2
   825  000087                     ___fldiv@grs:
   826                           	callstack 0
   827                           
   828                           ; 4 bytes @ 0x7
   829  000087                     	ds	1
   830  000088                     sqrtf@i:
   831                           	callstack 0
   832                           
   833                           ; 4 bytes @ 0x8
   834  000088                     	ds	3
   835  00008B                     ___fldiv@bexp:
   836                           	callstack 0
   837                           
   838                           ; 1 bytes @ 0xB
   839  00008B                     	ds	1
   840  00008C                     ___fldiv@aexp:
   841                           	callstack 0
   842  00008C                     sqrtf@__xc8_float_word:
   843                           	callstack 0
   844                           
   845                           ; 4 bytes @ 0xC
   846  00008C                     	ds	1
   847  00008D                     floorf@m:
   848                           	callstack 0
   849                           
   850                           ; 4 bytes @ 0xD
   851  00008D                     	ds	3
   852  000090                     sqrtf@q:
   853                           	callstack 0
   854                           
   855                           ; 4 bytes @ 0x10
   856  000090                     	ds	1
   857  000091                     floorf@e:
   858                           	callstack 0
   859                           
   860                           ; 2 bytes @ 0x11
   861  000091                     	ds	2
   862  000093                     floorf@u:
   863                           	callstack 0
   864                           
   865                           ; 4 bytes @ 0x13
   866  000093                     	ds	1
   867  000094                     sqrtf@t:
   868                           	callstack 0
   869                           
   870                           ; 4 bytes @ 0x14
   871  000094                     	ds	4
   872  000098                     sqrtf@z:
   873                           	callstack 0
   874                           
   875                           ; 4 bytes @ 0x18
   876  000098                     	ds	4
   877  00009C                     sqrtf@m:
   878                           	callstack 0
   879                           
   880                           ; 4 bytes @ 0x1C
   881  00009C                     	ds	4
   882  0000A0                     sqrtf@r:
   883                           	callstack 0
   884                           
   885                           ; 4 bytes @ 0x20
   886  0000A0                     	ds	4
   887  0000A4                     sqrtf@ix:
   888                           	callstack 0
   889                           
   890                           ; 4 bytes @ 0x24
   891  0000A4                     	ds	4
   892  0000A8                     ?_powf:
   893                           	callstack 0
   894  0000A8                     powf@x:
   895                           	callstack 0
   896                           
   897                           ; 4 bytes @ 0x28
   898  0000A8                     	ds	4
   899  0000AC                     powf@y:
   900                           	callstack 0
   901                           
   902                           ; 4 bytes @ 0x2C
   903  0000AC                     	ds	4
   904  0000B0                     ??_powf:
   905                           
   906                           ; 1 bytes @ 0x30
   907  0000B0                     	ds	9
   908  0000B9                     ?___fltol:
   909                           	callstack 0
   910  0000B9                     ___fltol@f1:
   911                           	callstack 0
   912                           
   913                           ; 4 bytes @ 0x39
   914  0000B9                     	ds	4
   915  0000BD                     ??___fltol:
   916                           
   917                           ; 1 bytes @ 0x3D
   918  0000BD                     	ds	4
   919  0000C1                     ??_set_time:
   920  0000C1                     ?_efgtoa:
   921                           	callstack 0
   922  0000C1                     efgtoa@fp:
   923                           	callstack 0
   924                           
   925                           ; 2 bytes @ 0x41
   926  0000C1                     	ds	2
   927  0000C3                     efgtoa@f:
   928                           	callstack 0
   929                           
   930                           ; 4 bytes @ 0x43
   931  0000C3                     	ds	2
   932  0000C5                     _set_time$1980:
   933                           	callstack 0
   934                           
   935                           ; 4 bytes @ 0x45
   936  0000C5                     	ds	2
   937  0000C7                     efgtoa@c:
   938                           	callstack 0
   939                           
   940                           ; 1 bytes @ 0x47
   941  0000C7                     	ds	1
   942  0000C8                     ??_efgtoa:
   943                           
   944                           ; 1 bytes @ 0x48
   945  0000C8                     	ds	1
   946  0000C9                     _set_time$1981:
   947                           	callstack 0
   948                           
   949                           ; 4 bytes @ 0x49
   950  0000C9                     	ds	4
   951  0000CD                     ?_vfpfcnvrt:
   952                           	callstack 0
   953  0000CD                     set_time@b:
   954                           	callstack 0
   955  0000CD                     vfpfcnvrt@fp:
   956                           	callstack 0
   957                           
   958                           ; 2 bytes @ 0x4D
   959  0000CD                     	ds	2
   960  0000CF                     set_time@j:
   961                           	callstack 0
   962  0000CF                     vfpfcnvrt@fmt:
   963                           	callstack 0
   964                           
   965                           ; 2 bytes @ 0x4F
   966  0000CF                     	ds	2
   967  0000D1                     set_time@i:
   968                           	callstack 0
   969  0000D1                     vfpfcnvrt@ap:
   970                           	callstack 0
   971                           
   972                           ; 2 bytes @ 0x51
   973  0000D1                     	ds	2
   974  0000D3                     ??_vfpfcnvrt:
   975                           
   976                           ; 1 bytes @ 0x53
   977  0000D3                     	ds	4
   978  0000D7                     _vfpfcnvrt$1488:
   979                           	callstack 0
   980                           
   981                           ; 2 bytes @ 0x57
   982  0000D7                     	ds	2
   983  0000D9                     _vfpfcnvrt$1492:
   984                           	callstack 0
   985                           
   986                           ; 2 bytes @ 0x59
   987  0000D9                     	ds	2
   988  0000DB                     vfpfcnvrt@f:
   989                           	callstack 0
   990                           
   991                           ; 4 bytes @ 0x5B
   992  0000DB                     	ds	4
   993  0000DF                     vfpfcnvrt@ct:
   994                           	callstack 0
   995                           
   996                           ; 3 bytes @ 0x5F
   997  0000DF                     	ds	3
   998  0000E2                     vfpfcnvrt@c:
   999                           	callstack 0
  1000                           
  1001                           ; 1 bytes @ 0x62
  1002  0000E2                     	ds	1
  1003  0000E3                     vfprintf@cfmt:
  1004                           	callstack 0
  1005                           
  1006                           ; 2 bytes @ 0x63
  1007  0000E3                     	ds	4
  1008  0000E7                     sprintf@ap:
  1009                           	callstack 0
  1010                           
  1011                           ; 2 bytes @ 0x67
  1012  0000E7                     	ds	2
  1013  0000E9                     sprintf@f:
  1014                           	callstack 0
  1015                           
  1016                           ; 6 bytes @ 0x69
  1017  0000E9                     	ds	6
  1018  0000EF                     ??_main:
  1019                           
  1020                           ; 1 bytes @ 0x6F
  1021  0000EF                     	ds	2
  1022  0000F1                     main@m2:
  1023                           	callstack 0
  1024                           
  1025                           ; 10 bytes @ 0x71
  1026  0000F1                     	ds	10
  1027  0000FB                     main@n:
  1028                           	callstack 0
  1029                           
  1030                           ; 4 bytes @ 0x7B
  1031  0000FB                     	ds	4
  1032                           
  1033                           	psect	cstackCOMRAM
  1034  000001                     __pcstackCOMRAM:
  1035                           	callstack 0
  1036  000001                     ??_my_isr_routine:
  1037  000001                     
  1038                           ; 1 bytes @ 0x0
  1039  000001                     	ds	2
  1040  000003                     my_isr_routine@counter:
  1041                           	callstack 0
  1042                           
  1043                           ; 2 bytes @ 0x2
  1044  000003                     	ds	2
  1045  000005                     my_isr_routine@i:
  1046                           	callstack 0
  1047                           
  1048                           ; 2 bytes @ 0x4
  1049  000005                     	ds	2
  1050  000007                     ?i1___awmod:
  1051                           	callstack 0
  1052  000007                     UART_Write@data:
  1053                           	callstack 0
  1054  000007                     i1___awmod@dividend:
  1055                           	callstack 0
  1056                           
  1057                           ; 2 bytes @ 0x6
  1058  000007                     	ds	2
  1059  000009                     i1___awmod@divisor:
  1060                           	callstack 0
  1061                           
  1062                           ; 2 bytes @ 0x8
  1063  000009                     	ds	2
  1064  00000B                     i1___awmod@counter:
  1065                           	callstack 0
  1066                           
  1067                           ; 1 bytes @ 0xA
  1068  00000B                     	ds	1
  1069  00000C                     i1___awmod@sign:
  1070                           	callstack 0
  1071                           
  1072                           ; 1 bytes @ 0xB
  1073  00000C                     	ds	1
  1074  00000D                     ??_Lo_ISR:
  1075                           
  1076                           ; 1 bytes @ 0xC
  1077  00000D                     	ds	5
  1078  000012                     ?_GetString:
  1079                           	callstack 0
  1080  000012                     ?_strlen:
  1081                           	callstack 0
  1082  000012                     ?___fpclassifyf:
  1083                           	callstack 0
  1084  000012                     ?_isupper:
  1085                           	callstack 0
  1086  000012                     ?_isdigit:
  1087                           	callstack 0
  1088  000012                     ?_strncmp:
  1089                           	callstack 0
  1090  000012                     ?_isspace:
  1091                           	callstack 0
  1092  000012                     ?_ADC_Read:
  1093                           	callstack 0
  1094  000012                     ?___wmul:
  1095                           	callstack 0
  1096  000012                     ?___awdiv:
  1097                           	callstack 0
  1098  000012                     ?___awmod:
  1099                           	callstack 0
  1100  000012                     ?___fladd:
  1101                           	callstack 0
  1102  000012                     ?_fabsf:
  1103                           	callstack 0
  1104  000012                     ?_nanf:
  1105                           	callstack 0
  1106  000012                     ?___flneg:
  1107                           	callstack 0
  1108  000012                     ClearBuffer@i:
  1109                           	callstack 0
  1110  000012                     ADC_Read@channel:
  1111                           	callstack 0
  1112  000012                     delay@val:
  1113                           	callstack 0
  1114  000012                     ___wmul@multiplier:
  1115                           	callstack 0
  1116  000012                     ___awdiv@dividend:
  1117                           	callstack 0
  1118  000012                     ___awmod@dividend:
  1119                           	callstack 0
  1120  000012                     isdigit@c:
  1121                           	callstack 0
  1122  000012                     isspace@c:
  1123                           	callstack 0
  1124  000012                     isupper@c:
  1125                           	callstack 0
  1126  000012                     fputc@c:
  1127                           	callstack 0
  1128  000012                     nanf@s:
  1129                           	callstack 0
  1130  000012                     strlen@s:
  1131                           	callstack 0
  1132  000012                     strncmp@_l:
  1133                           	callstack 0
  1134  000012                     ___fleq@ff1:
  1135                           	callstack 0
  1136  000012                     ___flneg@f1:
  1137                           	callstack 0
  1138  000012                     ___fladd@b:
  1139                           	callstack 0
  1140  000012                     ___fpclassifyf@x:
  1141                           	callstack 0
  1142  000012                     fabsf@x:
  1143                           	callstack 0
  1144                           
  1145                           ; 4 bytes @ 0x11
  1146  000012                     	ds	2
  1147  000014                     ??_isupper:
  1148  000014                     ??_isdigit:
  1149  000014                     ??_isspace:
  1150  000014                     ??_ADC_Read:
  1151  000014                     delay@i:
  1152                           	callstack 0
  1153  000014                     ___wmul@multiplicand:
  1154                           	callstack 0
  1155  000014                     ___awdiv@divisor:
  1156                           	callstack 0
  1157  000014                     ___awmod@divisor:
  1158                           	callstack 0
  1159  000014                     fputc@fp:
  1160                           	callstack 0
  1161  000014                     strcpy@dest:
  1162                           	callstack 0
  1163  000014                     strlen@a:
  1164                           	callstack 0
  1165  000014                     strncmp@_r:
  1166                           	callstack 0
  1167                           
  1168                           ; 2 bytes @ 0x13
  1169  000014                     	ds	2
  1170  000016                     ??_fputc:
  1171  000016                     ??___fpclassifyf:
  1172  000016                     ___awdiv@counter:
  1173                           	callstack 0
  1174  000016                     ___awmod@counter:
  1175                           	callstack 0
  1176  000016                     ADC_Read@digital:
  1177                           	callstack 0
  1178  000016                     delay@j:
  1179                           	callstack 0
  1180  000016                     ___wmul@product:
  1181                           	callstack 0
  1182  000016                     strcpy@src:
  1183                           	callstack 0
  1184  000016                     strncmp@n:
  1185                           	callstack 0
  1186  000016                     ___fleq@ff2:
  1187                           	callstack 0
  1188  000016                     ___fladd@a:
  1189                           	callstack 0
  1190  000016                     fabsf@u:
  1191                           	callstack 0
  1192  000016                     nanf@u:
  1193                           	callstack 0
  1194                           
  1195                           ; 4 bytes @ 0x15
  1196  000016                     	ds	1
  1197  000017                     ___awdiv@sign:
  1198                           	callstack 0
  1199  000017                     ___awmod@sign:
  1200                           	callstack 0
  1201                           
  1202                           ; 1 bytes @ 0x16
  1203  000017                     	ds	1
  1204  000018                     ??_strcpy:
  1205  000018                     ??_strncmp:
  1206  000018                     ?_tolower:
  1207                           	callstack 0
  1208  000018                     ?___xxtofl:
  1209                           	callstack 0
  1210  000018                     _isspace$1557:
  1211                           	callstack 0
  1212  000018                     ___awdiv@quotient:
  1213                           	callstack 0
  1214  000018                     tolower@c:
  1215                           	callstack 0
  1216  000018                     ___xxtofl@val:
  1217                           	callstack 0
  1218                           
  1219                           ; 4 bytes @ 0x17
  1220  000018                     	ds	1
  1221  000019                     ?_atoi:
  1222                           	callstack 0
  1223  000019                     atoi@s:
  1224                           	callstack 0
  1225  000019                     strncmp@l:
  1226                           	callstack 0
  1227                           
  1228                           ; 2 bytes @ 0x18
  1229  000019                     	ds	1
  1230  00001A                     ??___fladd:
  1231  00001A                     ??_tolower:
  1232  00001A                     ??___fleq:
  1233  00001A                     ___fpclassifyf@e:
  1234                           	callstack 0
  1235  00001A                     strcpy@s:
  1236                           	callstack 0
  1237                           
  1238                           ; 2 bytes @ 0x19
  1239  00001A                     	ds	1
  1240  00001B                     ??_atoi:
  1241  00001B                     fputs@s:
  1242                           	callstack 0
  1243  00001B                     strncmp@r:
  1244                           	callstack 0
  1245                           
  1246                           ; 2 bytes @ 0x1A
  1247  00001B                     	ds	1
  1248  00001C                     ??___xxtofl:
  1249  00001C                     strcpy@d:
  1250                           	callstack 0
  1251  00001C                     ___fpclassifyf@u:
  1252                           	callstack 0
  1253                           
  1254                           ; 4 bytes @ 0x1B
  1255  00001C                     	ds	1
  1256  00001D                     fputs@fp:
  1257                           	callstack 0
  1258                           
  1259                           ; 2 bytes @ 0x1C
  1260  00001D                     	ds	1
  1261  00001E                     ___fladd@signs:
  1262                           	callstack 0
  1263  00001E                     _tolower$1764:
  1264                           	callstack 0
  1265                           
  1266                           ; 2 bytes @ 0x1D
  1267  00001E                     	ds	1
  1268  00001F                     ___fladd@aexp:
  1269                           	callstack 0
  1270  00001F                     fputs@c:
  1271                           	callstack 0
  1272  00001F                     atoi@neg:
  1273                           	callstack 0
  1274                           
  1275                           ; 2 bytes @ 0x1E
  1276  00001F                     	ds	1
  1277  000020                     ___fladd@bexp:
  1278                           	callstack 0
  1279  000020                     ___xxtofl@sign:
  1280                           	callstack 0
  1281  000020                     fputs@i:
  1282                           	callstack 0
  1283                           
  1284                           ; 2 bytes @ 0x1F
  1285  000020                     	ds	1
  1286  000021                     ___fladd@grs:
  1287                           	callstack 0
  1288  000021                     ___xxtofl@exp:
  1289                           	callstack 0
  1290  000021                     _atoi$1526:
  1291                           	callstack 0
  1292                           
  1293                           ; 2 bytes @ 0x20
  1294  000021                     	ds	1
  1295  000022                     ?_pad:
  1296                           	callstack 0
  1297  000022                     pad@fp:
  1298                           	callstack 0
  1299  000022                     ___xxtofl@arg:
  1300                           	callstack 0
  1301                           
  1302                           ; 4 bytes @ 0x21
  1303  000022                     	ds	1
  1304  000023                     _atoi$1528:
  1305                           	callstack 0
  1306                           
  1307                           ; 2 bytes @ 0x22
  1308  000023                     	ds	1
  1309  000024                     pad@buf:
  1310                           	callstack 0
  1311                           
  1312                           ; 2 bytes @ 0x23
  1313  000024                     	ds	1
  1314  000025                     _atoi$1527:
  1315                           	callstack 0
  1316                           
  1317                           ; 1 bytes @ 0x24
  1318  000025                     	ds	1
  1319  000026                     ?___flmul:
  1320                           	callstack 0
  1321  000026                     pad@p:
  1322                           	callstack 0
  1323  000026                     atoi@n:
  1324                           	callstack 0
  1325  000026                     ___flmul@b:
  1326                           	callstack 0
  1327                           
  1328                           ; 4 bytes @ 0x25
  1329  000026                     	ds	2
  1330  000028                     ??_pad:
  1331                           
  1332                           ; 1 bytes @ 0x27
  1333  000028                     	ds	1
  1334  000029                     pad@i:
  1335                           	callstack 0
  1336                           
  1337                           ; 2 bytes @ 0x28
  1338  000029                     	ds	1
  1339  00002A                     ___flmul@a:
  1340                           	callstack 0
  1341                           
  1342                           ; 4 bytes @ 0x29
  1343  00002A                     	ds	1
  1344  00002B                     pad@w:
  1345                           	callstack 0
  1346                           
  1347                           ; 2 bytes @ 0x2A
  1348  00002B                     	ds	3
  1349  00002E                     ??___flmul:
  1350                           
  1351                           ; 1 bytes @ 0x2D
  1352  00002E                     	ds	4
  1353  000032                     ___flmul@sign:
  1354                           	callstack 0
  1355                           
  1356                           ; 1 bytes @ 0x31
  1357  000032                     	ds	1
  1358  000033                     ___flmul@aexp:
  1359                           	callstack 0
  1360                           
  1361                           ; 1 bytes @ 0x32
  1362  000033                     	ds	1
  1363  000034                     ___flmul@grs:
  1364                           	callstack 0
  1365                           
  1366                           ; 4 bytes @ 0x33
  1367  000034                     	ds	4
  1368  000038                     ___flmul@bexp:
  1369                           	callstack 0
  1370                           
  1371                           ; 1 bytes @ 0x37
  1372  000038                     	ds	1
  1373  000039                     ___flmul@prod:
  1374                           	callstack 0
  1375                           
  1376                           ; 4 bytes @ 0x38
  1377  000039                     	ds	4
  1378  00003D                     ___flmul@temp:
  1379                           	callstack 0
  1380                           
  1381                           ; 2 bytes @ 0x3C
  1382  00003D                     	ds	2
  1383  00003F                     ?___flsub:
  1384                           	callstack 0
  1385  00003F                     ?_scalbnf:
  1386                           	callstack 0
  1387  00003F                     ___flsub@b:
  1388                           	callstack 0
  1389  00003F                     scalbnf@x:
  1390                           	callstack 0
  1391                           
  1392                           ; 4 bytes @ 0x3E
  1393  00003F                     	ds	4
  1394  000043                     scalbnf@n:
  1395                           	callstack 0
  1396  000043                     ___flsub@a:
  1397                           	callstack 0
  1398                           
  1399                           ; 4 bytes @ 0x42
  1400  000043                     	ds	2
  1401  000045                     ??_scalbnf:
  1402                           
  1403                           ; 1 bytes @ 0x44
  1404  000045                     	ds	2
  1405  000047                     ?___fldiv:
  1406                           	callstack 0
  1407  000047                     ___flge@ff1:
  1408                           	callstack 0
  1409  000047                     ___fldiv@b:
  1410                           	callstack 0
  1411                           
  1412                           ; 4 bytes @ 0x46
  1413  000047                     	ds	2
  1414  000049                     scalbnf@u:
  1415                           	callstack 0
  1416                           
  1417                           ; 4 bytes @ 0x48
  1418  000049                     	ds	2
  1419  00004B                     ___flge@ff2:
  1420                           	callstack 0
  1421  00004B                     ___fldiv@a:
  1422                           	callstack 0
  1423                           
  1424                           ; 4 bytes @ 0x4A
  1425  00004B                     	ds	2
  1426  00004D                     scalbnf@y:
  1427                           	callstack 0
  1428                           
  1429                           ; 4 bytes @ 0x4C
  1430  00004D                     	ds	2
  1431  00004F                     ??___fldiv:
  1432  00004F                     ??___flge:
  1433                           
  1434                           ; 1 bytes @ 0x4E
  1435  00004F                     	ds	4
  1436  000053                     ?_floorf:
  1437                           	callstack 0
  1438  000053                     ?_sqrtf:
  1439                           	callstack 0
  1440  000053                     floorf@x:
  1441                           	callstack 0
  1442  000053                     sqrtf@x:
  1443                           	callstack 0
  1444                           
  1445                           ; 4 bytes @ 0x52
  1446  000053                     	ds	4
  1447  000057                     ??_floorf:
  1448  000057                     ??_sqrtf:
  1449                           
  1450                           ; 1 bytes @ 0x56
  1451  000057                     	ds	5
  1452  00005C                     ___fltol@sign1:
  1453                           	callstack 0
  1454                           
  1455                           ; 1 bytes @ 0x5B
  1456  00005C                     	ds	1
  1457  00005D                     ___fltol@exp1:
  1458                           	callstack 0
  1459                           
  1460                           ; 1 bytes @ 0x5C
  1461  00005D                     	ds	1
  1462  00005E                     
  1463                           ; 1 bytes @ 0x5D
  1464 ;;
  1465 ;;Main: autosize = 0, tempsize = 2, incstack = 0, save=0
  1466 ;;
  1467 ;; *************** function _main *****************
  1468 ;; Defined at:
  1469 ;;		line 117 in file "main.c"
  1470 ;; Parameters:    Size  Location     Type
  1471 ;;		None
  1472 ;; Auto vars:     Size  Location     Type
  1473 ;;  m2             10  113[BANK0 ] unsigned char [10]
  1474 ;;  n               4  123[BANK0 ] float 
  1475 ;; Return value:  Size  Location     Type
  1476 ;;                  1    wreg      void 
  1477 ;; Registers used:
  1478 ;;		wreg, fsr1l, fsr1h, fsr2l, fsr2h, status,2, status,0, tblptrl, tblptrh, tblptru, prodl, prodh, cstack
  1479 ;; Tracked objects:
  1480 ;;		On entry : 0/0
  1481 ;;		On exit  : 0/0
  1482 ;;		Unchanged: 0/0
  1483 ;; Data sizes:     COMRAM   BANK0   BANK1   BANK2   BANK3   BANK4   BANK5
  1484 ;;      Params:         0       0       0       0       0       0       0
  1485 ;;      Locals:         0      14       0       0       0       0       0
  1486 ;;      Temps:          0       2       0       0       0       0       0
  1487 ;;      Totals:         0      16       0       0       0       0       0
  1488 ;;Total ram usage:       16 bytes
  1489 ;; Hardware stack levels required when called:   12
  1490 ;; This function calls:
  1491 ;;		_ADC_Read
  1492 ;;		_ClearBuffer
  1493 ;;		_GetString
  1494 ;;		_SYSTEM_Initialize
  1495 ;;		___flge
  1496 ;;		___xxtofl
  1497 ;;		_delay
  1498 ;;		_set_time
  1499 ;;		_sprintf
  1500 ;;		_strcpy
  1501 ;; This function is called by:
  1502 ;;		Startup code after reset
  1503 ;; This function uses a non-reentrant model
  1504 ;;
  1505                           
  1506                           	psect	text0
  1507  005726                     __ptext0:
  1508                           	callstack 0
  1509  005726                     _main:
  1510                           	callstack 19
  1511  005726                     
  1512                           ;main.c: 119:     SYSTEM_Initialize() ;
  1513  005726  EC30  F036         	call	_SYSTEM_Initialize	;wreg free
  1514  00572A                     
  1515                           ;main.c: 120:     T2CON = 0b01111111;
  1516  00572A  0E7F               	movlw	127
  1517  00572C  6ECA               	movwf	202,c	;volatile
  1518  00572E                     
  1519                           ;main.c: 121:     CCP1CONbits.CCP1M = 0b1100;
  1520  00572E  50BD               	movf	189,w,c	;volatile
  1521  005730  0BF0               	andlw	-16
  1522  005732  090C               	iorlw	12
  1523  005734  6EBD               	movwf	189,c	;volatile
  1524  005736                     
  1525                           ;main.c: 122:     TRISC = 0;
  1526  005736  0E00               	movlw	0
  1527  005738  6E94               	movwf	148,c	;volatile
  1528  00573A                     
  1529                           ;main.c: 123:     LATC = 0;
  1530  00573A  0E00               	movlw	0
  1531  00573C  6E8B               	movwf	139,c	;volatile
  1532  00573E                     
  1533                           ;main.c: 124:     PR2 = 0xff;
  1534  00573E  68CB               	setf	203,c	;volatile
  1535  005740                     
  1536                           ;main.c: 125:     CCPR1L = 37;
  1537  005740  0E25               	movlw	37
  1538  005742  6EBE               	movwf	190,c	;volatile
  1539  005744                     
  1540                           ;main.c: 126:     CCP1CONbits.DC1B = 0b11;
  1541  005744  0E30               	movlw	48
  1542  005746  12BD               	iorwf	189,f,c	;volatile
  1543  005748                     
  1544                           ;main.c: 128:     T1CON = 0x30;
  1545  005748  0E30               	movlw	48
  1546  00574A  6ECD               	movwf	205,c	;volatile
  1547  00574C                     
  1548                           ;main.c: 129:     TMR1H = 0;
  1549  00574C  0E00               	movlw	0
  1550  00574E  6ECF               	movwf	207,c	;volatile
  1551  005750                     
  1552                           ;main.c: 130:     TMR1L = 0;
  1553  005750  0E00               	movlw	0
  1554  005752  6ECE               	movwf	206,c	;volatile
  1555  005754                     
  1556                           ;main.c: 131:     T1CONbits.TMR1ON = 0;
  1557  005754  90CD               	bcf	205,0,c	;volatile
  1558  005756                     
  1559                           ;main.c: 132:     PIE1bits.TMR1IE = 1;
  1560  005756  809D               	bsf	157,0,c	;volatile
  1561  005758                     
  1562                           ;main.c: 133:     PIR1bits.TMR1IF = 0;
  1563  005758  909E               	bcf	158,0,c	;volatile
  1564  00575A                     
  1565                           ;main.c: 134:     CCP2CONbits.CCP2M = 0b1100;
  1566  00575A  50BA               	movf	186,w,c	;volatile
  1567  00575C  0BF0               	andlw	-16
  1568  00575E  090C               	iorlw	12
  1569  005760  6EBA               	movwf	186,c	;volatile
  1570  005762                     
  1571                           ;main.c: 135:     CCPR2L = 37;
  1572  005762  0E25               	movlw	37
  1573  005764  6EBB               	movwf	187,c	;volatile
  1574  005766                     
  1575                           ;main.c: 136:     CCP2CONbits.DC2B = 3;
  1576  005766  0E30               	movlw	48
  1577  005768  12BA               	iorwf	186,f,c	;volatile
  1578  00576A                     l8034:
  1579                           
  1580                           ;main.c: 139:         strcpy(str, GetString());
  1581  00576A  0E58               	movlw	low _str
  1582  00576C  6E14               	movwf	strcpy@dest^0,c
  1583  00576E  0E02               	movlw	high _str
  1584  005770  6E15               	movwf	(strcpy@dest+1)^0,c
  1585  005772  EC51  F036         	call	_GetString	;wreg free
  1586  005776  C012  F016         	movff	?_GetString,strcpy@src
  1587  00577A  C013  F017         	movff	?_GetString+1,strcpy@src+1
  1588  00577E  EC0D  F034         	call	_strcpy	;wreg free
  1589  005782                     
  1590                           ;main.c: 140:         if(str[0]=='s' && str[1]=='e' && str[2]=='t' && str[3]==' ' && str
      +                          [4]=='t' && str[5]=='i' && str[6]=='m' && str[7]=='e') {
  1591  005782  0E73               	movlw	115
  1592  005784  0102               	movlb	2	; () banked
  1593  005786  1958               	xorwf	_str& (0+255),w,b
  1594  005788  A4D8               	btfss	status,2,c
  1595  00578A  EFC9  F02B         	goto	u10401
  1596  00578E  EFCB  F02B         	goto	u10400
  1597  005792                     u10401:
  1598  005792  EF0E  F02C         	goto	l8056
  1599  005796                     u10400:
  1600  005796                     
  1601                           ; BSR set to: 2
  1602  005796  0E65               	movlw	101
  1603  005798  1959               	xorwf	(_str+1)& (0+255),w,b
  1604  00579A  A4D8               	btfss	status,2,c
  1605  00579C  EFD2  F02B         	goto	u10411
  1606  0057A0  EFD4  F02B         	goto	u10410
  1607  0057A4                     u10411:
  1608  0057A4  EF0E  F02C         	goto	l8056
  1609  0057A8                     u10410:
  1610  0057A8                     
  1611                           ; BSR set to: 2
  1612  0057A8  0E74               	movlw	116
  1613  0057AA  195A               	xorwf	(_str+2)& (0+255),w,b
  1614  0057AC  A4D8               	btfss	status,2,c
  1615  0057AE  EFDB  F02B         	goto	u10421
  1616  0057B2  EFDD  F02B         	goto	u10420
  1617  0057B6                     u10421:
  1618  0057B6  EF0E  F02C         	goto	l8056
  1619  0057BA                     u10420:
  1620  0057BA                     
  1621                           ; BSR set to: 2
  1622  0057BA  0E20               	movlw	32
  1623  0057BC  195B               	xorwf	(_str+3)& (0+255),w,b
  1624  0057BE  A4D8               	btfss	status,2,c
  1625  0057C0  EFE4  F02B         	goto	u10431
  1626  0057C4  EFE6  F02B         	goto	u10430
  1627  0057C8                     u10431:
  1628  0057C8  EF0E  F02C         	goto	l8056
  1629  0057CC                     u10430:
  1630  0057CC                     
  1631                           ; BSR set to: 2
  1632  0057CC  0E74               	movlw	116
  1633  0057CE  195C               	xorwf	(_str+4)& (0+255),w,b
  1634  0057D0  A4D8               	btfss	status,2,c
  1635  0057D2  EFED  F02B         	goto	u10441
  1636  0057D6  EFEF  F02B         	goto	u10440
  1637  0057DA                     u10441:
  1638  0057DA  EF0E  F02C         	goto	l8056
  1639  0057DE                     u10440:
  1640  0057DE                     
  1641                           ; BSR set to: 2
  1642  0057DE  0E69               	movlw	105
  1643  0057E0  195D               	xorwf	(_str+5)& (0+255),w,b
  1644  0057E2  A4D8               	btfss	status,2,c
  1645  0057E4  EFF6  F02B         	goto	u10451
  1646  0057E8  EFF8  F02B         	goto	u10450
  1647  0057EC                     u10451:
  1648  0057EC  EF0E  F02C         	goto	l8056
  1649  0057F0                     u10450:
  1650  0057F0                     
  1651                           ; BSR set to: 2
  1652  0057F0  0E6D               	movlw	109
  1653  0057F2  195E               	xorwf	(_str+6)& (0+255),w,b
  1654  0057F4  A4D8               	btfss	status,2,c
  1655  0057F6  EFFF  F02B         	goto	u10461
  1656  0057FA  EF01  F02C         	goto	u10460
  1657  0057FE                     u10461:
  1658  0057FE  EF0E  F02C         	goto	l8056
  1659  005802                     u10460:
  1660  005802                     
  1661                           ; BSR set to: 2
  1662  005802  0E65               	movlw	101
  1663  005804  195F               	xorwf	(_str+7)& (0+255),w,b
  1664  005806  A4D8               	btfss	status,2,c
  1665  005808  EF08  F02C         	goto	u10471
  1666  00580C  EF0A  F02C         	goto	u10470
  1667  005810                     u10471:
  1668  005810  EF0E  F02C         	goto	l8056
  1669  005814                     u10470:
  1670  005814                     
  1671                           ; BSR set to: 2
  1672                           ;main.c: 141:             set_time();
  1673  005814  EC89  F02C         	call	_set_time	;wreg free
  1674  005818                     
  1675                           ;main.c: 142:             ClearBuffer();
  1676  005818  EC1D  F035         	call	_ClearBuffer	;wreg free
  1677  00581C                     l8056:
  1678                           
  1679                           ;main.c: 153:         float n = ADC_Read(7);
  1680  00581C  0E00               	movlw	0
  1681  00581E  6E13               	movwf	(ADC_Read@channel+1)^0,c
  1682  005820  0E07               	movlw	7
  1683  005822  6E12               	movwf	ADC_Read@channel^0,c
  1684  005824  ECAD  F035         	call	_ADC_Read	;wreg free
  1685  005828  C012  F018         	movff	?_ADC_Read,___xxtofl@val
  1686  00582C  C013  F019         	movff	?_ADC_Read+1,___xxtofl@val+1
  1687  005830  0E00               	movlw	0
  1688  005832  BE19               	btfsc	(___xxtofl@val+1)^0,7,c
  1689  005834  0EFF               	movlw	-1
  1690  005836  6E1A               	movwf	(___xxtofl@val+2)^0,c
  1691  005838  6E1B               	movwf	(___xxtofl@val+3)^0,c
  1692  00583A  0E01               	movlw	1
  1693  00583C  EC70  F02D         	call	___xxtofl
  1694  005840  C018  F0FB         	movff	?___xxtofl,main@n
  1695  005844  C019  F0FC         	movff	?___xxtofl+1,main@n+1
  1696  005848  C01A  F0FD         	movff	?___xxtofl+2,main@n+2
  1697  00584C  C01B  F0FE         	movff	?___xxtofl+3,main@n+3
  1698  005850                     
  1699                           ;main.c: 155:         char m2[10];;main.c: 156:         sprintf(m2, "%.2f", n);
  1700  005850  0EF1               	movlw	low main@m2
  1701  005852  0102               	movlb	2	; () banked
  1702  005854  6F86               	movwf	sprintf@s& (0+255),b
  1703  005856  0E00               	movlw	high main@m2
  1704  005858  6F87               	movwf	(sprintf@s+1)& (0+255),b
  1705  00585A  0E7D               	movlw	low STR_1
  1706  00585C  6F88               	movwf	sprintf@fmt& (0+255),b
  1707  00585E  0E06               	movlw	high STR_1
  1708  005860  6F89               	movwf	(sprintf@fmt+1)& (0+255),b
  1709  005862  C0FB  F28A         	movff	main@n,?_sprintf+4
  1710  005866  C0FC  F28B         	movff	main@n+1,?_sprintf+5
  1711  00586A  C0FD  F28C         	movff	main@n+2,?_sprintf+6
  1712  00586E  C0FE  F28D         	movff	main@n+3,?_sprintf+7
  1713  005872  EC3B  F034         	call	_sprintf	;wreg free
  1714  005876                     
  1715                           ;main.c: 160:         if(n < 1 ) {
  1716  005876  C0FB  F047         	movff	main@n,___flge@ff1
  1717  00587A  C0FC  F048         	movff	main@n+1,___flge@ff1+1
  1718  00587E  C0FD  F049         	movff	main@n+2,___flge@ff1+2
  1719  005882  C0FE  F04A         	movff	main@n+3,___flge@ff1+3
  1720  005886  0E00               	movlw	0
  1721  005888  6E4B               	movwf	___flge@ff2^0,c
  1722  00588A  0E00               	movlw	0
  1723  00588C  6E4C               	movwf	(___flge@ff2+1)^0,c
  1724  00588E  0E80               	movlw	128
  1725  005890  6E4D               	movwf	(___flge@ff2+2)^0,c
  1726  005892  0E3F               	movlw	63
  1727  005894  6E4E               	movwf	(___flge@ff2+3)^0,c
  1728  005896  EC96  F02F         	call	___flge	;wreg free
  1729  00589A  B0D8               	btfsc	status,0,c
  1730  00589C  EF52  F02C         	goto	u10481
  1731  0058A0  EF54  F02C         	goto	u10480
  1732  0058A4                     u10481:
  1733  0058A4  EFB5  F02B         	goto	l8034
  1734  0058A8                     u10480:
  1735  0058A8  EF79  F02C         	goto	l8074
  1736  0058AC                     l8064:
  1737                           
  1738                           ;main.c: 162:             if(CCP1CONbits.DC1B == 0b00) {
  1739  0058AC  38BD               	swapf	189,w,c	;volatile
  1740  0058AE  0B03               	andlw	3
  1741  0058B0  0900               	iorlw	0
  1742  0058B2  A4D8               	btfss	status,2,c
  1743  0058B4  EF5E  F02C         	goto	u10491
  1744  0058B8  EF60  F02C         	goto	u10490
  1745  0058BC                     u10491:
  1746  0058BC  EF65  F02C         	goto	l8070
  1747  0058C0                     u10490:
  1748  0058C0                     
  1749                           ;main.c: 163:                 CCPR1L -= 0b01;
  1750  0058C0  06BE               	decf	190,f,c	;volatile
  1751  0058C2                     
  1752                           ;main.c: 164:                 CCP1CONbits.DC1B = 0b11;
  1753  0058C2  0E30               	movlw	48
  1754  0058C4  12BD               	iorwf	189,f,c	;volatile
  1755                           
  1756                           ;main.c: 165:             }
  1757  0058C6  EF73  F02C         	goto	l8072
  1758  0058CA                     l8070:
  1759                           
  1760                           ;main.c: 167:                 CCP1CONbits.DC1B -= 0b01;
  1761  0058CA  0E01               	movlw	1
  1762  0058CC  0100               	movlb	0	; () banked
  1763  0058CE  6FEF               	movwf	??_main& (0+255),b
  1764  0058D0  38BD               	swapf	189,w,c	;volatile
  1765  0058D2  0B03               	andlw	3
  1766  0058D4  6FF0               	movwf	(??_main+1)& (0+255),b
  1767  0058D6  51EF               	movf	??_main& (0+255),w,b
  1768  0058D8  5FF0               	subwf	(??_main+1)& (0+255),f,b
  1769  0058DA  3BF0               	swapf	(??_main+1)& (0+255),f,b
  1770  0058DC  50BD               	movf	189,w,c	;volatile
  1771  0058DE  19F0               	xorwf	(??_main+1)& (0+255),w,b
  1772  0058E0  0BCF               	andlw	-49
  1773  0058E2  19F0               	xorwf	(??_main+1)& (0+255),w,b
  1774  0058E4  6EBD               	movwf	189,c	;volatile
  1775  0058E6                     l8072:
  1776                           
  1777                           ;main.c: 168:             delay(5);
  1778  0058E6  0E00               	movlw	0
  1779  0058E8  6E13               	movwf	(delay@val+1)^0,c
  1780  0058EA  0E05               	movlw	5
  1781  0058EC  6E12               	movwf	delay@val^0,c
  1782  0058EE  EC91  F034         	call	_delay	;wreg free
  1783  0058F2                     l8074:
  1784                           
  1785                           ;main.c: 161:             while(CCPR1L >= 7) {
  1786  0058F2  0E07               	movlw	7
  1787  0058F4  60BE               	cpfslt	190,c	;volatile
  1788  0058F6  EF7F  F02C         	goto	u10501
  1789  0058FA  EF81  F02C         	goto	u10500
  1790  0058FE                     u10501:
  1791  0058FE  EF56  F02C         	goto	l8064
  1792  005902                     u10500:
  1793  005902                     
  1794                           ;main.c: 170:         CCPR1L = 37;
  1795  005902  0E25               	movlw	37
  1796  005904  6EBE               	movwf	190,c	;volatile
  1797                           
  1798                           ;main.c: 171:         CCP1CONbits.DC1B = 0b11;
  1799  005906  0E30               	movlw	48
  1800  005908  12BD               	iorwf	189,f,c	;volatile
  1801  00590A  EFB5  F02B         	goto	l8034
  1802  00590E  EF36  F000         	goto	start
  1803  005912                     __end_of_main:
  1804                           	callstack 0
  1805                           
  1806 ;; *************** function _sprintf *****************
  1807 ;; Defined at:
  1808 ;;		line 9 in file "C:\Program Files\Microchip\xc8\v2.30\pic\sources\c99\common\nf_sprintf.c"
  1809 ;; Parameters:    Size  Location     Type
  1810 ;;  s               2    6[BANK2 ] PTR unsigned char 
  1811 ;;		 -> main@m2(10), motor@m2(10), 
  1812 ;;  fmt             2    8[BANK2 ] PTR const unsigned char 
  1813 ;;		 -> STR_3(5), STR_1(5), 
  1814 ;; Auto vars:     Size  Location     Type
  1815 ;;  f               6  105[BANK0 ] struct _IO_FILE
  1816 ;;  ap              2  103[BANK0 ] PTR void [1]
  1817 ;;		 -> ?_sprintf(2), 
  1818 ;;  ret             2    0        int 
  1819 ;; Return value:  Size  Location     Type
  1820 ;;                  2    6[BANK2 ] int 
  1821 ;; Registers used:
  1822 ;;		wreg, fsr1l, fsr1h, fsr2l, fsr2h, status,2, status,0, tblptrl, tblptrh, tblptru, prodl, prodh, cstack
  1823 ;; Tracked objects:
  1824 ;;		On entry : 0/0
  1825 ;;		On exit  : 0/0
  1826 ;;		Unchanged: 0/0
  1827 ;; Data sizes:     COMRAM   BANK0   BANK1   BANK2   BANK3   BANK4   BANK5
  1828 ;;      Params:         0       0       0       8       0       0       0
  1829 ;;      Locals:         0      10       0       0       0       0       0
  1830 ;;      Temps:          0       0       0       0       0       0       0
  1831 ;;      Totals:         0      10       0       8       0       0       0
  1832 ;;Total ram usage:       18 bytes
  1833 ;; Hardware stack levels used:    1
  1834 ;; Hardware stack levels required when called:   11
  1835 ;; This function calls:
  1836 ;;		_vfprintf
  1837 ;; This function is called by:
  1838 ;;		_main
  1839 ;;		_motor
  1840 ;; This function uses a non-reentrant model
  1841 ;;
  1842                           
  1843                           	psect	text1
  1844  006876                     __ptext1:
  1845                           	callstack 0
  1846  006876                     _sprintf:
  1847                           	callstack 19
  1848  006876  0E8A               	movlw	low (?_sprintf+4)
  1849  006878  0100               	movlb	0	; () banked
  1850  00687A  6FE7               	movwf	sprintf@ap& (0+255),b
  1851  00687C  0E02               	movlw	high (?_sprintf+4)
  1852  00687E  6FE8               	movwf	(sprintf@ap+1)& (0+255),b
  1853  006880  C286  F0E9         	movff	sprintf@s,sprintf@f
  1854  006884  C287  F0EA         	movff	sprintf@s+1,sprintf@f+1
  1855  006888                     
  1856                           ; BSR set to: 0
  1857  006888  0E00               	movlw	0
  1858  00688A  6FEC               	movwf	(sprintf@f+3)& (0+255),b
  1859  00688C  0E00               	movlw	0
  1860  00688E  6FEB               	movwf	(sprintf@f+2)& (0+255),b
  1861  006890                     
  1862                           ; BSR set to: 0
  1863  006890  0E00               	movlw	0
  1864  006892  6FEE               	movwf	(sprintf@f+5)& (0+255),b
  1865  006894  0E00               	movlw	0
  1866  006896  6FED               	movwf	(sprintf@f+4)& (0+255),b
  1867  006898                     
  1868                           ; BSR set to: 0
  1869  006898  0EE9               	movlw	low sprintf@f
  1870  00689A  0102               	movlb	2	; () banked
  1871  00689C  6F80               	movwf	vfprintf@fp& (0+255),b
  1872  00689E  0E00               	movlw	high sprintf@f
  1873  0068A0  6F81               	movwf	(vfprintf@fp+1)& (0+255),b
  1874  0068A2  C288  F282         	movff	sprintf@fmt,vfprintf@fmt
  1875  0068A6  C289  F283         	movff	sprintf@fmt+1,vfprintf@fmt+1
  1876  0068AA  0EE7               	movlw	low sprintf@ap
  1877  0068AC  6F84               	movwf	vfprintf@ap& (0+255),b
  1878  0068AE  0E00               	movlw	high sprintf@ap
  1879  0068B0  6F85               	movwf	(vfprintf@ap+1)& (0+255),b
  1880  0068B2  ECA8  F033         	call	_vfprintf	;wreg free
  1881  0068B6  0100               	movlb	0	; () banked
  1882  0068B8  51EB               	movf	(sprintf@f+2)& (0+255),w,b
  1883  0068BA  0102               	movlb	2	; () banked
  1884  0068BC  2586               	addwf	sprintf@s& (0+255),w,b
  1885  0068BE  6ED9               	movwf	fsr2l,c
  1886  0068C0  0100               	movlb	0	; () banked
  1887  0068C2  51EC               	movf	(sprintf@f+3)& (0+255),w,b
  1888  0068C4  0102               	movlb	2	; () banked
  1889  0068C6  2187               	addwfc	(sprintf@s+1)& (0+255),w,b
  1890  0068C8  6EDA               	movwf	fsr2h,c
  1891  0068CA  0E00               	movlw	0
  1892  0068CC  6EDF               	movwf	indf2,c
  1893  0068CE                     
  1894                           ; BSR set to: 2
  1895  0068CE  0012               	return		;funcret
  1896  0068D0                     __end_of_sprintf:
  1897                           	callstack 0
  1898                           
  1899 ;; *************** function _vfprintf *****************
  1900 ;; Defined at:
  1901 ;;		line 1390 in file "C:\Program Files\Microchip\xc8\v2.30\pic\sources\c99\common\doprnt.c"
  1902 ;; Parameters:    Size  Location     Type
  1903 ;;  fp              2    0[BANK2 ] PTR struct _IO_FILE
  1904 ;;		 -> sprintf@f(6), 
  1905 ;;  fmt             2    2[BANK2 ] PTR const unsigned char 
  1906 ;;		 -> STR_3(5), STR_1(5), 
  1907 ;;  ap              2    4[BANK2 ] PTR PTR void 
  1908 ;;		 -> sprintf@ap(2), 
  1909 ;; Auto vars:     Size  Location     Type
  1910 ;;  cfmt            2   99[BANK0 ] PTR unsigned char 
  1911 ;;		 -> STR_3(5), STR_1(5), 
  1912 ;; Return value:  Size  Location     Type
  1913 ;;                  2    0[BANK2 ] int 
  1914 ;; Registers used:
  1915 ;;		wreg, fsr1l, fsr1h, fsr2l, fsr2h, status,2, status,0, tblptrl, tblptrh, tblptru, prodl, prodh, cstack
  1916 ;; Tracked objects:
  1917 ;;		On entry : 0/0
  1918 ;;		On exit  : 0/0
  1919 ;;		Unchanged: 0/0
  1920 ;; Data sizes:     COMRAM   BANK0   BANK1   BANK2   BANK3   BANK4   BANK5
  1921 ;;      Params:         0       0       0       6       0       0       0
  1922 ;;      Locals:         0       2       0       0       0       0       0
  1923 ;;      Temps:          0       0       0       0       0       0       0
  1924 ;;      Totals:         0       2       0       6       0       0       0
  1925 ;;Total ram usage:        8 bytes
  1926 ;; Hardware stack levels used:    1
  1927 ;; Hardware stack levels required when called:   10
  1928 ;; This function calls:
  1929 ;;		_vfpfcnvrt
  1930 ;; This function is called by:
  1931 ;;		_sprintf
  1932 ;; This function uses a non-reentrant model
  1933 ;;
  1934                           
  1935                           	psect	text2
  1936  006750                     __ptext2:
  1937                           	callstack 0
  1938  006750                     _vfprintf:
  1939                           	callstack 19
  1940  006750                     
  1941                           ;C:\Program Files\Microchip\xc8\v2.30\pic\sources\c99\common\doprnt.c: 1390: int vfprint
      +                          f(FILE *fp, const char *fmt, va_list ap);C:\Program Files\Microchip\xc8\v2.30\pic\source
      +                          s\c99\common\doprnt.c: 1391: {;C:\Program Files\Microchip\xc8\v2.30\pic\sources\c99\comm
      +                          on\doprnt.c: 1393:     char *cfmt;;C:\Program Files\Microchip\xc8\v2.30\pic\sources\c99\
      +                          common\doprnt.c: 1395:     cfmt = (char *)fmt;
  1942  006750  C282  F0E3         	movff	vfprintf@fmt,vfprintf@cfmt
  1943  006754  C283  F0E4         	movff	vfprintf@fmt+1,vfprintf@cfmt+1
  1944  006758                     
  1945                           ;C:\Program Files\Microchip\xc8\v2.30\pic\sources\c99\common\doprnt.c: 1396:     nout = 
      +                          0;
  1946  006758  0E00               	movlw	0
  1947  00675A  0101               	movlb	1	; () banked
  1948  00675C  6FFB               	movwf	(_nout+1)& (0+255),b
  1949  00675E  0E00               	movlw	0
  1950  006760  6FFA               	movwf	_nout& (0+255),b
  1951                           
  1952                           ;C:\Program Files\Microchip\xc8\v2.30\pic\sources\c99\common\doprnt.c: 1397:     while (
      +                          *cfmt) {
  1953  006762  EFCA  F033         	goto	l7876
  1954  006766                     l7874:
  1955                           
  1956                           ; BSR set to: 1
  1957                           ;C:\Program Files\Microchip\xc8\v2.30\pic\sources\c99\common\doprnt.c: 1398:         nou
      +                          t += vfpfcnvrt(fp, &cfmt, ap);
  1958  006766  C280  F0CD         	movff	vfprintf@fp,vfpfcnvrt@fp
  1959  00676A  C281  F0CE         	movff	vfprintf@fp+1,vfpfcnvrt@fp+1
  1960  00676E  0EE3               	movlw	low vfprintf@cfmt
  1961  006770  0100               	movlb	0	; () banked
  1962  006772  6FCF               	movwf	vfpfcnvrt@fmt& (0+255),b
  1963  006774  0E00               	movlw	high vfprintf@cfmt
  1964  006776  6FD0               	movwf	(vfpfcnvrt@fmt+1)& (0+255),b
  1965  006778  C284  F0D1         	movff	vfprintf@ap,vfpfcnvrt@ap
  1966  00677C  C285  F0D2         	movff	vfprintf@ap+1,vfpfcnvrt@ap+1
  1967  006780  EC55  F023         	call	_vfpfcnvrt	;wreg free
  1968  006784  0100               	movlb	0	; () banked
  1969  006786  51CD               	movf	?_vfpfcnvrt& (0+255),w,b
  1970  006788  0101               	movlb	1	; () banked
  1971  00678A  27FA               	addwf	_nout& (0+255),f,b
  1972  00678C  0100               	movlb	0	; () banked
  1973  00678E  51CE               	movf	(?_vfpfcnvrt+1)& (0+255),w,b
  1974  006790  0101               	movlb	1	; () banked
  1975  006792  23FB               	addwfc	(_nout+1)& (0+255),f,b
  1976  006794                     l7876:
  1977                           
  1978                           ; BSR set to: 1
  1979                           ;C:\Program Files\Microchip\xc8\v2.30\pic\sources\c99\common\doprnt.c: 1397:     while (
      +                          *cfmt) {
  1980  006794  C0E3  FFF6         	movff	vfprintf@cfmt,tblptrl
  1981  006798  C0E4  FFF7         	movff	vfprintf@cfmt+1,tblptrh
  1982  00679C                     	if	0	;tblptru may be non-zero
  1983  00679C                     	endif
  1984  00679C                     	if	0	;tblptru may be non-zero
  1985  00679C                     	endif
  1986  00679C  0008               	tblrd		*
  1987  00679E  50F5               	movf	tablat,w,c
  1988  0067A0  0900               	iorlw	0
  1989  0067A2  A4D8               	btfss	status,2,c
  1990  0067A4  EFD6  F033         	goto	u10271
  1991  0067A8  EFD8  F033         	goto	u10270
  1992  0067AC                     u10271:
  1993  0067AC  EFB3  F033         	goto	l7874
  1994  0067B0                     u10270:
  1995  0067B0                     
  1996                           ; BSR set to: 1
  1997                           ;C:\Program Files\Microchip\xc8\v2.30\pic\sources\c99\common\doprnt.c: 1400:     return 
      +                          nout;
  1998  0067B0  C1FA  F280         	movff	_nout,?_vfprintf
  1999  0067B4  C1FB  F281         	movff	_nout+1,?_vfprintf+1
  2000  0067B8                     
  2001                           ; BSR set to: 1
  2002  0067B8  0012               	return		;funcret
  2003  0067BA                     __end_of_vfprintf:
  2004                           	callstack 0
  2005                           
  2006 ;; *************** function _vfpfcnvrt *****************
  2007 ;; Defined at:
  2008 ;;		line 692 in file "C:\Program Files\Microchip\xc8\v2.30\pic\sources\c99\common\doprnt.c"
  2009 ;; Parameters:    Size  Location     Type
  2010 ;;  fp              2   77[BANK0 ] PTR struct _IO_FILE
  2011 ;;		 -> sprintf@f(6), 
  2012 ;;  fmt             2   79[BANK0 ] PTR PTR unsigned char 
  2013 ;;		 -> vfprintf@cfmt(2), 
  2014 ;;  ap              2   81[BANK0 ] PTR PTR void 
  2015 ;;		 -> sprintf@ap(2), 
  2016 ;; Auto vars:     Size  Location     Type
  2017 ;;  llu             8    0        unsigned long long 
  2018 ;;  ll              8    0        long long 
  2019 ;;  f               4   91[BANK0 ] long long 
  2020 ;;  ct              3   95[BANK0 ] unsigned char [3]
  2021 ;;  vp              3    0        PTR void 
  2022 ;;  cp              3    0        PTR unsigned char 
  2023 ;;  i               2    0        int 
  2024 ;;  done            2    0        int 
  2025 ;;  c               1   98[BANK0 ] unsigned char 
  2026 ;; Return value:  Size  Location     Type
  2027 ;;                  2   77[BANK0 ] int 
  2028 ;; Registers used:
  2029 ;;		wreg, fsr1l, fsr1h, fsr2l, fsr2h, status,2, status,0, tblptrl, tblptrh, tblptru, prodl, prodh, cstack
  2030 ;; Tracked objects:
  2031 ;;		On entry : 0/0
  2032 ;;		On exit  : 0/0
  2033 ;;		Unchanged: 0/0
  2034 ;; Data sizes:     COMRAM   BANK0   BANK1   BANK2   BANK3   BANK4   BANK5
  2035 ;;      Params:         0       6       0       0       0       0       0
  2036 ;;      Locals:         0      12       0       0       0       0       0
  2037 ;;      Temps:          0       4       0       0       0       0       0
  2038 ;;      Totals:         0      22       0       0       0       0       0
  2039 ;;Total ram usage:       22 bytes
  2040 ;; Hardware stack levels used:    1
  2041 ;; Hardware stack levels required when called:    9
  2042 ;; This function calls:
  2043 ;;		_atoi
  2044 ;;		_efgtoa
  2045 ;;		_fputc
  2046 ;;		_isdigit
  2047 ;;		_isupper
  2048 ;;		_strncmp
  2049 ;;		_tolower
  2050 ;; This function is called by:
  2051 ;;		_vfprintf
  2052 ;; This function uses a non-reentrant model
  2053 ;;
  2054                           
  2055                           	psect	text3
  2056  0046AA                     __ptext3:
  2057                           	callstack 0
  2058  0046AA                     _vfpfcnvrt:
  2059                           	callstack 19
  2060  0046AA                     
  2061                           ;C:\Program Files\Microchip\xc8\v2.30\pic\sources\c99\common\doprnt.c: 692: static int v
      +                          fpfcnvrt(FILE *fp, char *fmt[], va_list ap);C:\Program Files\Microchip\xc8\v2.30\pic\sou
      +                          rces\c99\common\doprnt.c: 693: {;C:\Program Files\Microchip\xc8\v2.30\pic\sources\c99\co
      +                          mmon\doprnt.c: 694:     char c, *cp, ct[3];;C:\Program Files\Microchip\xc8\v2.30\pic\sou
      +                          rces\c99\common\doprnt.c: 695:     int done, i;;C:\Program Files\Microchip\xc8\v2.30\pic
      +                          \sources\c99\common\doprnt.c: 696:     long long ll;;C:\Program Files\Microchip\xc8\v2.3
      +                          0\pic\sources\c99\common\doprnt.c: 697:     unsigned long long llu;
  2062  0046AA  C0CF  FFD9         	movff	vfpfcnvrt@fmt,fsr2l
  2063  0046AE  C0D0  FFDA         	movff	vfpfcnvrt@fmt+1,fsr2h
  2064  0046B2  CFDE FFF6          	movff	postinc2,tblptrl
  2065  0046B6  CFDD FFF7          	movff	postdec2,tblptrh
  2066  0046BA                     	if	0	;tblptru may be non-zero
  2067  0046BA                     	endif
  2068  0046BA                     	if	0	;tblptru may be non-zero
  2069  0046BA                     	endif
  2070  0046BA  0008               	tblrd		*
  2071  0046BC  50F5               	movf	tablat,w,c
  2072  0046BE  0A25               	xorlw	37
  2073  0046C0  A4D8               	btfss	status,2,c
  2074  0046C2  EF65  F023         	goto	u9341
  2075  0046C6  EF67  F023         	goto	u9340
  2076  0046CA                     u9341:
  2077  0046CA  EF6F  F025         	goto	l7238
  2078  0046CE                     u9340:
  2079  0046CE                     
  2080                           ;C:\Program Files\Microchip\xc8\v2.30\pic\sources\c99\common\doprnt.c: 703:         ++*f
      +                          mt;
  2081  0046CE  C0CF  FFD9         	movff	vfpfcnvrt@fmt,fsr2l
  2082  0046D2  C0D0  FFDA         	movff	vfpfcnvrt@fmt+1,fsr2h
  2083  0046D6  2ADE               	incf	postinc2,f,c
  2084  0046D8  0E00               	movlw	0
  2085  0046DA  22DD               	addwfc	postdec2,f,c
  2086  0046DC                     
  2087                           ;C:\Program Files\Microchip\xc8\v2.30\pic\sources\c99\common\doprnt.c: 705:         flag
      +                          s = width = 0;
  2088  0046DC  0E00               	movlw	0
  2089  0046DE  6E5F               	movwf	(_width+1)^0,c
  2090  0046E0  0E00               	movlw	0
  2091  0046E2  6E5E               	movwf	_width^0,c
  2092  0046E4  C05E  F062         	movff	_width,_flags
  2093  0046E8  C05F  F063         	movff	_width+1,_flags+1
  2094  0046EC                     
  2095                           ;C:\Program Files\Microchip\xc8\v2.30\pic\sources\c99\common\doprnt.c: 706:         prec
      +                           = -1;
  2096  0046EC  6860               	setf	_prec^0,c
  2097  0046EE  6861               	setf	(_prec+1)^0,c
  2098  0046F0                     
  2099                           ;C:\Program Files\Microchip\xc8\v2.30\pic\sources\c99\common\doprnt.c: 762:         if (
      +                          (*fmt)[0] == '.') {
  2100  0046F0  C0CF  FFD9         	movff	vfpfcnvrt@fmt,fsr2l
  2101  0046F4  C0D0  FFDA         	movff	vfpfcnvrt@fmt+1,fsr2h
  2102  0046F8  CFDE FFF6          	movff	postinc2,tblptrl
  2103  0046FC  CFDD FFF7          	movff	postdec2,tblptrh
  2104  004700                     	if	0	;tblptru may be non-zero
  2105  004700                     	endif
  2106  004700                     	if	0	;tblptru may be non-zero
  2107  004700                     	endif
  2108  004700  0008               	tblrd		*
  2109  004702  50F5               	movf	tablat,w,c
  2110  004704  0A2E               	xorlw	46
  2111  004706  A4D8               	btfss	status,2,c
  2112  004708  EF88  F023         	goto	u9351
  2113  00470C  EF8A  F023         	goto	u9350
  2114  004710                     u9351:
  2115  004710  EF08  F024         	goto	l7184
  2116  004714                     u9350:
  2117  004714                     
  2118                           ;C:\Program Files\Microchip\xc8\v2.30\pic\sources\c99\common\doprnt.c: 763:             
      +                          prec = 0;
  2119  004714  0E00               	movlw	0
  2120  004716  6E61               	movwf	(_prec+1)^0,c
  2121  004718  0E00               	movlw	0
  2122  00471A  6E60               	movwf	_prec^0,c
  2123  00471C                     
  2124                           ;C:\Program Files\Microchip\xc8\v2.30\pic\sources\c99\common\doprnt.c: 764:             
      +                          ++*fmt;
  2125  00471C  C0CF  FFD9         	movff	vfpfcnvrt@fmt,fsr2l
  2126  004720  C0D0  FFDA         	movff	vfpfcnvrt@fmt+1,fsr2h
  2127  004724  2ADE               	incf	postinc2,f,c
  2128  004726  0E00               	movlw	0
  2129  004728  22DD               	addwfc	postdec2,f,c
  2130  00472A                     
  2131                           ;C:\Program Files\Microchip\xc8\v2.30\pic\sources\c99\common\doprnt.c: 765:             
      +                          if ((*fmt)[0] == '*') {
  2132  00472A  C0CF  FFD9         	movff	vfpfcnvrt@fmt,fsr2l
  2133  00472E  C0D0  FFDA         	movff	vfpfcnvrt@fmt+1,fsr2h
  2134  004732  CFDE FFF6          	movff	postinc2,tblptrl
  2135  004736  CFDD FFF7          	movff	postdec2,tblptrh
  2136  00473A                     	if	0	;tblptru may be non-zero
  2137  00473A                     	endif
  2138  00473A                     	if	0	;tblptru may be non-zero
  2139  00473A                     	endif
  2140  00473A  0008               	tblrd		*
  2141  00473C  50F5               	movf	tablat,w,c
  2142  00473E  0A2A               	xorlw	42
  2143  004740  A4D8               	btfss	status,2,c
  2144  004742  EFA5  F023         	goto	u9361
  2145  004746  EFA7  F023         	goto	u9360
  2146  00474A                     u9361:
  2147  00474A  EFC4  F023         	goto	l7174
  2148  00474E                     u9360:
  2149  00474E                     
  2150                           ;C:\Program Files\Microchip\xc8\v2.30\pic\sources\c99\common\doprnt.c: 766:             
      +                              ++*fmt;
  2151  00474E  C0CF  FFD9         	movff	vfpfcnvrt@fmt,fsr2l
  2152  004752  C0D0  FFDA         	movff	vfpfcnvrt@fmt+1,fsr2h
  2153  004756  2ADE               	incf	postinc2,f,c
  2154  004758  0E00               	movlw	0
  2155  00475A  22DD               	addwfc	postdec2,f,c
  2156                           
  2157                           ;C:\Program Files\Microchip\xc8\v2.30\pic\sources\c99\common\doprnt.c: 767:             
      +                              prec = (*(int *)__va_arg(*(int **)ap, (int)0));
  2158  00475C  C0D1  FFD9         	movff	vfpfcnvrt@ap,fsr2l
  2159  004760  C0D2  FFDA         	movff	vfpfcnvrt@ap+1,fsr2h
  2160  004764  CFDF F0D3          	movff	indf2,??_vfpfcnvrt
  2161  004768  0E02               	movlw	2
  2162  00476A  26DE               	addwf	postinc2,f,c
  2163  00476C  CFDF F0D4          	movff	indf2,??_vfpfcnvrt+1
  2164  004770  0E00               	movlw	0
  2165  004772  22DD               	addwfc	postdec2,f,c
  2166  004774  C0D3  FFD9         	movff	??_vfpfcnvrt,fsr2l
  2167  004778  C0D4  FFDA         	movff	??_vfpfcnvrt+1,fsr2h
  2168  00477C  CFDE F060          	movff	postinc2,_prec
  2169  004780  CFDD F061          	movff	postdec2,_prec+1
  2170                           
  2171                           ;C:\Program Files\Microchip\xc8\v2.30\pic\sources\c99\common\doprnt.c: 768:             
      +                          } else {
  2172  004784  EF08  F024         	goto	l7184
  2173  004788                     l7174:
  2174                           
  2175                           ;C:\Program Files\Microchip\xc8\v2.30\pic\sources\c99\common\doprnt.c: 769:             
      +                              prec = atoi(*fmt);
  2176  004788  C0CF  FFD9         	movff	vfpfcnvrt@fmt,fsr2l
  2177  00478C  C0D0  FFDA         	movff	vfpfcnvrt@fmt+1,fsr2h
  2178  004790  CFDE F019          	movff	postinc2,atoi@s
  2179  004794  CFDD F01A          	movff	postdec2,atoi@s+1
  2180  004798  EC4A  F02E         	call	_atoi	;wreg free
  2181  00479C  C019  F060         	movff	?_atoi,_prec
  2182  0047A0  C01A  F061         	movff	?_atoi+1,_prec+1
  2183                           
  2184                           ;C:\Program Files\Microchip\xc8\v2.30\pic\sources\c99\common\doprnt.c: 770:             
      +                              while ((0 ? isdigit((*fmt)[0]) : ((unsigned)((*fmt)[0])-'0') < 10)) {
  2185  0047A4  EFDB  F023         	goto	l7178
  2186  0047A8                     l7176:
  2187                           
  2188                           ; BSR set to: 0
  2189                           ;C:\Program Files\Microchip\xc8\v2.30\pic\sources\c99\common\doprnt.c: 771:             
      +                                  ++*fmt;
  2190  0047A8  C0CF  FFD9         	movff	vfpfcnvrt@fmt,fsr2l
  2191  0047AC  C0D0  FFDA         	movff	vfpfcnvrt@fmt+1,fsr2h
  2192  0047B0  2ADE               	incf	postinc2,f,c
  2193  0047B2  0E00               	movlw	0
  2194  0047B4  22DD               	addwfc	postdec2,f,c
  2195  0047B6                     l7178:
  2196  0047B6  0ED0               	movlw	208
  2197  0047B8  0100               	movlb	0	; () banked
  2198  0047BA  6FD3               	movwf	??_vfpfcnvrt& (0+255),b
  2199  0047BC  0EFF               	movlw	255
  2200  0047BE  6FD4               	movwf	(??_vfpfcnvrt+1)& (0+255),b
  2201  0047C0  C0CF  FFD9         	movff	vfpfcnvrt@fmt,fsr2l
  2202  0047C4  C0D0  FFDA         	movff	vfpfcnvrt@fmt+1,fsr2h
  2203  0047C8  CFDE FFF6          	movff	postinc2,tblptrl
  2204  0047CC  CFDD FFF7          	movff	postdec2,tblptrh
  2205  0047D0                     	if	0	;tblptru may be non-zero
  2206  0047D0                     	endif
  2207  0047D0                     	if	0	;tblptru may be non-zero
  2208  0047D0                     	endif
  2209  0047D0  0008               	tblrd		*
  2210  0047D2  50F5               	movf	tablat,w,c
  2211  0047D4  6FD5               	movwf	(??_vfpfcnvrt+2)& (0+255),b
  2212  0047D6  6BD6               	clrf	(??_vfpfcnvrt+3)& (0+255),b
  2213  0047D8  51D3               	movf	??_vfpfcnvrt& (0+255),w,b
  2214  0047DA  27D5               	addwf	(??_vfpfcnvrt+2)& (0+255),f,b
  2215  0047DC  51D4               	movf	(??_vfpfcnvrt+1)& (0+255),w,b
  2216  0047DE  23D6               	addwfc	(??_vfpfcnvrt+3)& (0+255),f,b
  2217  0047E0  51D6               	movf	(??_vfpfcnvrt+3)& (0+255),w,b
  2218  0047E2  E10A               	bnz	u9370
  2219  0047E4  0E0A               	movlw	10
  2220  0047E6  5DD5               	subwf	(??_vfpfcnvrt+2)& (0+255),w,b
  2221  0047E8  A0D8               	btfss	status,0,c
  2222  0047EA  EFF9  F023         	goto	u9371
  2223  0047EE  EFFC  F023         	goto	u9370
  2224  0047F2                     u9371:
  2225  0047F2  0E01               	movlw	1
  2226  0047F4  EFFD  F023         	goto	u9380
  2227  0047F8                     u9370:
  2228  0047F8  0E00               	movlw	0
  2229  0047FA                     u9380:
  2230  0047FA  6FD7               	movwf	_vfpfcnvrt$1488& (0+255),b
  2231  0047FC  6BD8               	clrf	(_vfpfcnvrt$1488+1)& (0+255),b
  2232  0047FE                     
  2233                           ; BSR set to: 0
  2234  0047FE  51D7               	movf	_vfpfcnvrt$1488& (0+255),w,b
  2235  004800  11D8               	iorwf	(_vfpfcnvrt$1488+1)& (0+255),w,b
  2236  004802  A4D8               	btfss	status,2,c
  2237  004804  EF06  F024         	goto	u9391
  2238  004808  EF08  F024         	goto	u9390
  2239  00480C                     u9391:
  2240  00480C  EFD4  F023         	goto	l7176
  2241  004810                     u9390:
  2242  004810                     l7184:
  2243                           
  2244                           ;C:\Program Files\Microchip\xc8\v2.30\pic\sources\c99\common\doprnt.c: 779:         ct[0
      +                          ] = (char)tolower((int)(*fmt)[0]);
  2245  004810  C0CF  FFD9         	movff	vfpfcnvrt@fmt,fsr2l
  2246  004814  C0D0  FFDA         	movff	vfpfcnvrt@fmt+1,fsr2h
  2247  004818  CFDE FFF6          	movff	postinc2,tblptrl
  2248  00481C  CFDD FFF7          	movff	postdec2,tblptrh
  2249  004820                     	if	0	;tblptru may be non-zero
  2250  004820                     	endif
  2251  004820                     	if	0	;tblptru may be non-zero
  2252  004820                     	endif
  2253  004820  0008               	tblrd		*
  2254  004822  50F5               	movf	tablat,w,c
  2255  004824  6E18               	movwf	tolower@c^0,c
  2256  004826  6A19               	clrf	(tolower@c+1)^0,c
  2257  004828  ECDD  F033         	call	_tolower	;wreg free
  2258  00482C  5018               	movf	?_tolower^0,w,c
  2259  00482E  0100               	movlb	0	; () banked
  2260  004830  6FDF               	movwf	vfpfcnvrt@ct& (0+255),b
  2261  004832                     
  2262                           ; BSR set to: 0
  2263                           ;C:\Program Files\Microchip\xc8\v2.30\pic\sources\c99\common\doprnt.c: 780:         if (
      +                          ct[0]) {
  2264  004832  51DF               	movf	vfpfcnvrt@ct& (0+255),w,b
  2265  004834  B4D8               	btfsc	status,2,c
  2266  004836  EF1F  F024         	goto	u9401
  2267  00483A  EF21  F024         	goto	u9400
  2268  00483E                     u9401:
  2269  00483E  EF5B  F024         	goto	l7194
  2270  004842                     u9400:
  2271  004842                     
  2272                           ; BSR set to: 0
  2273                           ;C:\Program Files\Microchip\xc8\v2.30\pic\sources\c99\common\doprnt.c: 781:             
      +                          ct[1] = (char)tolower((int)(*fmt)[1]);
  2274  004842  C0CF  FFD9         	movff	vfpfcnvrt@fmt,fsr2l
  2275  004846  C0D0  FFDA         	movff	vfpfcnvrt@fmt+1,fsr2h
  2276  00484A  CFDE F0D3          	movff	postinc2,??_vfpfcnvrt
  2277  00484E  CFDD F0D4          	movff	postdec2,??_vfpfcnvrt+1
  2278  004852  0E01               	movlw	1
  2279  004854  27D3               	addwf	??_vfpfcnvrt& (0+255),f,b
  2280  004856  0E00               	movlw	0
  2281  004858  23D4               	addwfc	(??_vfpfcnvrt+1)& (0+255),f,b
  2282  00485A  C0D3  FFF6         	movff	??_vfpfcnvrt,tblptrl
  2283  00485E  C0D4  FFF7         	movff	??_vfpfcnvrt+1,tblptrh
  2284  004862                     	if	0	;tblptru may be non-zero
  2285  004862                     	endif
  2286  004862                     	if	0	;tblptru may be non-zero
  2287  004862                     	endif
  2288  004862  0008               	tblrd		*
  2289  004864  50F5               	movf	tablat,w,c
  2290  004866  6E18               	movwf	tolower@c^0,c
  2291  004868  6A19               	clrf	(tolower@c+1)^0,c
  2292  00486A  ECDD  F033         	call	_tolower	;wreg free
  2293  00486E  5018               	movf	?_tolower^0,w,c
  2294  004870  0100               	movlb	0	; () banked
  2295  004872  6FE0               	movwf	(vfpfcnvrt@ct+1)& (0+255),b
  2296  004874                     
  2297                           ; BSR set to: 0
  2298                           ;C:\Program Files\Microchip\xc8\v2.30\pic\sources\c99\common\doprnt.c: 782:             
      +                          if (ct[1]) {
  2299  004874  51E0               	movf	(vfpfcnvrt@ct+1)& (0+255),w,b
  2300  004876  B4D8               	btfsc	status,2,c
  2301  004878  EF40  F024         	goto	u9411
  2302  00487C  EF42  F024         	goto	u9410
  2303  004880                     u9411:
  2304  004880  EF5B  F024         	goto	l7194
  2305  004884                     u9410:
  2306  004884                     
  2307                           ; BSR set to: 0
  2308                           ;C:\Program Files\Microchip\xc8\v2.30\pic\sources\c99\common\doprnt.c: 783:             
      +                              ct[2] = (char)tolower((int)(*fmt)[2]);
  2309  004884  C0CF  FFD9         	movff	vfpfcnvrt@fmt,fsr2l
  2310  004888  C0D0  FFDA         	movff	vfpfcnvrt@fmt+1,fsr2h
  2311  00488C  CFDE F0D3          	movff	postinc2,??_vfpfcnvrt
  2312  004890  CFDD F0D4          	movff	postdec2,??_vfpfcnvrt+1
  2313  004894  0E02               	movlw	2
  2314  004896  27D3               	addwf	??_vfpfcnvrt& (0+255),f,b
  2315  004898  0E00               	movlw	0
  2316  00489A  23D4               	addwfc	(??_vfpfcnvrt+1)& (0+255),f,b
  2317  00489C  C0D3  FFF6         	movff	??_vfpfcnvrt,tblptrl
  2318  0048A0  C0D4  FFF7         	movff	??_vfpfcnvrt+1,tblptrh
  2319  0048A4                     	if	0	;tblptru may be non-zero
  2320  0048A4                     	endif
  2321  0048A4                     	if	0	;tblptru may be non-zero
  2322  0048A4                     	endif
  2323  0048A4  0008               	tblrd		*
  2324  0048A6  50F5               	movf	tablat,w,c
  2325  0048A8  6E18               	movwf	tolower@c^0,c
  2326  0048AA  6A19               	clrf	(tolower@c+1)^0,c
  2327  0048AC  ECDD  F033         	call	_tolower	;wreg free
  2328  0048B0  5018               	movf	?_tolower^0,w,c
  2329  0048B2  0100               	movlb	0	; () banked
  2330  0048B4  6FE1               	movwf	(vfpfcnvrt@ct+2)& (0+255),b
  2331  0048B6                     l7194:
  2332                           
  2333                           ; BSR set to: 0
  2334                           ;C:\Program Files\Microchip\xc8\v2.30\pic\sources\c99\common\doprnt.c: 942:         if (
      +                          ct[0] == 'f') {
  2335  0048B6  0E66               	movlw	102
  2336  0048B8  19DF               	xorwf	vfpfcnvrt@ct& (0+255),w,b
  2337  0048BA  A4D8               	btfss	status,2,c
  2338  0048BC  EF62  F024         	goto	u9421
  2339  0048C0  EF64  F024         	goto	u9420
  2340  0048C4                     u9421:
  2341  0048C4  EFA4  F024         	goto	l7206
  2342  0048C8                     u9420:
  2343  0048C8                     
  2344                           ; BSR set to: 0
  2345                           ;C:\Program Files\Microchip\xc8\v2.30\pic\sources\c99\common\doprnt.c: 944:             
      +                          c = (*fmt)[0];
  2346  0048C8  C0CF  FFD9         	movff	vfpfcnvrt@fmt,fsr2l
  2347  0048CC  C0D0  FFDA         	movff	vfpfcnvrt@fmt+1,fsr2h
  2348  0048D0  CFDE FFF6          	movff	postinc2,tblptrl
  2349  0048D4  CFDD FFF7          	movff	postdec2,tblptrh
  2350  0048D8                     	if	0	;tblptru may be non-zero
  2351  0048D8                     	endif
  2352  0048D8                     	if	0	;tblptru may be non-zero
  2353  0048D8                     	endif
  2354  0048D8  0008               	tblrd		*
  2355  0048DA  CFF5 F0E2          	movff	tablat,vfpfcnvrt@c
  2356  0048DE                     
  2357                           ; BSR set to: 0
  2358                           ;C:\Program Files\Microchip\xc8\v2.30\pic\sources\c99\common\doprnt.c: 945:             
      +                          ++*fmt;
  2359  0048DE  C0CF  FFD9         	movff	vfpfcnvrt@fmt,fsr2l
  2360  0048E2  C0D0  FFDA         	movff	vfpfcnvrt@fmt+1,fsr2h
  2361  0048E6  2ADE               	incf	postinc2,f,c
  2362  0048E8  0E00               	movlw	0
  2363  0048EA  22DD               	addwfc	postdec2,f,c
  2364  0048EC                     
  2365                           ; BSR set to: 0
  2366                           ;C:\Program Files\Microchip\xc8\v2.30\pic\sources\c99\common\doprnt.c: 946:             
      +                          f = (long double)(*(double *)__va_arg(*(double **)ap, (double)0));
  2367  0048EC  C0D1  FFD9         	movff	vfpfcnvrt@ap,fsr2l
  2368  0048F0  C0D2  FFDA         	movff	vfpfcnvrt@ap+1,fsr2h
  2369  0048F4  CFDF F0D3          	movff	indf2,??_vfpfcnvrt
  2370  0048F8  0E04               	movlw	4
  2371  0048FA  26DE               	addwf	postinc2,f,c
  2372  0048FC  CFDF F0D4          	movff	indf2,??_vfpfcnvrt+1
  2373  004900  0E00               	movlw	0
  2374  004902  22DD               	addwfc	postdec2,f,c
  2375  004904  C0D3  FFD9         	movff	??_vfpfcnvrt,fsr2l
  2376  004908  C0D4  FFDA         	movff	??_vfpfcnvrt+1,fsr2h
  2377  00490C  CFDE F0DB          	movff	postinc2,vfpfcnvrt@f
  2378  004910  CFDE F0DC          	movff	postinc2,vfpfcnvrt@f+1
  2379  004914  CFDE F0DD          	movff	postinc2,vfpfcnvrt@f+2
  2380  004918  CFDE F0DE          	movff	postinc2,vfpfcnvrt@f+3
  2381  00491C                     l7202:
  2382                           
  2383                           ; BSR set to: 0
  2384                           ;C:\Program Files\Microchip\xc8\v2.30\pic\sources\c99\common\doprnt.c: 948:             
      +                          return efgtoa(fp, f, c);
  2385  00491C  C0CD  F0C1         	movff	vfpfcnvrt@fp,efgtoa@fp
  2386  004920  C0CE  F0C2         	movff	vfpfcnvrt@fp+1,efgtoa@fp+1
  2387  004924  C0DB  F0C3         	movff	vfpfcnvrt@f,efgtoa@f
  2388  004928  C0DC  F0C4         	movff	vfpfcnvrt@f+1,efgtoa@f+1
  2389  00492C  C0DD  F0C5         	movff	vfpfcnvrt@f+2,efgtoa@f+2
  2390  004930  C0DE  F0C6         	movff	vfpfcnvrt@f+3,efgtoa@f+3
  2391  004934  C0E2  F0C7         	movff	vfpfcnvrt@c,efgtoa@c
  2392  004938  EC54  F018         	call	_efgtoa	;wreg free
  2393  00493C  C0C1  F0CD         	movff	?_efgtoa,?_vfpfcnvrt
  2394  004940  C0C2  F0CE         	movff	?_efgtoa+1,?_vfpfcnvrt+1
  2395  004944  EF8A  F025         	goto	l1075
  2396  004948                     l7206:
  2397                           
  2398                           ; BSR set to: 0
  2399                           ;C:\Program Files\Microchip\xc8\v2.30\pic\sources\c99\common\doprnt.c: 950:         if (
      +                          !strncmp(ct, "lf", ((sizeof("lf")/sizeof("lf"[0]))-1))) {
  2400  004948  0EDF               	movlw	low vfpfcnvrt@ct
  2401  00494A  6E12               	movwf	strncmp@_l^0,c
  2402  00494C  0E00               	movlw	high vfpfcnvrt@ct
  2403  00494E  6E13               	movwf	(strncmp@_l+1)^0,c
  2404  004950  0E92               	movlw	low STR_12
  2405  004952  6E14               	movwf	strncmp@_r^0,c
  2406  004954  0E06               	movlw	high STR_12
  2407  004956  6E15               	movwf	(strncmp@_r+1)^0,c
  2408  004958  0E00               	movlw	0
  2409  00495A  6E17               	movwf	(strncmp@n+1)^0,c
  2410  00495C  0E02               	movlw	2
  2411  00495E  6E16               	movwf	strncmp@n^0,c
  2412  004960  EC10  F031         	call	_strncmp	;wreg free
  2413  004964  5012               	movf	?_strncmp^0,w,c
  2414  004966  1013               	iorwf	(?_strncmp+1)^0,w,c
  2415  004968  A4D8               	btfss	status,2,c
  2416  00496A  EFB9  F024         	goto	u9431
  2417  00496E  EFBB  F024         	goto	u9430
  2418  004972                     u9431:
  2419  004972  EF37  F025         	goto	l7222
  2420  004976                     u9430:
  2421  004976                     
  2422                           ;C:\Program Files\Microchip\xc8\v2.30\pic\sources\c99\common\doprnt.c: 953:             
      +                          if ((0 ? isupper((int)(*fmt)[0]) : ((unsigned)((int)(*fmt)[0])-'A') < 26)) {
  2423  004976  C0CF  FFD9         	movff	vfpfcnvrt@fmt,fsr2l
  2424  00497A  C0D0  FFDA         	movff	vfpfcnvrt@fmt+1,fsr2h
  2425  00497E  CFDE F0D3          	movff	postinc2,??_vfpfcnvrt
  2426  004982  CFDD F0D4          	movff	postdec2,??_vfpfcnvrt+1
  2427  004986  0E01               	movlw	1
  2428  004988  0100               	movlb	0	; () banked
  2429  00498A  27D3               	addwf	??_vfpfcnvrt& (0+255),f,b
  2430  00498C  0E00               	movlw	0
  2431  00498E  23D4               	addwfc	(??_vfpfcnvrt+1)& (0+255),f,b
  2432  004990  C0D3  FFF6         	movff	??_vfpfcnvrt,tblptrl
  2433  004994  C0D4  FFF7         	movff	??_vfpfcnvrt+1,tblptrh
  2434  004998                     	if	0	;tblptru may be non-zero
  2435  004998                     	endif
  2436  004998                     	if	0	;tblptru may be non-zero
  2437  004998                     	endif
  2438  004998  0008               	tblrd		*
  2439  00499A  CFF5 F0E2          	movff	tablat,vfpfcnvrt@c
  2440  00499E  0EBF               	movlw	191
  2441  0049A0  6FD3               	movwf	??_vfpfcnvrt& (0+255),b
  2442  0049A2  0EFF               	movlw	255
  2443  0049A4  6FD4               	movwf	(??_vfpfcnvrt+1)& (0+255),b
  2444  0049A6  C0CF  FFD9         	movff	vfpfcnvrt@fmt,fsr2l
  2445  0049AA  C0D0  FFDA         	movff	vfpfcnvrt@fmt+1,fsr2h
  2446  0049AE  CFDE FFF6          	movff	postinc2,tblptrl
  2447  0049B2  CFDD FFF7          	movff	postdec2,tblptrh
  2448  0049B6                     	if	0	;tblptru may be non-zero
  2449  0049B6                     	endif
  2450  0049B6                     	if	0	;tblptru may be non-zero
  2451  0049B6                     	endif
  2452  0049B6  0008               	tblrd		*
  2453  0049B8  50F5               	movf	tablat,w,c
  2454  0049BA  6FD5               	movwf	(??_vfpfcnvrt+2)& (0+255),b
  2455  0049BC  6BD6               	clrf	(??_vfpfcnvrt+3)& (0+255),b
  2456  0049BE  51D3               	movf	??_vfpfcnvrt& (0+255),w,b
  2457  0049C0  27D5               	addwf	(??_vfpfcnvrt+2)& (0+255),f,b
  2458  0049C2  51D4               	movf	(??_vfpfcnvrt+1)& (0+255),w,b
  2459  0049C4  23D6               	addwfc	(??_vfpfcnvrt+3)& (0+255),f,b
  2460  0049C6  51D6               	movf	(??_vfpfcnvrt+3)& (0+255),w,b
  2461  0049C8  E10A               	bnz	u9440
  2462  0049CA  0E1A               	movlw	26
  2463  0049CC  5DD5               	subwf	(??_vfpfcnvrt+2)& (0+255),w,b
  2464  0049CE  A0D8               	btfss	status,0,c
  2465  0049D0  EFEC  F024         	goto	u9441
  2466  0049D4  EFEF  F024         	goto	u9440
  2467  0049D8                     u9441:
  2468  0049D8  0E01               	movlw	1
  2469  0049DA  EFF0  F024         	goto	u9450
  2470  0049DE                     u9440:
  2471  0049DE  0E00               	movlw	0
  2472  0049E0                     u9450:
  2473  0049E0  6FD9               	movwf	_vfpfcnvrt$1492& (0+255),b
  2474  0049E2  6BDA               	clrf	(_vfpfcnvrt$1492+1)& (0+255),b
  2475  0049E4                     
  2476                           ; BSR set to: 0
  2477  0049E4  51D9               	movf	_vfpfcnvrt$1492& (0+255),w,b
  2478  0049E6  11DA               	iorwf	(_vfpfcnvrt$1492+1)& (0+255),w,b
  2479  0049E8  B4D8               	btfsc	status,2,c
  2480  0049EA  EFF9  F024         	goto	u9461
  2481  0049EE  EFFB  F024         	goto	u9460
  2482  0049F2                     u9461:
  2483  0049F2  EF15  F025         	goto	l7216
  2484  0049F6                     u9460:
  2485  0049F6                     
  2486                           ; BSR set to: 0
  2487                           ;C:\Program Files\Microchip\xc8\v2.30\pic\sources\c99\common\doprnt.c: 954:             
      +                              f = (*(long double *)__va_arg(*(long double **)ap, (long double)0));
  2488  0049F6  C0D1  FFD9         	movff	vfpfcnvrt@ap,fsr2l
  2489  0049FA  C0D2  FFDA         	movff	vfpfcnvrt@ap+1,fsr2h
  2490  0049FE  CFDF F0D3          	movff	indf2,??_vfpfcnvrt
  2491  004A02  0E04               	movlw	4
  2492  004A04  26DE               	addwf	postinc2,f,c
  2493  004A06  CFDF F0D4          	movff	indf2,??_vfpfcnvrt+1
  2494  004A0A  0E00               	movlw	0
  2495  004A0C  22DD               	addwfc	postdec2,f,c
  2496  004A0E  C0D3  FFD9         	movff	??_vfpfcnvrt,fsr2l
  2497  004A12  C0D4  FFDA         	movff	??_vfpfcnvrt+1,fsr2h
  2498  004A16  CFDE F0DB          	movff	postinc2,vfpfcnvrt@f
  2499  004A1A  CFDE F0DC          	movff	postinc2,vfpfcnvrt@f+1
  2500  004A1E  CFDE F0DD          	movff	postinc2,vfpfcnvrt@f+2
  2501  004A22  CFDE F0DE          	movff	postinc2,vfpfcnvrt@f+3
  2502                           
  2503                           ;C:\Program Files\Microchip\xc8\v2.30\pic\sources\c99\common\doprnt.c: 955:             
      +                          } else {
  2504  004A26  EF2D  F025         	goto	l1082
  2505  004A2A                     l7216:
  2506                           
  2507                           ; BSR set to: 0
  2508                           ;C:\Program Files\Microchip\xc8\v2.30\pic\sources\c99\common\doprnt.c: 956:             
      +                              f = (long double)(*(double *)__va_arg(*(double **)ap, (double)0));
  2509  004A2A  C0D1  FFD9         	movff	vfpfcnvrt@ap,fsr2l
  2510  004A2E  C0D2  FFDA         	movff	vfpfcnvrt@ap+1,fsr2h
  2511  004A32  CFDF F0D3          	movff	indf2,??_vfpfcnvrt
  2512  004A36  0E04               	movlw	4
  2513  004A38  26DE               	addwf	postinc2,f,c
  2514  004A3A  CFDF F0D4          	movff	indf2,??_vfpfcnvrt+1
  2515  004A3E  0E00               	movlw	0
  2516  004A40  22DD               	addwfc	postdec2,f,c
  2517  004A42  C0D3  FFD9         	movff	??_vfpfcnvrt,fsr2l
  2518  004A46  C0D4  FFDA         	movff	??_vfpfcnvrt+1,fsr2h
  2519  004A4A  CFDE F0DB          	movff	postinc2,vfpfcnvrt@f
  2520  004A4E  CFDE F0DC          	movff	postinc2,vfpfcnvrt@f+1
  2521  004A52  CFDE F0DD          	movff	postinc2,vfpfcnvrt@f+2
  2522  004A56  CFDE F0DE          	movff	postinc2,vfpfcnvrt@f+3
  2523  004A5A                     l1082:
  2524                           
  2525                           ; BSR set to: 0
  2526                           ;C:\Program Files\Microchip\xc8\v2.30\pic\sources\c99\common\doprnt.c: 958:             
      +                          *fmt += ((sizeof("lf")/sizeof("lf"[0]))-1);
  2527  004A5A  0E02               	movlw	2
  2528  004A5C  C0CF  FFD9         	movff	vfpfcnvrt@fmt,fsr2l
  2529  004A60  C0D0  FFDA         	movff	vfpfcnvrt@fmt+1,fsr2h
  2530  004A64  26DE               	addwf	postinc2,f,c
  2531  004A66  0E00               	movlw	0
  2532  004A68  22DD               	addwfc	postdec2,f,c
  2533  004A6A  EF8E  F024         	goto	l7202
  2534  004A6E                     l7222:
  2535                           
  2536                           ;C:\Program Files\Microchip\xc8\v2.30\pic\sources\c99\common\doprnt.c: 1372:         if 
      +                          ((*fmt)[0] == '%') {
  2537  004A6E  C0CF  FFD9         	movff	vfpfcnvrt@fmt,fsr2l
  2538  004A72  C0D0  FFDA         	movff	vfpfcnvrt@fmt+1,fsr2h
  2539  004A76  CFDE FFF6          	movff	postinc2,tblptrl
  2540  004A7A  CFDD FFF7          	movff	postdec2,tblptrh
  2541  004A7E                     	if	0	;tblptru may be non-zero
  2542  004A7E                     	endif
  2543  004A7E                     	if	0	;tblptru may be non-zero
  2544  004A7E                     	endif
  2545  004A7E  0008               	tblrd		*
  2546  004A80  50F5               	movf	tablat,w,c
  2547  004A82  0A25               	xorlw	37
  2548  004A84  A4D8               	btfss	status,2,c
  2549  004A86  EF47  F025         	goto	u9471
  2550  004A8A  EF49  F025         	goto	u9470
  2551  004A8E                     u9471:
  2552  004A8E  EF61  F025         	goto	l7232
  2553  004A92                     u9470:
  2554  004A92                     
  2555                           ;C:\Program Files\Microchip\xc8\v2.30\pic\sources\c99\common\doprnt.c: 1373:            
      +                           ++*fmt;
  2556  004A92  C0CF  FFD9         	movff	vfpfcnvrt@fmt,fsr2l
  2557  004A96  C0D0  FFDA         	movff	vfpfcnvrt@fmt+1,fsr2h
  2558  004A9A  2ADE               	incf	postinc2,f,c
  2559  004A9C  0E00               	movlw	0
  2560  004A9E  22DD               	addwfc	postdec2,f,c
  2561  004AA0                     
  2562                           ;C:\Program Files\Microchip\xc8\v2.30\pic\sources\c99\common\doprnt.c: 1374:            
      +                           fputc((int)'%', fp);
  2563  004AA0  0E00               	movlw	0
  2564  004AA2  6E13               	movwf	(fputc@c+1)^0,c
  2565  004AA4  0E25               	movlw	37
  2566  004AA6  6E12               	movwf	fputc@c^0,c
  2567  004AA8  C0CD  F014         	movff	vfpfcnvrt@fp,fputc@fp
  2568  004AAC  C0CE  F015         	movff	vfpfcnvrt@fp+1,fputc@fp+1
  2569  004AB0  EC7B  F031         	call	_fputc	;wreg free
  2570  004AB4                     l7228:
  2571                           
  2572                           ;C:\Program Files\Microchip\xc8\v2.30\pic\sources\c99\common\doprnt.c: 1375:            
      +                           return 1;
  2573  004AB4  0E00               	movlw	0
  2574  004AB6  0100               	movlb	0	; () banked
  2575  004AB8  6FCE               	movwf	(?_vfpfcnvrt+1)& (0+255),b
  2576  004ABA  0E01               	movlw	1
  2577  004ABC  6FCD               	movwf	?_vfpfcnvrt& (0+255),b
  2578  004ABE  EF8A  F025         	goto	l1075
  2579  004AC2                     l7232:
  2580                           
  2581                           ;C:\Program Files\Microchip\xc8\v2.30\pic\sources\c99\common\doprnt.c: 1379:         ++*
      +                          fmt;
  2582  004AC2  C0CF  FFD9         	movff	vfpfcnvrt@fmt,fsr2l
  2583  004AC6  C0D0  FFDA         	movff	vfpfcnvrt@fmt+1,fsr2h
  2584  004ACA  2ADE               	incf	postinc2,f,c
  2585  004ACC  0E00               	movlw	0
  2586  004ACE  22DD               	addwfc	postdec2,f,c
  2587  004AD0                     
  2588                           ;C:\Program Files\Microchip\xc8\v2.30\pic\sources\c99\common\doprnt.c: 1380:         ret
      +                          urn 0;
  2589  004AD0  0E00               	movlw	0
  2590  004AD2  0100               	movlb	0	; () banked
  2591  004AD4  6FCE               	movwf	(?_vfpfcnvrt+1)& (0+255),b
  2592  004AD6  0E00               	movlw	0
  2593  004AD8  6FCD               	movwf	?_vfpfcnvrt& (0+255),b
  2594  004ADA  EF8A  F025         	goto	l1075
  2595  004ADE                     l7238:
  2596                           
  2597                           ;C:\Program Files\Microchip\xc8\v2.30\pic\sources\c99\common\doprnt.c: 1384:     fputc((
      +                          int)(*fmt)[0], fp);
  2598  004ADE  C0CF  FFD9         	movff	vfpfcnvrt@fmt,fsr2l
  2599  004AE2  C0D0  FFDA         	movff	vfpfcnvrt@fmt+1,fsr2h
  2600  004AE6  CFDE FFF6          	movff	postinc2,tblptrl
  2601  004AEA  CFDD FFF7          	movff	postdec2,tblptrh
  2602  004AEE                     	if	0	;tblptru may be non-zero
  2603  004AEE                     	endif
  2604  004AEE                     	if	0	;tblptru may be non-zero
  2605  004AEE                     	endif
  2606  004AEE  0008               	tblrd		*
  2607  004AF0  50F5               	movf	tablat,w,c
  2608  004AF2  6E12               	movwf	fputc@c^0,c
  2609  004AF4  6A13               	clrf	(fputc@c+1)^0,c
  2610  004AF6  C0CD  F014         	movff	vfpfcnvrt@fp,fputc@fp
  2611  004AFA  C0CE  F015         	movff	vfpfcnvrt@fp+1,fputc@fp+1
  2612  004AFE  EC7B  F031         	call	_fputc	;wreg free
  2613  004B02                     
  2614                           ;C:\Program Files\Microchip\xc8\v2.30\pic\sources\c99\common\doprnt.c: 1385:     ++*fmt;
  2615  004B02  C0CF  FFD9         	movff	vfpfcnvrt@fmt,fsr2l
  2616  004B06  C0D0  FFDA         	movff	vfpfcnvrt@fmt+1,fsr2h
  2617  004B0A  2ADE               	incf	postinc2,f,c
  2618  004B0C  0E00               	movlw	0
  2619  004B0E  22DD               	addwfc	postdec2,f,c
  2620  004B10  EF5A  F025         	goto	l7228
  2621  004B14                     l1075:
  2622  004B14  0012               	return		;funcret
  2623  004B16                     __end_of_vfpfcnvrt:
  2624                           	callstack 0
  2625                           
  2626 ;; *************** function _strncmp *****************
  2627 ;; Defined at:
  2628 ;;		line 3 in file "C:\Program Files\Microchip\xc8\v2.30\pic\sources\c99\common\strncmp.c"
  2629 ;; Parameters:    Size  Location     Type
  2630 ;;  _l              2   17[COMRAM] PTR const unsigned char 
  2631 ;;		 -> vfpfcnvrt@ct(3), 
  2632 ;;  _r              2   19[COMRAM] PTR const unsigned char 
  2633 ;;		 -> STR_14(3), 
  2634 ;;  n               2   21[COMRAM] unsigned int 
  2635 ;; Auto vars:     Size  Location     Type
  2636 ;;  r               2   26[COMRAM] PTR const unsigned char 
  2637 ;;		 -> STR_14(3), 
  2638 ;;  l               2   24[COMRAM] PTR const unsigned char 
  2639 ;;		 -> vfpfcnvrt@ct(3), 
  2640 ;; Return value:  Size  Location     Type
  2641 ;;                  2   17[COMRAM] int 
  2642 ;; Registers used:
  2643 ;;		wreg, fsr2l, fsr2h, status,2, status,0, tblptrl, tblptrh, tblptru
  2644 ;; Tracked objects:
  2645 ;;		On entry : 0/0
  2646 ;;		On exit  : 0/0
  2647 ;;		Unchanged: 0/0
  2648 ;; Data sizes:     COMRAM   BANK0   BANK1   BANK2   BANK3   BANK4   BANK5
  2649 ;;      Params:         6       0       0       0       0       0       0
  2650 ;;      Locals:         4       0       0       0       0       0       0
  2651 ;;      Temps:          1       0       0       0       0       0       0
  2652 ;;      Totals:        11       0       0       0       0       0       0
  2653 ;;Total ram usage:       11 bytes
  2654 ;; Hardware stack levels used:    1
  2655 ;; Hardware stack levels required when called:    4
  2656 ;; This function calls:
  2657 ;;		Nothing
  2658 ;; This function is called by:
  2659 ;;		_vfpfcnvrt
  2660 ;; This function uses a non-reentrant model
  2661 ;;
  2662                           
  2663                           	psect	text4
  2664  006220                     __ptext4:
  2665                           	callstack 0
  2666  006220                     _strncmp:
  2667                           	callstack 23
  2668  006220  C012  F019         	movff	strncmp@_l,strncmp@l
  2669  006224  C013  F01A         	movff	strncmp@_l+1,strncmp@l+1
  2670  006228  C014  F01B         	movff	strncmp@_r,strncmp@r
  2671  00622C  C015  F01C         	movff	strncmp@_r+1,strncmp@r+1
  2672  006230  0616               	decf	strncmp@n^0,f,c
  2673  006232  A0D8               	btfss	status,0,c
  2674  006234  0617               	decf	(strncmp@n+1)^0,f,c
  2675  006236  2816               	incf	strncmp@n^0,w,c
  2676  006238  E106               	bnz	u9191
  2677  00623A  2817               	incf	(strncmp@n+1)^0,w,c
  2678  00623C  A4D8               	btfss	status,2,c
  2679  00623E  EF23  F031         	goto	u9191
  2680  006242  EF25  F031         	goto	u9190
  2681  006246                     u9191:
  2682  006246  EF32  F031         	goto	l7092
  2683  00624A                     u9190:
  2684  00624A  0E00               	movlw	0
  2685  00624C  6E13               	movwf	(?_strncmp+1)^0,c
  2686  00624E  0E00               	movlw	0
  2687  006250  6E12               	movwf	?_strncmp^0,c
  2688  006252  EF7A  F031         	goto	l1434
  2689  006256                     l7090:
  2690  006256  4A19               	infsnz	strncmp@l^0,f,c
  2691  006258  2A1A               	incf	(strncmp@l+1)^0,f,c
  2692  00625A  4A1B               	infsnz	strncmp@r^0,f,c
  2693  00625C  2A1C               	incf	(strncmp@r+1)^0,f,c
  2694  00625E  0616               	decf	strncmp@n^0,f,c
  2695  006260  A0D8               	btfss	status,0,c
  2696  006262  0617               	decf	(strncmp@n+1)^0,f,c
  2697  006264                     l7092:
  2698  006264  C019  FFD9         	movff	strncmp@l,fsr2l
  2699  006268  C01A  FFDA         	movff	strncmp@l+1,fsr2h
  2700  00626C  50DF               	movf	indf2,w,c
  2701  00626E  B4D8               	btfsc	status,2,c
  2702  006270  EF3C  F031         	goto	u9201
  2703  006274  EF3E  F031         	goto	u9200
  2704  006278                     u9201:
  2705  006278  EF69  F031         	goto	l7100
  2706  00627C                     u9200:
  2707  00627C  C01B  FFF6         	movff	strncmp@r,tblptrl
  2708  006280  C01C  FFF7         	movff	strncmp@r+1,tblptrh
  2709  006284                     	if	0	;tblptru may be non-zero
  2710  006284                     	endif
  2711  006284                     	if	0	;tblptru may be non-zero
  2712  006284                     	endif
  2713  006284  0008               	tblrd		*
  2714  006286  50F5               	movf	tablat,w,c
  2715  006288  0900               	iorlw	0
  2716  00628A  B4D8               	btfsc	status,2,c
  2717  00628C  EF4A  F031         	goto	u9211
  2718  006290  EF4C  F031         	goto	u9210
  2719  006294                     u9211:
  2720  006294  EF69  F031         	goto	l7100
  2721  006298                     u9210:
  2722  006298  5016               	movf	strncmp@n^0,w,c
  2723  00629A  1017               	iorwf	(strncmp@n+1)^0,w,c
  2724  00629C  B4D8               	btfsc	status,2,c
  2725  00629E  EF53  F031         	goto	u9221
  2726  0062A2  EF55  F031         	goto	u9220
  2727  0062A6                     u9221:
  2728  0062A6  EF69  F031         	goto	l7100
  2729  0062AA                     u9220:
  2730  0062AA  C019  FFD9         	movff	strncmp@l,fsr2l
  2731  0062AE  C01A  FFDA         	movff	strncmp@l+1,fsr2h
  2732  0062B2  50DF               	movf	indf2,w,c
  2733  0062B4  6E18               	movwf	??_strncmp^0,c
  2734  0062B6  C01B  FFF6         	movff	strncmp@r,tblptrl
  2735  0062BA  C01C  FFF7         	movff	strncmp@r+1,tblptrh
  2736  0062BE                     	if	0	;tblptru may be non-zero
  2737  0062BE                     	endif
  2738  0062BE                     	if	0	;tblptru may be non-zero
  2739  0062BE                     	endif
  2740  0062BE  0008               	tblrd		*
  2741  0062C0  50F5               	movf	tablat,w,c
  2742  0062C2  1818               	xorwf	??_strncmp^0,w,c
  2743  0062C4  B4D8               	btfsc	status,2,c
  2744  0062C6  EF67  F031         	goto	u9231
  2745  0062CA  EF69  F031         	goto	u9230
  2746  0062CE                     u9231:
  2747  0062CE  EF2B  F031         	goto	l7090
  2748  0062D2                     u9230:
  2749  0062D2                     l7100:
  2750  0062D2  C019  FFD9         	movff	strncmp@l,fsr2l
  2751  0062D6  C01A  FFDA         	movff	strncmp@l+1,fsr2h
  2752  0062DA  50DF               	movf	indf2,w,c
  2753  0062DC  6E18               	movwf	??_strncmp^0,c
  2754  0062DE  C01B  FFF6         	movff	strncmp@r,tblptrl
  2755  0062E2  C01C  FFF7         	movff	strncmp@r+1,tblptrh
  2756  0062E6                     	if	0	;tblptru may be non-zero
  2757  0062E6                     	endif
  2758  0062E6                     	if	0	;tblptru may be non-zero
  2759  0062E6                     	endif
  2760  0062E6  0008               	tblrd		*
  2761  0062E8  50F5               	movf	tablat,w,c
  2762  0062EA  5C18               	subwf	??_strncmp^0,w,c
  2763  0062EC  6E12               	movwf	?_strncmp^0,c
  2764  0062EE  6A13               	clrf	(?_strncmp+1)^0,c
  2765  0062F0  A0D8               	btfss	status,0,c
  2766  0062F2  0613               	decf	(?_strncmp+1)^0,f,c
  2767  0062F4                     l1434:
  2768  0062F4  0012               	return		;funcret
  2769  0062F6                     __end_of_strncmp:
  2770                           	callstack 0
  2771                           
  2772 ;; *************** function _efgtoa *****************
  2773 ;; Defined at:
  2774 ;;		line 332 in file "C:\Program Files\Microchip\xc8\v2.30\pic\sources\c99\common\doprnt.c"
  2775 ;; Parameters:    Size  Location     Type
  2776 ;;  fp              2   65[BANK0 ] PTR struct _IO_FILE
  2777 ;;		 -> sprintf@f(6), 
  2778 ;;  f               4   67[BANK0 ] PTR struct _IO_FILE
  2779 ;;  c               1   71[BANK0 ] unsigned char 
  2780 ;; Auto vars:     Size  Location     Type
  2781 ;;  u               4  240[BANK1 ] unsigned char 
  2782 ;;  g               4  232[BANK1 ] unsigned char 
  2783 ;;  l               4  226[BANK1 ] unsigned char 
  2784 ;;  h               4  222[BANK1 ] unsigned char 
  2785 ;;  ou              4  208[BANK1 ] unsigned char 
  2786 ;;  n               2  238[BANK1 ] int 
  2787 ;;  e               2  236[BANK1 ] int 
  2788 ;;  i               2  230[BANK1 ] int 
  2789 ;;  w               2  218[BANK1 ] int 
  2790 ;;  p               2  216[BANK1 ] int 
  2791 ;;  sign            2  214[BANK1 ] int 
  2792 ;;  d               2  212[BANK1 ] int 
  2793 ;;  m               2  206[BANK1 ] int 
  2794 ;;  ne              2  204[BANK1 ] int 
  2795 ;;  pp              2  202[BANK1 ] int 
  2796 ;;  t               2  200[BANK1 ] int 
  2797 ;;  mode            1  221[BANK1 ] unsigned char 
  2798 ;;  nmode           1  220[BANK1 ] unsigned char 
  2799 ;; Return value:  Size  Location     Type
  2800 ;;                  2   65[BANK0 ] int 
  2801 ;; Registers used:
  2802 ;;		wreg, fsr1l, fsr1h, fsr2l, fsr2h, status,2, status,0, tblptrl, tblptrh, tblptru, prodl, prodh, cstack
  2803 ;; Tracked objects:
  2804 ;;		On entry : 0/0
  2805 ;;		On exit  : 0/0
  2806 ;;		Unchanged: 0/0
  2807 ;; Data sizes:     COMRAM   BANK0   BANK1   BANK2   BANK3   BANK4   BANK5
  2808 ;;      Params:         0       7       0       0       0       0       0
  2809 ;;      Locals:         0       0      56       0       0       0       0
  2810 ;;      Temps:          0       5       0       0       0       0       0
  2811 ;;      Totals:         0      12      56       0       0       0       0
  2812 ;;Total ram usage:       68 bytes
  2813 ;; Hardware stack levels used:    1
  2814 ;; Hardware stack levels required when called:    8
  2815 ;; This function calls:
  2816 ;;		___awdiv
  2817 ;;		___awmod
  2818 ;;		___fladd
  2819 ;;		___fldiv
  2820 ;;		___fleq
  2821 ;;		___flge
  2822 ;;		___flmul
  2823 ;;		___flneg
  2824 ;;		___flsub
  2825 ;;		___fltol
  2826 ;;		___fpclassifyf
  2827 ;;		_floorf
  2828 ;;		_isupper
  2829 ;;		_pad
  2830 ;;		_strcpy
  2831 ;;		_tolower
  2832 ;; This function is called by:
  2833 ;;		_vfpfcnvrt
  2834 ;; This function uses a non-reentrant model
  2835 ;;
  2836                           
  2837                           	psect	text5
  2838  0030A8                     __ptext5:
  2839                           	callstack 0
  2840  0030A8                     _efgtoa:
  2841                           	callstack 19
  2842  0030A8                     
  2843                           ;C:\Program Files\Microchip\xc8\v2.30\pic\sources\c99\common\doprnt.c: 332: static int e
      +                          fgtoa(FILE *fp, long double f, char c);C:\Program Files\Microchip\xc8\v2.30\pic\sources\
      +                          c99\common\doprnt.c: 333: {;C:\Program Files\Microchip\xc8\v2.30\pic\sources\c99\common\
      +                          doprnt.c: 334:     char mode, nmode;;C:\Program Files\Microchip\xc8\v2.30\pic\sources\c9
      +                          9\common\doprnt.c: 335:     int d, e, i, m, n, ne, p, pp, sign, t, w;;C:\Program Files\M
      +                          icrochip\xc8\v2.30\pic\sources\c99\common\doprnt.c: 336:     long double g, h, l, ou, u;
  2844  0030A8  0E00               	movlw	0
  2845  0030AA  0101               	movlb	1	; () banked
  2846  0030AC  6FD7               	movwf	(efgtoa@sign+1)& (0+255),b
  2847  0030AE  0E00               	movlw	0
  2848  0030B0  6FD6               	movwf	efgtoa@sign& (0+255),b
  2849  0030B2                     
  2850                           ; BSR set to: 1
  2851                           ;C:\Program Files\Microchip\xc8\v2.30\pic\sources\c99\common\doprnt.c: 340:     g = f;
  2852  0030B2  C0C3  F1E8         	movff	efgtoa@f,efgtoa@g
  2853  0030B6  C0C4  F1E9         	movff	efgtoa@f+1,efgtoa@g+1
  2854  0030BA  C0C5  F1EA         	movff	efgtoa@f+2,efgtoa@g+2
  2855  0030BE  C0C6  F1EB         	movff	efgtoa@f+3,efgtoa@g+3
  2856  0030C2                     
  2857                           ; BSR set to: 1
  2858                           ;C:\Program Files\Microchip\xc8\v2.30\pic\sources\c99\common\doprnt.c: 341:     if (g < 
      +                          0.0) {
  2859  0030C2  BFEB               	btfsc	(efgtoa@g+3)& (0+255),7,b
  2860  0030C4  EF68  F018         	goto	u8580
  2861  0030C8  EF66  F018         	goto	u8581
  2862  0030CC                     u8581:
  2863  0030CC  EF7E  F018         	goto	l6744
  2864  0030D0                     u8580:
  2865  0030D0                     
  2866                           ; BSR set to: 1
  2867                           ;C:\Program Files\Microchip\xc8\v2.30\pic\sources\c99\common\doprnt.c: 342:         sign
      +                           = 1;
  2868  0030D0  0E00               	movlw	0
  2869  0030D2  6FD7               	movwf	(efgtoa@sign+1)& (0+255),b
  2870  0030D4  0E01               	movlw	1
  2871  0030D6  6FD6               	movwf	efgtoa@sign& (0+255),b
  2872  0030D8                     
  2873                           ; BSR set to: 1
  2874                           ;C:\Program Files\Microchip\xc8\v2.30\pic\sources\c99\common\doprnt.c: 343:         g = 
      +                          -g;
  2875  0030D8  C1E8  F012         	movff	efgtoa@g,___flneg@f1
  2876  0030DC  C1E9  F013         	movff	efgtoa@g+1,___flneg@f1+1
  2877  0030E0  C1EA  F014         	movff	efgtoa@g+2,___flneg@f1+2
  2878  0030E4  C1EB  F015         	movff	efgtoa@g+3,___flneg@f1+3
  2879  0030E8  EC76  F035         	call	___flneg	;wreg free
  2880  0030EC  C012  F1E8         	movff	?___flneg,efgtoa@g
  2881  0030F0  C013  F1E9         	movff	?___flneg+1,efgtoa@g+1
  2882  0030F4  C014  F1EA         	movff	?___flneg+2,efgtoa@g+2
  2883  0030F8  C015  F1EB         	movff	?___flneg+3,efgtoa@g+3
  2884  0030FC                     l6744:
  2885                           
  2886                           ;C:\Program Files\Microchip\xc8\v2.30\pic\sources\c99\common\doprnt.c: 347:     n = 0;
  2887  0030FC  0E00               	movlw	0
  2888  0030FE  0101               	movlb	1	; () banked
  2889  003100  6FEF               	movwf	(efgtoa@n+1)& (0+255),b
  2890  003102  0E00               	movlw	0
  2891  003104  6FEE               	movwf	efgtoa@n& (0+255),b
  2892  003106                     
  2893                           ; BSR set to: 1
  2894                           ;C:\Program Files\Microchip\xc8\v2.30\pic\sources\c99\common\doprnt.c: 348:     w = widt
      +                          h;
  2895  003106  C05E  F1DA         	movff	_width,efgtoa@w
  2896  00310A  C05F  F1DB         	movff	_width+1,efgtoa@w+1
  2897  00310E                     
  2898                           ; BSR set to: 1
  2899                           ;C:\Program Files\Microchip\xc8\v2.30\pic\sources\c99\common\doprnt.c: 349:     if (sign
      +                           || (flags & (1 << 2))) {
  2900  00310E  51D6               	movf	efgtoa@sign& (0+255),w,b
  2901  003110  11D7               	iorwf	(efgtoa@sign+1)& (0+255),w,b
  2902  003112  A4D8               	btfss	status,2,c
  2903  003114  EF8E  F018         	goto	u8591
  2904  003118  EF90  F018         	goto	u8590
  2905  00311C                     u8591:
  2906  00311C  EF97  F018         	goto	l6752
  2907  003120                     u8590:
  2908  003120                     
  2909                           ; BSR set to: 1
  2910  003120  A462               	btfss	_flags^0,2,c
  2911  003122  EF95  F018         	goto	u8601
  2912  003126  EF97  F018         	goto	u8600
  2913  00312A                     u8601:
  2914  00312A  EFB1  F018         	goto	l6764
  2915  00312E                     u8600:
  2916  00312E                     l6752:
  2917                           
  2918                           ; BSR set to: 1
  2919                           ;C:\Program Files\Microchip\xc8\v2.30\pic\sources\c99\common\doprnt.c: 350:         dbuf
      +                          [n] = sign ? '-' : '+';
  2920  00312E  51D6               	movf	efgtoa@sign& (0+255),w,b
  2921  003130  11D7               	iorwf	(efgtoa@sign+1)& (0+255),w,b
  2922  003132  A4D8               	btfss	status,2,c
  2923  003134  EF9E  F018         	goto	u8611
  2924  003138  EFA0  F018         	goto	u8610
  2925  00313C                     u8611:
  2926  00313C  EFA6  F018         	goto	l6756
  2927  003140                     u8610:
  2928  003140                     
  2929                           ; BSR set to: 1
  2930  003140  0E00               	movlw	0
  2931  003142  6FBD               	movwf	(_efgtoa$1462+1)& (0+255),b
  2932  003144  0E2B               	movlw	43
  2933  003146  6FBC               	movwf	_efgtoa$1462& (0+255),b
  2934  003148  EFAA  F018         	goto	l6758
  2935  00314C                     l6756:
  2936                           
  2937                           ; BSR set to: 1
  2938  00314C  0E00               	movlw	0
  2939  00314E  6FBD               	movwf	(_efgtoa$1462+1)& (0+255),b
  2940  003150  0E2D               	movlw	45
  2941  003152  6FBC               	movwf	_efgtoa$1462& (0+255),b
  2942  003154                     l6758:
  2943                           
  2944                           ; BSR set to: 1
  2945  003154  C1BC  F208         	movff	_efgtoa$1462,_dbuf
  2946  003158                     
  2947                           ; BSR set to: 1
  2948                           ;C:\Program Files\Microchip\xc8\v2.30\pic\sources\c99\common\doprnt.c: 351:         ++n;
  2949  003158  4BEE               	infsnz	efgtoa@n& (0+255),f,b
  2950  00315A  2BEF               	incf	(efgtoa@n+1)& (0+255),f,b
  2951  00315C                     
  2952                           ; BSR set to: 1
  2953                           ;C:\Program Files\Microchip\xc8\v2.30\pic\sources\c99\common\doprnt.c: 352:         --w;
  2954  00315C  07DA               	decf	efgtoa@w& (0+255),f,b
  2955  00315E  A0D8               	btfss	status,0,c
  2956  003160  07DB               	decf	(efgtoa@w+1)& (0+255),f,b
  2957  003162                     l6764:
  2958                           
  2959                           ; BSR set to: 1
  2960                           ;C:\Program Files\Microchip\xc8\v2.30\pic\sources\c99\common\doprnt.c: 357:         if (
      +                          (0 ? isupper((int)c) : ((unsigned)((int)c)-'A') < 26)) {
  2961  003162  C1E8  F012         	movff	efgtoa@g,___fpclassifyf@x
  2962  003166  C1E9  F013         	movff	efgtoa@g+1,___fpclassifyf@x+1
  2963  00316A  C1EA  F014         	movff	efgtoa@g+2,___fpclassifyf@x+2
  2964  00316E  C1EB  F015         	movff	efgtoa@g+3,___fpclassifyf@x+3
  2965  003172  EC18  F030         	call	___fpclassifyf	;wreg free
  2966  003176  0412               	decf	?___fpclassifyf^0,w,c
  2967  003178  1013               	iorwf	(?___fpclassifyf+1)^0,w,c
  2968  00317A  A4D8               	btfss	status,2,c
  2969  00317C  EFC2  F018         	goto	u8621
  2970  003180  EFC4  F018         	goto	u8620
  2971  003184                     u8621:
  2972  003184  EF1C  F019         	goto	l6782
  2973  003188                     u8620:
  2974  003188  0EBF               	movlw	191
  2975  00318A  0100               	movlb	0	; () banked
  2976  00318C  6FC8               	movwf	??_efgtoa& (0+255),b
  2977  00318E  0EFF               	movlw	255
  2978  003190  6FC9               	movwf	(??_efgtoa+1)& (0+255),b
  2979  003192  51C7               	movf	efgtoa@c& (0+255),w,b
  2980  003194  6FCA               	movwf	(??_efgtoa+2)& (0+255),b
  2981  003196  6BCB               	clrf	(??_efgtoa+3)& (0+255),b
  2982  003198  51C8               	movf	??_efgtoa& (0+255),w,b
  2983  00319A  27CA               	addwf	(??_efgtoa+2)& (0+255),f,b
  2984  00319C  51C9               	movf	(??_efgtoa+1)& (0+255),w,b
  2985  00319E  23CB               	addwfc	(??_efgtoa+3)& (0+255),f,b
  2986  0031A0  51CB               	movf	(??_efgtoa+3)& (0+255),w,b
  2987  0031A2  E10A               	bnz	u8630
  2988  0031A4  0E1A               	movlw	26
  2989  0031A6  5DCA               	subwf	(??_efgtoa+2)& (0+255),w,b
  2990  0031A8  A0D8               	btfss	status,0,c
  2991  0031AA  EFD9  F018         	goto	u8631
  2992  0031AE  EFDC  F018         	goto	u8630
  2993  0031B2                     u8631:
  2994  0031B2  0E01               	movlw	1
  2995  0031B4  EFDD  F018         	goto	u8640
  2996  0031B8                     u8630:
  2997  0031B8  0E00               	movlw	0
  2998  0031BA                     u8640:
  2999  0031BA  0101               	movlb	1	; () banked
  3000  0031BC  6FBE               	movwf	_efgtoa$1463& (0+255),b
  3001  0031BE  6BBF               	clrf	(_efgtoa$1463+1)& (0+255),b
  3002  0031C0                     
  3003                           ; BSR set to: 1
  3004  0031C0  51BE               	movf	_efgtoa$1463& (0+255),w,b
  3005  0031C2  11BF               	iorwf	(_efgtoa$1463+1)& (0+255),w,b
  3006  0031C4  B4D8               	btfsc	status,2,c
  3007  0031C6  EFE7  F018         	goto	u8651
  3008  0031CA  EFE9  F018         	goto	u8650
  3009  0031CE                     u8651:
  3010  0031CE  EFF7  F018         	goto	l6774
  3011  0031D2                     u8650:
  3012  0031D2                     
  3013                           ; BSR set to: 1
  3014                           ;C:\Program Files\Microchip\xc8\v2.30\pic\sources\c99\common\doprnt.c: 358:             
      +                          strcpy(&dbuf[n], "INF");
  3015  0031D2  0E08               	movlw	low _dbuf
  3016  0031D4  25EE               	addwf	efgtoa@n& (0+255),w,b
  3017  0031D6  6E14               	movwf	strcpy@dest^0,c
  3018  0031D8  0E02               	movlw	high _dbuf
  3019  0031DA  21EF               	addwfc	(efgtoa@n+1)& (0+255),w,b
  3020  0031DC  6E15               	movwf	(strcpy@dest+1)^0,c
  3021  0031DE  0E82               	movlw	low STR_4
  3022  0031E0  6E16               	movwf	strcpy@src^0,c
  3023  0031E2  0E06               	movlw	high STR_4
  3024  0031E4  6E17               	movwf	(strcpy@src+1)^0,c
  3025  0031E6  EC0D  F034         	call	_strcpy	;wreg free
  3026                           
  3027                           ;C:\Program Files\Microchip\xc8\v2.30\pic\sources\c99\common\doprnt.c: 359:         } el
      +                          se {
  3028  0031EA  EF03  F019         	goto	l6776
  3029  0031EE                     l6774:
  3030                           
  3031                           ; BSR set to: 1
  3032                           ;C:\Program Files\Microchip\xc8\v2.30\pic\sources\c99\common\doprnt.c: 360:             
      +                          strcpy(&dbuf[n], "inf");
  3033  0031EE  0E08               	movlw	low _dbuf
  3034  0031F0  25EE               	addwf	efgtoa@n& (0+255),w,b
  3035  0031F2  6E14               	movwf	strcpy@dest^0,c
  3036  0031F4  0E02               	movlw	high _dbuf
  3037  0031F6  21EF               	addwfc	(efgtoa@n+1)& (0+255),w,b
  3038  0031F8  6E15               	movwf	(strcpy@dest+1)^0,c
  3039  0031FA  0E8A               	movlw	low STR_5
  3040  0031FC  6E16               	movwf	strcpy@src^0,c
  3041  0031FE  0E06               	movlw	high STR_5
  3042  003200  6E17               	movwf	(strcpy@src+1)^0,c
  3043  003202  EC0D  F034         	call	_strcpy	;wreg free
  3044  003206                     l6776:
  3045                           
  3046                           ;C:\Program Files\Microchip\xc8\v2.30\pic\sources\c99\common\doprnt.c: 362:         w -=
      +                           ((sizeof("inf")/sizeof("inf"[0]))-1);
  3047  003206  0101               	movlb	1	; () banked
  3048  003208  0EFD               	movlw	253
  3049  00320A  27DA               	addwf	efgtoa@w& (0+255),f,b
  3050  00320C  0EFF               	movlw	255
  3051  00320E  23DB               	addwfc	(efgtoa@w+1)& (0+255),f,b
  3052  003210                     l6778:
  3053                           
  3054                           ;C:\Program Files\Microchip\xc8\v2.30\pic\sources\c99\common\doprnt.c: 363:         retu
      +                          rn pad(fp, &dbuf[0], w);
  3055  003210  C0C1  F022         	movff	efgtoa@fp,pad@fp
  3056  003214  C0C2  F023         	movff	efgtoa@fp+1,pad@fp+1
  3057  003218  0E08               	movlw	low _dbuf
  3058  00321A  6E24               	movwf	pad@buf^0,c
  3059  00321C  0E02               	movlw	high _dbuf
  3060  00321E  6E25               	movwf	(pad@buf+1)^0,c
  3061  003220  C1DA  F026         	movff	efgtoa@w,pad@p
  3062  003224  C1DB  F027         	movff	efgtoa@w+1,pad@p+1
  3063  003228  EC42  F032         	call	_pad	;wreg free
  3064  00322C  C022  F0C1         	movff	?_pad,?_efgtoa
  3065  003230  C023  F0C2         	movff	?_pad+1,?_efgtoa+1
  3066  003234  EF93  F01E         	goto	l983
  3067  003238                     l6782:
  3068                           
  3069                           ;C:\Program Files\Microchip\xc8\v2.30\pic\sources\c99\common\doprnt.c: 366:         if (
      +                          (0 ? isupper((int)c) : ((unsigned)((int)c)-'A') < 26)) {
  3070  003238  C1E8  F012         	movff	efgtoa@g,___fpclassifyf@x
  3071  00323C  C1E9  F013         	movff	efgtoa@g+1,___fpclassifyf@x+1
  3072  003240  C1EA  F014         	movff	efgtoa@g+2,___fpclassifyf@x+2
  3073  003244  C1EB  F015         	movff	efgtoa@g+3,___fpclassifyf@x+3
  3074  003248  EC18  F030         	call	___fpclassifyf	;wreg free
  3075  00324C  5012               	movf	?___fpclassifyf^0,w,c
  3076  00324E  1013               	iorwf	(?___fpclassifyf+1)^0,w,c
  3077  003250  A4D8               	btfss	status,2,c
  3078  003252  EF2D  F019         	goto	u8661
  3079  003256  EF2F  F019         	goto	u8660
  3080  00325A                     u8661:
  3081  00325A  EF70  F019         	goto	l6800
  3082  00325E                     u8660:
  3083  00325E  0EBF               	movlw	191
  3084  003260  0100               	movlb	0	; () banked
  3085  003262  6FC8               	movwf	??_efgtoa& (0+255),b
  3086  003264  0EFF               	movlw	255
  3087  003266  6FC9               	movwf	(??_efgtoa+1)& (0+255),b
  3088  003268  51C7               	movf	efgtoa@c& (0+255),w,b
  3089  00326A  6FCA               	movwf	(??_efgtoa+2)& (0+255),b
  3090  00326C  6BCB               	clrf	(??_efgtoa+3)& (0+255),b
  3091  00326E  51C8               	movf	??_efgtoa& (0+255),w,b
  3092  003270  27CA               	addwf	(??_efgtoa+2)& (0+255),f,b
  3093  003272  51C9               	movf	(??_efgtoa+1)& (0+255),w,b
  3094  003274  23CB               	addwfc	(??_efgtoa+3)& (0+255),f,b
  3095  003276  51CB               	movf	(??_efgtoa+3)& (0+255),w,b
  3096  003278  E10A               	bnz	u8670
  3097  00327A  0E1A               	movlw	26
  3098  00327C  5DCA               	subwf	(??_efgtoa+2)& (0+255),w,b
  3099  00327E  A0D8               	btfss	status,0,c
  3100  003280  EF44  F019         	goto	u8671
  3101  003284  EF47  F019         	goto	u8670
  3102  003288                     u8671:
  3103  003288  0E01               	movlw	1
  3104  00328A  EF48  F019         	goto	u8680
  3105  00328E                     u8670:
  3106  00328E  0E00               	movlw	0
  3107  003290                     u8680:
  3108  003290  0101               	movlb	1	; () banked
  3109  003292  6FC0               	movwf	_efgtoa$1468& (0+255),b
  3110  003294  6BC1               	clrf	(_efgtoa$1468+1)& (0+255),b
  3111  003296                     
  3112                           ; BSR set to: 1
  3113  003296  51C0               	movf	_efgtoa$1468& (0+255),w,b
  3114  003298  11C1               	iorwf	(_efgtoa$1468+1)& (0+255),w,b
  3115  00329A  B4D8               	btfsc	status,2,c
  3116  00329C  EF52  F019         	goto	u8691
  3117  0032A0  EF54  F019         	goto	u8690
  3118  0032A4                     u8691:
  3119  0032A4  EF62  F019         	goto	l6792
  3120  0032A8                     u8690:
  3121  0032A8                     
  3122                           ; BSR set to: 1
  3123                           ;C:\Program Files\Microchip\xc8\v2.30\pic\sources\c99\common\doprnt.c: 367:             
      +                          strcpy(&dbuf[n], "NAN");
  3124  0032A8  0E08               	movlw	low _dbuf
  3125  0032AA  25EE               	addwf	efgtoa@n& (0+255),w,b
  3126  0032AC  6E14               	movwf	strcpy@dest^0,c
  3127  0032AE  0E02               	movlw	high _dbuf
  3128  0032B0  21EF               	addwfc	(efgtoa@n+1)& (0+255),w,b
  3129  0032B2  6E15               	movwf	(strcpy@dest+1)^0,c
  3130  0032B4  0E86               	movlw	low STR_8
  3131  0032B6  6E16               	movwf	strcpy@src^0,c
  3132  0032B8  0E06               	movlw	high STR_8
  3133  0032BA  6E17               	movwf	(strcpy@src+1)^0,c
  3134  0032BC  EC0D  F034         	call	_strcpy	;wreg free
  3135                           
  3136                           ;C:\Program Files\Microchip\xc8\v2.30\pic\sources\c99\common\doprnt.c: 368:         } el
      +                          se {
  3137  0032C0  EF03  F019         	goto	l6776
  3138  0032C4                     l6792:
  3139                           
  3140                           ; BSR set to: 1
  3141                           ;C:\Program Files\Microchip\xc8\v2.30\pic\sources\c99\common\doprnt.c: 369:             
      +                          strcpy(&dbuf[n], "nan");
  3142  0032C4  0E08               	movlw	low _dbuf
  3143  0032C6  25EE               	addwf	efgtoa@n& (0+255),w,b
  3144  0032C8  6E14               	movwf	strcpy@dest^0,c
  3145  0032CA  0E02               	movlw	high _dbuf
  3146  0032CC  21EF               	addwfc	(efgtoa@n+1)& (0+255),w,b
  3147  0032CE  6E15               	movwf	(strcpy@dest+1)^0,c
  3148  0032D0  0E8E               	movlw	low STR_9
  3149  0032D2  6E16               	movwf	strcpy@src^0,c
  3150  0032D4  0E06               	movlw	high STR_9
  3151  0032D6  6E17               	movwf	(strcpy@src+1)^0,c
  3152  0032D8  EC0D  F034         	call	_strcpy	;wreg free
  3153  0032DC  EF03  F019         	goto	l6776
  3154  0032E0                     l6800:
  3155                           
  3156                           ;C:\Program Files\Microchip\xc8\v2.30\pic\sources\c99\common\doprnt.c: 376:     u = 1.0;
  3157  0032E0  0E00               	movlw	0
  3158  0032E2  0101               	movlb	1	; () banked
  3159  0032E4  6FF0               	movwf	efgtoa@u& (0+255),b
  3160  0032E6  0E00               	movlw	0
  3161  0032E8  6FF1               	movwf	(efgtoa@u+1)& (0+255),b
  3162  0032EA  0E80               	movlw	128
  3163  0032EC  6FF2               	movwf	(efgtoa@u+2)& (0+255),b
  3164  0032EE  0E3F               	movlw	63
  3165  0032F0  6FF3               	movwf	(efgtoa@u+3)& (0+255),b
  3166                           
  3167                           ;C:\Program Files\Microchip\xc8\v2.30\pic\sources\c99\common\doprnt.c: 377:     e = 0;
  3168  0032F2  0E00               	movlw	0
  3169  0032F4  6FED               	movwf	(efgtoa@e+1)& (0+255),b
  3170  0032F6  0E00               	movlw	0
  3171  0032F8  6FEC               	movwf	efgtoa@e& (0+255),b
  3172  0032FA                     
  3173                           ; BSR set to: 1
  3174                           ;C:\Program Files\Microchip\xc8\v2.30\pic\sources\c99\common\doprnt.c: 378:     if (!(g 
      +                          == 0.0)) {
  3175  0032FA  C1E8  F012         	movff	efgtoa@g,___fleq@ff1
  3176  0032FE  C1E9  F013         	movff	efgtoa@g+1,___fleq@ff1+1
  3177  003302  C1EA  F014         	movff	efgtoa@g+2,___fleq@ff1+2
  3178  003306  C1EB  F015         	movff	efgtoa@g+3,___fleq@ff1+3
  3179  00330A  0E00               	movlw	0
  3180  00330C  6E16               	movwf	___fleq@ff2^0,c
  3181  00330E  0E00               	movlw	0
  3182  003310  6E17               	movwf	(___fleq@ff2+1)^0,c
  3183  003312  0E00               	movlw	0
  3184  003314  6E18               	movwf	(___fleq@ff2+2)^0,c
  3185  003316  0E00               	movlw	0
  3186  003318  6E19               	movwf	(___fleq@ff2+3)^0,c
  3187  00331A  EC53  F033         	call	___fleq	;wreg free
  3188  00331E  B0D8               	btfsc	status,0,c
  3189  003320  EF94  F019         	goto	u8701
  3190  003324  EF96  F019         	goto	u8700
  3191  003328                     u8701:
  3192  003328  EF19  F01A         	goto	l6818
  3193  00332C                     u8700:
  3194  00332C  EFB5  F019         	goto	l6810
  3195  003330                     l6806:
  3196                           
  3197                           ;C:\Program Files\Microchip\xc8\v2.30\pic\sources\c99\common\doprnt.c: 380:             
      +                          u = u*10.0;
  3198  003330  C1F0  F026         	movff	efgtoa@u,___flmul@b
  3199  003334  C1F1  F027         	movff	efgtoa@u+1,___flmul@b+1
  3200  003338  C1F2  F028         	movff	efgtoa@u+2,___flmul@b+2
  3201  00333C  C1F3  F029         	movff	efgtoa@u+3,___flmul@b+3
  3202  003340  0E00               	movlw	0
  3203  003342  6E2A               	movwf	___flmul@a^0,c
  3204  003344  0E00               	movlw	0
  3205  003346  6E2B               	movwf	(___flmul@a+1)^0,c
  3206  003348  0E20               	movlw	32
  3207  00334A  6E2C               	movwf	(___flmul@a+2)^0,c
  3208  00334C  0E41               	movlw	65
  3209  00334E  6E2D               	movwf	(___flmul@a+3)^0,c
  3210  003350  EC8B  F025         	call	___flmul	;wreg free
  3211  003354  C026  F1F0         	movff	?___flmul,efgtoa@u
  3212  003358  C027  F1F1         	movff	?___flmul+1,efgtoa@u+1
  3213  00335C  C028  F1F2         	movff	?___flmul+2,efgtoa@u+2
  3214  003360  C029  F1F3         	movff	?___flmul+3,efgtoa@u+3
  3215  003364                     
  3216                           ;C:\Program Files\Microchip\xc8\v2.30\pic\sources\c99\common\doprnt.c: 381:             
      +                          ++e;
  3217  003364  0101               	movlb	1	; () banked
  3218  003366  4BEC               	infsnz	efgtoa@e& (0+255),f,b
  3219  003368  2BED               	incf	(efgtoa@e+1)& (0+255),f,b
  3220  00336A                     l6810:
  3221                           
  3222                           ;C:\Program Files\Microchip\xc8\v2.30\pic\sources\c99\common\doprnt.c: 379:         whil
      +                          e (!(g < (u*10.0))) {
  3223  00336A  C1E8  F047         	movff	efgtoa@g,___flge@ff1
  3224  00336E  C1E9  F048         	movff	efgtoa@g+1,___flge@ff1+1
  3225  003372  C1EA  F049         	movff	efgtoa@g+2,___flge@ff1+2
  3226  003376  C1EB  F04A         	movff	efgtoa@g+3,___flge@ff1+3
  3227  00337A  0E00               	movlw	0
  3228  00337C  6E2A               	movwf	___flmul@a^0,c
  3229  00337E  0E00               	movlw	0
  3230  003380  6E2B               	movwf	(___flmul@a+1)^0,c
  3231  003382  0E20               	movlw	32
  3232  003384  6E2C               	movwf	(___flmul@a+2)^0,c
  3233  003386  0E41               	movlw	65
  3234  003388  6E2D               	movwf	(___flmul@a+3)^0,c
  3235  00338A  C1F0  F026         	movff	efgtoa@u,___flmul@b
  3236  00338E  C1F1  F027         	movff	efgtoa@u+1,___flmul@b+1
  3237  003392  C1F2  F028         	movff	efgtoa@u+2,___flmul@b+2
  3238  003396  C1F3  F029         	movff	efgtoa@u+3,___flmul@b+3
  3239  00339A  EC8B  F025         	call	___flmul	;wreg free
  3240  00339E  C026  F04B         	movff	?___flmul,___flge@ff2
  3241  0033A2  C027  F04C         	movff	?___flmul+1,___flge@ff2+1
  3242  0033A6  C028  F04D         	movff	?___flmul+2,___flge@ff2+2
  3243  0033AA  C029  F04E         	movff	?___flmul+3,___flge@ff2+3
  3244  0033AE  EC96  F02F         	call	___flge	;wreg free
  3245  0033B2  B0D8               	btfsc	status,0,c
  3246  0033B4  EFDE  F019         	goto	u8711
  3247  0033B8  EFE0  F019         	goto	u8710
  3248  0033BC                     u8711:
  3249  0033BC  EF98  F019         	goto	l6806
  3250  0033C0                     u8710:
  3251  0033C0  EF00  F01A         	goto	l6816
  3252  0033C4                     l6812:
  3253                           
  3254                           ;C:\Program Files\Microchip\xc8\v2.30\pic\sources\c99\common\doprnt.c: 384:             
      +                          u = u/10.0;
  3255  0033C4  C1F0  F047         	movff	efgtoa@u,___fldiv@b
  3256  0033C8  C1F1  F048         	movff	efgtoa@u+1,___fldiv@b+1
  3257  0033CC  C1F2  F049         	movff	efgtoa@u+2,___fldiv@b+2
  3258  0033D0  C1F3  F04A         	movff	efgtoa@u+3,___fldiv@b+3
  3259  0033D4  0E00               	movlw	0
  3260  0033D6  6E4B               	movwf	___fldiv@a^0,c
  3261  0033D8  0E00               	movlw	0
  3262  0033DA  6E4C               	movwf	(___fldiv@a+1)^0,c
  3263  0033DC  0E20               	movlw	32
  3264  0033DE  6E4D               	movwf	(___fldiv@a+2)^0,c
  3265  0033E0  0E41               	movlw	65
  3266  0033E2  6E4E               	movwf	(___fldiv@a+3)^0,c
  3267  0033E4  ECA0  F027         	call	___fldiv	;wreg free
  3268  0033E8  C047  F1F0         	movff	?___fldiv,efgtoa@u
  3269  0033EC  C048  F1F1         	movff	?___fldiv+1,efgtoa@u+1
  3270  0033F0  C049  F1F2         	movff	?___fldiv+2,efgtoa@u+2
  3271  0033F4  C04A  F1F3         	movff	?___fldiv+3,efgtoa@u+3
  3272  0033F8                     
  3273                           ;C:\Program Files\Microchip\xc8\v2.30\pic\sources\c99\common\doprnt.c: 385:             
      +                          --e;
  3274  0033F8  0101               	movlb	1	; () banked
  3275  0033FA  07EC               	decf	efgtoa@e& (0+255),f,b
  3276  0033FC  A0D8               	btfss	status,0,c
  3277  0033FE  07ED               	decf	(efgtoa@e+1)& (0+255),f,b
  3278  003400                     l6816:
  3279                           
  3280                           ;C:\Program Files\Microchip\xc8\v2.30\pic\sources\c99\common\doprnt.c: 383:         whil
      +                          e (g < u) {
  3281  003400  C1E8  F047         	movff	efgtoa@g,___flge@ff1
  3282  003404  C1E9  F048         	movff	efgtoa@g+1,___flge@ff1+1
  3283  003408  C1EA  F049         	movff	efgtoa@g+2,___flge@ff1+2
  3284  00340C  C1EB  F04A         	movff	efgtoa@g+3,___flge@ff1+3
  3285  003410  C1F0  F04B         	movff	efgtoa@u,___flge@ff2
  3286  003414  C1F1  F04C         	movff	efgtoa@u+1,___flge@ff2+1
  3287  003418  C1F2  F04D         	movff	efgtoa@u+2,___flge@ff2+2
  3288  00341C  C1F3  F04E         	movff	efgtoa@u+3,___flge@ff2+3
  3289  003420  EC96  F02F         	call	___flge	;wreg free
  3290  003424  A0D8               	btfss	status,0,c
  3291  003426  EF17  F01A         	goto	u8721
  3292  00342A  EF19  F01A         	goto	u8720
  3293  00342E                     u8721:
  3294  00342E  EFE2  F019         	goto	l6812
  3295  003432                     u8720:
  3296  003432                     l6818:
  3297                           
  3298                           ;C:\Program Files\Microchip\xc8\v2.30\pic\sources\c99\common\doprnt.c: 390:     mode = (
      +                          char)tolower((int)c);
  3299  003432  C0C7  F018         	movff	efgtoa@c,tolower@c
  3300  003436  6A19               	clrf	(tolower@c+1)^0,c
  3301  003438  ECDD  F033         	call	_tolower	;wreg free
  3302  00343C  5018               	movf	?_tolower^0,w,c
  3303  00343E  0101               	movlb	1	; () banked
  3304  003440  6FDD               	movwf	efgtoa@mode& (0+255),b
  3305  003442                     
  3306                           ; BSR set to: 1
  3307                           ;C:\Program Files\Microchip\xc8\v2.30\pic\sources\c99\common\doprnt.c: 391:     nmode = 
      +                          mode;
  3308  003442  C1DD  F1DC         	movff	efgtoa@mode,efgtoa@nmode
  3309  003446                     
  3310                           ; BSR set to: 1
  3311                           ;C:\Program Files\Microchip\xc8\v2.30\pic\sources\c99\common\doprnt.c: 392:     if (mode
      +                           == 'g') {
  3312  003446  0E67               	movlw	103
  3313  003448  19DD               	xorwf	efgtoa@mode& (0+255),w,b
  3314  00344A  A4D8               	btfss	status,2,c
  3315  00344C  EF2A  F01A         	goto	u8731
  3316  003450  EF2C  F01A         	goto	u8730
  3317  003454                     u8731:
  3318  003454  EF52  F01A         	goto	l6832
  3319  003458                     u8730:
  3320  003458                     
  3321                           ; BSR set to: 1
  3322                           ;C:\Program Files\Microchip\xc8\v2.30\pic\sources\c99\common\doprnt.c: 393:   if (prec =
      +                          = 0) {
  3323  003458  5060               	movf	_prec^0,w,c
  3324  00345A  1061               	iorwf	(_prec+1)^0,w,c
  3325  00345C  A4D8               	btfss	status,2,c
  3326  00345E  EF33  F01A         	goto	u8741
  3327  003462  EF35  F01A         	goto	u8740
  3328  003466                     u8741:
  3329  003466  EF39  F01A         	goto	l6828
  3330  00346A                     u8740:
  3331  00346A                     
  3332                           ; BSR set to: 1
  3333                           ;C:\Program Files\Microchip\xc8\v2.30\pic\sources\c99\common\doprnt.c: 394:    prec = 1;
  3334  00346A  0E00               	movlw	0
  3335  00346C  6E61               	movwf	(_prec+1)^0,c
  3336  00346E  0E01               	movlw	1
  3337  003470  6E60               	movwf	_prec^0,c
  3338  003472                     l6828:
  3339                           
  3340                           ; BSR set to: 1
  3341                           ;C:\Program Files\Microchip\xc8\v2.30\pic\sources\c99\common\doprnt.c: 396:         p = 
      +                          (0 < prec) ? prec : 6;
  3342  003472  BE61               	btfsc	(_prec+1)^0,7,c
  3343  003474  EF46  F01A         	goto	u8750
  3344  003478  5061               	movf	(_prec+1)^0,w,c
  3345  00347A  E106               	bnz	u8751
  3346  00347C  0460               	decf	_prec^0,w,c
  3347  00347E  B0D8               	btfsc	status,0,c
  3348  003480  EF44  F01A         	goto	u8751
  3349  003484  EF46  F01A         	goto	u8750
  3350  003488                     u8751:
  3351  003488  EF4C  F01A         	goto	l1001
  3352  00348C                     u8750:
  3353  00348C                     l6830:
  3354                           
  3355                           ; BSR set to: 1
  3356  00348C  0E00               	movlw	0
  3357  00348E  6FD9               	movwf	(efgtoa@p+1)& (0+255),b
  3358  003490  0E06               	movlw	6
  3359  003492  6FD8               	movwf	efgtoa@p& (0+255),b
  3360  003494  EF5B  F01A         	goto	l6838
  3361  003498                     l1001:
  3362                           
  3363                           ; BSR set to: 1
  3364  003498  C060  F1D8         	movff	_prec,efgtoa@p
  3365  00349C  C061  F1D9         	movff	_prec+1,efgtoa@p+1
  3366  0034A0  EF5B  F01A         	goto	l6838
  3367  0034A4                     l6832:
  3368                           
  3369                           ; BSR set to: 1
  3370                           ;C:\Program Files\Microchip\xc8\v2.30\pic\sources\c99\common\doprnt.c: 398:         p = 
      +                          (prec < 0) ? 6 : prec;
  3371  0034A4  BE61               	btfsc	(_prec+1)^0,7,c
  3372  0034A6  EF57  F01A         	goto	u8761
  3373  0034AA  EF59  F01A         	goto	u8760
  3374  0034AE                     u8761:
  3375  0034AE  EF46  F01A         	goto	l6830
  3376  0034B2                     u8760:
  3377  0034B2  EF4C  F01A         	goto	l1001
  3378  0034B6                     l6838:
  3379                           
  3380                           ; BSR set to: 1
  3381                           ;C:\Program Files\Microchip\xc8\v2.30\pic\sources\c99\common\doprnt.c: 402:     if (mode
      +                           == 'g') {
  3382  0034B6  0E67               	movlw	103
  3383  0034B8  19DD               	xorwf	efgtoa@mode& (0+255),w,b
  3384  0034BA  A4D8               	btfss	status,2,c
  3385  0034BC  EF62  F01A         	goto	u8771
  3386  0034C0  EF64  F01A         	goto	u8770
  3387  0034C4                     u8771:
  3388  0034C4  EF9A  F01A         	goto	l6848
  3389  0034C8                     u8770:
  3390  0034C8                     
  3391                           ; BSR set to: 1
  3392                           ;C:\Program Files\Microchip\xc8\v2.30\pic\sources\c99\common\doprnt.c: 403:         if (
      +                          !(e < -4) && !((p - 1) < e)) {
  3393  0034C8  AFED               	btfss	(efgtoa@e+1)& (0+255),7,b
  3394  0034CA  EF72  F01A         	goto	u8780
  3395  0034CE  0EFC               	movlw	252
  3396  0034D0  5DEC               	subwf	efgtoa@e& (0+255),w,b
  3397  0034D2  0EFF               	movlw	255
  3398  0034D4  59ED               	subwfb	(efgtoa@e+1)& (0+255),w,b
  3399  0034D6  A0D8               	btfss	status,0,c
  3400  0034D8  EF70  F01A         	goto	u8781
  3401  0034DC  EF72  F01A         	goto	u8780
  3402  0034E0                     u8781:
  3403  0034E0  EF97  F01A         	goto	l6846
  3404  0034E4                     u8780:
  3405  0034E4                     
  3406                           ; BSR set to: 1
  3407  0034E4  0EFF               	movlw	255
  3408  0034E6  0100               	movlb	0	; () banked
  3409  0034E8  6FC8               	movwf	??_efgtoa& (0+255),b
  3410  0034EA  0EFF               	movlw	255
  3411  0034EC  6FC9               	movwf	(??_efgtoa+1)& (0+255),b
  3412  0034EE  C1D8  F0CA         	movff	efgtoa@p,??_efgtoa+2
  3413  0034F2  C1D9  F0CB         	movff	efgtoa@p+1,??_efgtoa+3
  3414  0034F6  51C8               	movf	??_efgtoa& (0+255),w,b
  3415  0034F8  27CA               	addwf	(??_efgtoa+2)& (0+255),f,b
  3416  0034FA  51C9               	movf	(??_efgtoa+1)& (0+255),w,b
  3417  0034FC  23CB               	addwfc	(??_efgtoa+3)& (0+255),f,b
  3418  0034FE  0101               	movlb	1	; () banked
  3419  003500  51EC               	movf	efgtoa@e& (0+255),w,b
  3420  003502  0100               	movlb	0	; () banked
  3421  003504  5DCA               	subwf	(??_efgtoa+2)& (0+255),w,b
  3422  003506  51CB               	movf	(??_efgtoa+3)& (0+255),w,b
  3423  003508  0A80               	xorlw	128
  3424  00350A  6FCC               	movwf	(??_efgtoa+4)& (0+255),b
  3425  00350C  0101               	movlb	1	; () banked
  3426  00350E  51ED               	movf	(efgtoa@e+1)& (0+255),w,b
  3427  003510  0A80               	xorlw	128
  3428  003512  0100               	movlb	0	; () banked
  3429  003514  59CC               	subwfb	(??_efgtoa+4)& (0+255),w,b
  3430  003516  A0D8               	btfss	status,0,c
  3431  003518  EF90  F01A         	goto	u8791
  3432  00351C  EF92  F01A         	goto	u8790
  3433  003520                     u8791:
  3434  003520  EF97  F01A         	goto	l6846
  3435  003524                     u8790:
  3436  003524                     
  3437                           ; BSR set to: 0
  3438                           ;C:\Program Files\Microchip\xc8\v2.30\pic\sources\c99\common\doprnt.c: 404:             
      +                          nmode = 'f';
  3439  003524  0E66               	movlw	102
  3440  003526  0101               	movlb	1	; () banked
  3441  003528  6FDC               	movwf	efgtoa@nmode& (0+255),b
  3442                           
  3443                           ;C:\Program Files\Microchip\xc8\v2.30\pic\sources\c99\common\doprnt.c: 405:         } el
      +                          se {
  3444  00352A  EF9A  F01A         	goto	l6848
  3445  00352E                     l6846:
  3446                           
  3447                           ;C:\Program Files\Microchip\xc8\v2.30\pic\sources\c99\common\doprnt.c: 406:             
      +                          nmode = 'e';
  3448  00352E  0E65               	movlw	101
  3449  003530  0101               	movlb	1	; () banked
  3450  003532  6FDC               	movwf	efgtoa@nmode& (0+255),b
  3451  003534                     l6848:
  3452                           
  3453                           ; BSR set to: 1
  3454                           ;C:\Program Files\Microchip\xc8\v2.30\pic\sources\c99\common\doprnt.c: 411:     m = p;
  3455  003534  C1D8  F1CE         	movff	efgtoa@p,efgtoa@m
  3456  003538  C1D9  F1CF         	movff	efgtoa@p+1,efgtoa@m+1
  3457  00353C                     
  3458                           ; BSR set to: 1
  3459                           ;C:\Program Files\Microchip\xc8\v2.30\pic\sources\c99\common\doprnt.c: 412:     if (!(mo
      +                          de == 'g') || ((nmode == 'f') && (e < 0))) {
  3460  00353C  0E67               	movlw	103
  3461  00353E  19DD               	xorwf	efgtoa@mode& (0+255),w,b
  3462  003540  A4D8               	btfss	status,2,c
  3463  003542  EFA5  F01A         	goto	u8801
  3464  003546  EFA7  F01A         	goto	u8800
  3465  00354A                     u8801:
  3466  00354A  EFB7  F01A         	goto	l6856
  3467  00354E                     u8800:
  3468  00354E                     
  3469                           ; BSR set to: 1
  3470  00354E  0E66               	movlw	102
  3471  003550  19DC               	xorwf	efgtoa@nmode& (0+255),w,b
  3472  003552  A4D8               	btfss	status,2,c
  3473  003554  EFAE  F01A         	goto	u8811
  3474  003558  EFB0  F01A         	goto	u8810
  3475  00355C                     u8811:
  3476  00355C  EFB9  F01A         	goto	l6858
  3477  003560                     u8810:
  3478  003560                     
  3479                           ; BSR set to: 1
  3480  003560  BFED               	btfsc	(efgtoa@e+1)& (0+255),7,b
  3481  003562  EFB7  F01A         	goto	u8820
  3482  003566  EFB5  F01A         	goto	u8821
  3483  00356A                     u8821:
  3484  00356A  EFB9  F01A         	goto	l6858
  3485  00356E                     u8820:
  3486  00356E                     l6856:
  3487                           
  3488                           ; BSR set to: 1
  3489                           ;C:\Program Files\Microchip\xc8\v2.30\pic\sources\c99\common\doprnt.c: 413:         ++m;
  3490  00356E  4BCE               	infsnz	efgtoa@m& (0+255),f,b
  3491  003570  2BCF               	incf	(efgtoa@m+1)& (0+255),f,b
  3492  003572                     l6858:
  3493                           
  3494                           ; BSR set to: 1
  3495                           ;C:\Program Files\Microchip\xc8\v2.30\pic\sources\c99\common\doprnt.c: 417:     if (nmod
      +                          e == 'f') {
  3496  003572  0E66               	movlw	102
  3497  003574  19DC               	xorwf	efgtoa@nmode& (0+255),w,b
  3498  003576  A4D8               	btfss	status,2,c
  3499  003578  EFC0  F01A         	goto	u8831
  3500  00357C  EFC2  F01A         	goto	u8830
  3501  003580                     u8831:
  3502  003580  EFE2  F01A         	goto	l6868
  3503  003584                     u8830:
  3504  003584                     
  3505                           ; BSR set to: 1
  3506                           ;C:\Program Files\Microchip\xc8\v2.30\pic\sources\c99\common\doprnt.c: 418:         if (
      +                          e < 0) {
  3507  003584  BFED               	btfsc	(efgtoa@e+1)& (0+255),7,b
  3508  003586  EFC9  F01A         	goto	u8840
  3509  00358A  EFC7  F01A         	goto	u8841
  3510  00358E                     u8841:
  3511  00358E  EFD5  F01A         	goto	l6864
  3512  003592                     u8840:
  3513  003592                     
  3514                           ; BSR set to: 1
  3515                           ;C:\Program Files\Microchip\xc8\v2.30\pic\sources\c99\common\doprnt.c: 419:             
      +                          u = 1.0;
  3516  003592  0E00               	movlw	0
  3517  003594  6FF0               	movwf	efgtoa@u& (0+255),b
  3518  003596  0E00               	movlw	0
  3519  003598  6FF1               	movwf	(efgtoa@u+1)& (0+255),b
  3520  00359A  0E80               	movlw	128
  3521  00359C  6FF2               	movwf	(efgtoa@u+2)& (0+255),b
  3522  00359E  0E3F               	movlw	63
  3523  0035A0  6FF3               	movwf	(efgtoa@u+3)& (0+255),b
  3524                           
  3525                           ;C:\Program Files\Microchip\xc8\v2.30\pic\sources\c99\common\doprnt.c: 420:             
      +                          e = 0;
  3526  0035A2  0E00               	movlw	0
  3527  0035A4  6FED               	movwf	(efgtoa@e+1)& (0+255),b
  3528  0035A6  0E00               	movlw	0
  3529  0035A8  6FEC               	movwf	efgtoa@e& (0+255),b
  3530  0035AA                     l6864:
  3531                           
  3532                           ; BSR set to: 1
  3533                           ;C:\Program Files\Microchip\xc8\v2.30\pic\sources\c99\common\doprnt.c: 422:         if (
      +                          !(mode == 'g')) {
  3534  0035AA  0E67               	movlw	103
  3535  0035AC  19DD               	xorwf	efgtoa@mode& (0+255),w,b
  3536  0035AE  B4D8               	btfsc	status,2,c
  3537  0035B0  EFDC  F01A         	goto	u8851
  3538  0035B4  EFDE  F01A         	goto	u8850
  3539  0035B8                     u8851:
  3540  0035B8  EFE2  F01A         	goto	l6868
  3541  0035BC                     u8850:
  3542  0035BC                     
  3543                           ; BSR set to: 1
  3544                           ;C:\Program Files\Microchip\xc8\v2.30\pic\sources\c99\common\doprnt.c: 423:             
      +                          m += e;
  3545  0035BC  51EC               	movf	efgtoa@e& (0+255),w,b
  3546  0035BE  27CE               	addwf	efgtoa@m& (0+255),f,b
  3547  0035C0  51ED               	movf	(efgtoa@e+1)& (0+255),w,b
  3548  0035C2  23CF               	addwfc	(efgtoa@m+1)& (0+255),f,b
  3549  0035C4                     l6868:
  3550                           
  3551                           ; BSR set to: 1
  3552                           ;C:\Program Files\Microchip\xc8\v2.30\pic\sources\c99\common\doprnt.c: 428:     i = 0;
  3553  0035C4  0E00               	movlw	0
  3554  0035C6  6FE7               	movwf	(efgtoa@i+1)& (0+255),b
  3555  0035C8  0E00               	movlw	0
  3556  0035CA  6FE6               	movwf	efgtoa@i& (0+255),b
  3557  0035CC                     
  3558                           ; BSR set to: 1
  3559                           ;C:\Program Files\Microchip\xc8\v2.30\pic\sources\c99\common\doprnt.c: 429:     h = g;
  3560  0035CC  C1E8  F1DE         	movff	efgtoa@g,efgtoa@h
  3561  0035D0  C1E9  F1DF         	movff	efgtoa@g+1,efgtoa@h+1
  3562  0035D4  C1EA  F1E0         	movff	efgtoa@g+2,efgtoa@h+2
  3563  0035D8  C1EB  F1E1         	movff	efgtoa@g+3,efgtoa@h+3
  3564  0035DC                     
  3565                           ; BSR set to: 1
  3566                           ;C:\Program Files\Microchip\xc8\v2.30\pic\sources\c99\common\doprnt.c: 430:     ou = u;
  3567  0035DC  C1F0  F1D0         	movff	efgtoa@u,efgtoa@ou
  3568  0035E0  C1F1  F1D1         	movff	efgtoa@u+1,efgtoa@ou+1
  3569  0035E4  C1F2  F1D2         	movff	efgtoa@u+2,efgtoa@ou+2
  3570  0035E8  C1F3  F1D3         	movff	efgtoa@u+3,efgtoa@ou+3
  3571                           
  3572                           ;C:\Program Files\Microchip\xc8\v2.30\pic\sources\c99\common\doprnt.c: 431:     while (i
      +                           < m) {
  3573  0035EC  EF73  F01B         	goto	l6882
  3574  0035F0                     l6874:
  3575                           
  3576                           ; BSR set to: 0
  3577                           ;C:\Program Files\Microchip\xc8\v2.30\pic\sources\c99\common\doprnt.c: 432:         l = 
      +                          floorf(h/u);
  3578  0035F0  C1DE  F047         	movff	efgtoa@h,___fldiv@b
  3579  0035F4  C1DF  F048         	movff	efgtoa@h+1,___fldiv@b+1
  3580  0035F8  C1E0  F049         	movff	efgtoa@h+2,___fldiv@b+2
  3581  0035FC  C1E1  F04A         	movff	efgtoa@h+3,___fldiv@b+3
  3582  003600  C1F0  F04B         	movff	efgtoa@u,___fldiv@a
  3583  003604  C1F1  F04C         	movff	efgtoa@u+1,___fldiv@a+1
  3584  003608  C1F2  F04D         	movff	efgtoa@u+2,___fldiv@a+2
  3585  00360C  C1F3  F04E         	movff	efgtoa@u+3,___fldiv@a+3
  3586  003610  ECA0  F027         	call	___fldiv	;wreg free
  3587  003614  C047  F053         	movff	?___fldiv,floorf@x
  3588  003618  C048  F054         	movff	?___fldiv+1,floorf@x+1
  3589  00361C  C049  F055         	movff	?___fldiv+2,floorf@x+2
  3590  003620  C04A  F056         	movff	?___fldiv+3,floorf@x+3
  3591  003624  EC88  F02A         	call	_floorf	;wreg free
  3592  003628  C053  F1E2         	movff	?_floorf,efgtoa@l
  3593  00362C  C054  F1E3         	movff	?_floorf+1,efgtoa@l+1
  3594  003630  C055  F1E4         	movff	?_floorf+2,efgtoa@l+2
  3595  003634  C056  F1E5         	movff	?_floorf+3,efgtoa@l+3
  3596                           
  3597                           ;C:\Program Files\Microchip\xc8\v2.30\pic\sources\c99\common\doprnt.c: 433:         d = 
      +                          (int)l;
  3598  003638  C1E2  F0B9         	movff	efgtoa@l,___fltol@f1
  3599  00363C  C1E3  F0BA         	movff	efgtoa@l+1,___fltol@f1+1
  3600  003640  C1E4  F0BB         	movff	efgtoa@l+2,___fltol@f1+2
  3601  003644  C1E5  F0BC         	movff	efgtoa@l+3,___fltol@f1+3
  3602  003648  EC12  F02F         	call	___fltol	;wreg free
  3603  00364C  C0B9  F1D4         	movff	?___fltol,efgtoa@d
  3604  003650  C0BA  F1D5         	movff	?___fltol+1,efgtoa@d+1
  3605  003654                     
  3606                           ;C:\Program Files\Microchip\xc8\v2.30\pic\sources\c99\common\doprnt.c: 434:         h -=
      +                           l*u;
  3607  003654  C1DE  F03F         	movff	efgtoa@h,___flsub@b
  3608  003658  C1DF  F040         	movff	efgtoa@h+1,___flsub@b+1
  3609  00365C  C1E0  F041         	movff	efgtoa@h+2,___flsub@b+2
  3610  003660  C1E1  F042         	movff	efgtoa@h+3,___flsub@b+3
  3611  003664  C1F0  F02A         	movff	efgtoa@u,___flmul@a
  3612  003668  C1F1  F02B         	movff	efgtoa@u+1,___flmul@a+1
  3613  00366C  C1F2  F02C         	movff	efgtoa@u+2,___flmul@a+2
  3614  003670  C1F3  F02D         	movff	efgtoa@u+3,___flmul@a+3
  3615  003674  C1E2  F026         	movff	efgtoa@l,___flmul@b
  3616  003678  C1E3  F027         	movff	efgtoa@l+1,___flmul@b+1
  3617  00367C  C1E4  F028         	movff	efgtoa@l+2,___flmul@b+2
  3618  003680  C1E5  F029         	movff	efgtoa@l+3,___flmul@b+3
  3619  003684  EC8B  F025         	call	___flmul	;wreg free
  3620  003688  C026  F043         	movff	?___flmul,___flsub@a
  3621  00368C  C027  F044         	movff	?___flmul+1,___flsub@a+1
  3622  003690  C028  F045         	movff	?___flmul+2,___flsub@a+2
  3623  003694  C029  F046         	movff	?___flmul+3,___flsub@a+3
  3624  003698  ECB6  F034         	call	___flsub	;wreg free
  3625  00369C  C03F  F1DE         	movff	?___flsub,efgtoa@h
  3626  0036A0  C040  F1DF         	movff	?___flsub+1,efgtoa@h+1
  3627  0036A4  C041  F1E0         	movff	?___flsub+2,efgtoa@h+2
  3628  0036A8  C042  F1E1         	movff	?___flsub+3,efgtoa@h+3
  3629  0036AC                     
  3630                           ;C:\Program Files\Microchip\xc8\v2.30\pic\sources\c99\common\doprnt.c: 435:         u = 
      +                          u/10.0;
  3631  0036AC  C1F0  F047         	movff	efgtoa@u,___fldiv@b
  3632  0036B0  C1F1  F048         	movff	efgtoa@u+1,___fldiv@b+1
  3633  0036B4  C1F2  F049         	movff	efgtoa@u+2,___fldiv@b+2
  3634  0036B8  C1F3  F04A         	movff	efgtoa@u+3,___fldiv@b+3
  3635  0036BC  0E00               	movlw	0
  3636  0036BE  6E4B               	movwf	___fldiv@a^0,c
  3637  0036C0  0E00               	movlw	0
  3638  0036C2  6E4C               	movwf	(___fldiv@a+1)^0,c
  3639  0036C4  0E20               	movlw	32
  3640  0036C6  6E4D               	movwf	(___fldiv@a+2)^0,c
  3641  0036C8  0E41               	movlw	65
  3642  0036CA  6E4E               	movwf	(___fldiv@a+3)^0,c
  3643  0036CC  ECA0  F027         	call	___fldiv	;wreg free
  3644  0036D0  C047  F1F0         	movff	?___fldiv,efgtoa@u
  3645  0036D4  C048  F1F1         	movff	?___fldiv+1,efgtoa@u+1
  3646  0036D8  C049  F1F2         	movff	?___fldiv+2,efgtoa@u+2
  3647  0036DC  C04A  F1F3         	movff	?___fldiv+3,efgtoa@u+3
  3648  0036E0                     
  3649                           ;C:\Program Files\Microchip\xc8\v2.30\pic\sources\c99\common\doprnt.c: 436:         ++i;
  3650  0036E0  0101               	movlb	1	; () banked
  3651  0036E2  4BE6               	infsnz	efgtoa@i& (0+255),f,b
  3652  0036E4  2BE7               	incf	(efgtoa@i+1)& (0+255),f,b
  3653  0036E6                     l6882:
  3654                           
  3655                           ; BSR set to: 1
  3656                           ;C:\Program Files\Microchip\xc8\v2.30\pic\sources\c99\common\doprnt.c: 431:     while (i
      +                           < m) {
  3657  0036E6  51CE               	movf	efgtoa@m& (0+255),w,b
  3658  0036E8  5DE6               	subwf	efgtoa@i& (0+255),w,b
  3659  0036EA  51E7               	movf	(efgtoa@i+1)& (0+255),w,b
  3660  0036EC  0A80               	xorlw	128
  3661  0036EE  0100               	movlb	0	; () banked
  3662  0036F0  6FC8               	movwf	??_efgtoa& (0+255),b
  3663  0036F2  0101               	movlb	1	; () banked
  3664  0036F4  51CF               	movf	(efgtoa@m+1)& (0+255),w,b
  3665  0036F6  0A80               	xorlw	128
  3666  0036F8  0100               	movlb	0	; () banked
  3667  0036FA  59C8               	subwfb	??_efgtoa& (0+255),w,b
  3668  0036FC  A0D8               	btfss	status,0,c
  3669  0036FE  EF83  F01B         	goto	u8861
  3670  003702  EF85  F01B         	goto	u8860
  3671  003706                     u8861:
  3672  003706  EFF8  F01A         	goto	l6874
  3673  00370A                     u8860:
  3674  00370A                     
  3675                           ; BSR set to: 0
  3676                           ;C:\Program Files\Microchip\xc8\v2.30\pic\sources\c99\common\doprnt.c: 440:     l = u*5.
      +                          0;
  3677  00370A  C1F0  F026         	movff	efgtoa@u,___flmul@b
  3678  00370E  C1F1  F027         	movff	efgtoa@u+1,___flmul@b+1
  3679  003712  C1F2  F028         	movff	efgtoa@u+2,___flmul@b+2
  3680  003716  C1F3  F029         	movff	efgtoa@u+3,___flmul@b+3
  3681  00371A  0E00               	movlw	0
  3682  00371C  6E2A               	movwf	___flmul@a^0,c
  3683  00371E  0E00               	movlw	0
  3684  003720  6E2B               	movwf	(___flmul@a+1)^0,c
  3685  003722  0EA0               	movlw	160
  3686  003724  6E2C               	movwf	(___flmul@a+2)^0,c
  3687  003726  0E40               	movlw	64
  3688  003728  6E2D               	movwf	(___flmul@a+3)^0,c
  3689  00372A  EC8B  F025         	call	___flmul	;wreg free
  3690  00372E  C026  F1E2         	movff	?___flmul,efgtoa@l
  3691  003732  C027  F1E3         	movff	?___flmul+1,efgtoa@l+1
  3692  003736  C028  F1E4         	movff	?___flmul+2,efgtoa@l+2
  3693  00373A  C029  F1E5         	movff	?___flmul+3,efgtoa@l+3
  3694  00373E                     
  3695                           ;C:\Program Files\Microchip\xc8\v2.30\pic\sources\c99\common\doprnt.c: 441:     if (h < 
      +                          l) {
  3696  00373E  C1DE  F047         	movff	efgtoa@h,___flge@ff1
  3697  003742  C1DF  F048         	movff	efgtoa@h+1,___flge@ff1+1
  3698  003746  C1E0  F049         	movff	efgtoa@h+2,___flge@ff1+2
  3699  00374A  C1E1  F04A         	movff	efgtoa@h+3,___flge@ff1+3
  3700  00374E  C1E2  F04B         	movff	efgtoa@l,___flge@ff2
  3701  003752  C1E3  F04C         	movff	efgtoa@l+1,___flge@ff2+1
  3702  003756  C1E4  F04D         	movff	efgtoa@l+2,___flge@ff2+2
  3703  00375A  C1E5  F04E         	movff	efgtoa@l+3,___flge@ff2+3
  3704  00375E  EC96  F02F         	call	___flge	;wreg free
  3705  003762  B0D8               	btfsc	status,0,c
  3706  003764  EFB6  F01B         	goto	u8871
  3707  003768  EFB8  F01B         	goto	u8870
  3708  00376C                     u8871:
  3709  00376C  EFC3  F01B         	goto	l6890
  3710  003770                     u8870:
  3711  003770                     
  3712                           ;C:\Program Files\Microchip\xc8\v2.30\pic\sources\c99\common\doprnt.c: 442:         l = 
      +                          0.0;
  3713  003770  0E00               	movlw	0
  3714  003772  0101               	movlb	1	; () banked
  3715  003774  6FE2               	movwf	efgtoa@l& (0+255),b
  3716  003776  0E00               	movlw	0
  3717  003778  6FE3               	movwf	(efgtoa@l+1)& (0+255),b
  3718  00377A  0E00               	movlw	0
  3719  00377C  6FE4               	movwf	(efgtoa@l+2)& (0+255),b
  3720  00377E  0E00               	movlw	0
  3721  003780  6FE5               	movwf	(efgtoa@l+3)& (0+255),b
  3722                           
  3723                           ;C:\Program Files\Microchip\xc8\v2.30\pic\sources\c99\common\doprnt.c: 443:     } else {
  3724  003782  EFEC  F01B         	goto	l6896
  3725  003786                     l6890:
  3726                           
  3727                           ;C:\Program Files\Microchip\xc8\v2.30\pic\sources\c99\common\doprnt.c: 445:         if (
      +                          (h == l) && !(d % 2)) {
  3728  003786  C1DE  F012         	movff	efgtoa@h,___fleq@ff1
  3729  00378A  C1DF  F013         	movff	efgtoa@h+1,___fleq@ff1+1
  3730  00378E  C1E0  F014         	movff	efgtoa@h+2,___fleq@ff1+2
  3731  003792  C1E1  F015         	movff	efgtoa@h+3,___fleq@ff1+3
  3732  003796  C1E2  F016         	movff	efgtoa@l,___fleq@ff2
  3733  00379A  C1E3  F017         	movff	efgtoa@l+1,___fleq@ff2+1
  3734  00379E  C1E4  F018         	movff	efgtoa@l+2,___fleq@ff2+2
  3735  0037A2  C1E5  F019         	movff	efgtoa@l+3,___fleq@ff2+3
  3736  0037A6  EC53  F033         	call	___fleq	;wreg free
  3737  0037AA  A0D8               	btfss	status,0,c
  3738  0037AC  EFDA  F01B         	goto	u8881
  3739  0037B0  EFDC  F01B         	goto	u8880
  3740  0037B4                     u8881:
  3741  0037B4  EFEC  F01B         	goto	l6896
  3742  0037B8                     u8880:
  3743  0037B8  0101               	movlb	1	; () banked
  3744  0037BA  B1D4               	btfsc	efgtoa@d& (0+255),0,b
  3745  0037BC  EFE2  F01B         	goto	u8891
  3746  0037C0  EFE4  F01B         	goto	u8890
  3747  0037C4                     u8891:
  3748  0037C4  EFEC  F01B         	goto	l6896
  3749  0037C8                     u8890:
  3750  0037C8                     
  3751                           ; BSR set to: 1
  3752                           ;C:\Program Files\Microchip\xc8\v2.30\pic\sources\c99\common\doprnt.c: 446:             
      +                          l = 0.0;
  3753  0037C8  0E00               	movlw	0
  3754  0037CA  6FE2               	movwf	efgtoa@l& (0+255),b
  3755  0037CC  0E00               	movlw	0
  3756  0037CE  6FE3               	movwf	(efgtoa@l+1)& (0+255),b
  3757  0037D0  0E00               	movlw	0
  3758  0037D2  6FE4               	movwf	(efgtoa@l+2)& (0+255),b
  3759  0037D4  0E00               	movlw	0
  3760  0037D6  6FE5               	movwf	(efgtoa@l+3)& (0+255),b
  3761  0037D8                     l6896:
  3762                           
  3763                           ;C:\Program Files\Microchip\xc8\v2.30\pic\sources\c99\common\doprnt.c: 451:     h = g + 
      +                          l;
  3764  0037D8  C1E8  F012         	movff	efgtoa@g,___fladd@b
  3765  0037DC  C1E9  F013         	movff	efgtoa@g+1,___fladd@b+1
  3766  0037E0  C1EA  F014         	movff	efgtoa@g+2,___fladd@b+2
  3767  0037E4  C1EB  F015         	movff	efgtoa@g+3,___fladd@b+3
  3768  0037E8  C1E2  F016         	movff	efgtoa@l,___fladd@a
  3769  0037EC  C1E3  F017         	movff	efgtoa@l+1,___fladd@a+1
  3770  0037F0  C1E4  F018         	movff	efgtoa@l+2,___fladd@a+2
  3771  0037F4  C1E5  F019         	movff	efgtoa@l+3,___fladd@a+3
  3772  0037F8  ECF5  F020         	call	___fladd	;wreg free
  3773  0037FC  C012  F1DE         	movff	?___fladd,efgtoa@h
  3774  003800  C013  F1DF         	movff	?___fladd+1,efgtoa@h+1
  3775  003804  C014  F1E0         	movff	?___fladd+2,efgtoa@h+2
  3776  003808  C015  F1E1         	movff	?___fladd+3,efgtoa@h+3
  3777  00380C                     
  3778                           ;C:\Program Files\Microchip\xc8\v2.30\pic\sources\c99\common\doprnt.c: 453:  if (h >= (o
      +                          u*10.0)) {
  3779  00380C  C1DE  F047         	movff	efgtoa@h,___flge@ff1
  3780  003810  C1DF  F048         	movff	efgtoa@h+1,___flge@ff1+1
  3781  003814  C1E0  F049         	movff	efgtoa@h+2,___flge@ff1+2
  3782  003818  C1E1  F04A         	movff	efgtoa@h+3,___flge@ff1+3
  3783  00381C  0E00               	movlw	0
  3784  00381E  6E2A               	movwf	___flmul@a^0,c
  3785  003820  0E00               	movlw	0
  3786  003822  6E2B               	movwf	(___flmul@a+1)^0,c
  3787  003824  0E20               	movlw	32
  3788  003826  6E2C               	movwf	(___flmul@a+2)^0,c
  3789  003828  0E41               	movlw	65
  3790  00382A  6E2D               	movwf	(___flmul@a+3)^0,c
  3791  00382C  C1D0  F026         	movff	efgtoa@ou,___flmul@b
  3792  003830  C1D1  F027         	movff	efgtoa@ou+1,___flmul@b+1
  3793  003834  C1D2  F028         	movff	efgtoa@ou+2,___flmul@b+2
  3794  003838  C1D3  F029         	movff	efgtoa@ou+3,___flmul@b+3
  3795  00383C  EC8B  F025         	call	___flmul	;wreg free
  3796  003840  C026  F04B         	movff	?___flmul,___flge@ff2
  3797  003844  C027  F04C         	movff	?___flmul+1,___flge@ff2+1
  3798  003848  C028  F04D         	movff	?___flmul+2,___flge@ff2+2
  3799  00384C  C029  F04E         	movff	?___flmul+3,___flge@ff2+3
  3800  003850  EC96  F02F         	call	___flge	;wreg free
  3801  003854  A0D8               	btfss	status,0,c
  3802  003856  EF2F  F01C         	goto	u8901
  3803  00385A  EF31  F01C         	goto	u8900
  3804  00385E                     u8901:
  3805  00385E  EF5A  F01C         	goto	l6908
  3806  003862                     u8900:
  3807  003862                     
  3808                           ;C:\Program Files\Microchip\xc8\v2.30\pic\sources\c99\common\doprnt.c: 454:   e++;
  3809  003862  0101               	movlb	1	; () banked
  3810  003864  4BEC               	infsnz	efgtoa@e& (0+255),f,b
  3811  003866  2BED               	incf	(efgtoa@e+1)& (0+255),f,b
  3812  003868                     
  3813                           ; BSR set to: 1
  3814                           ;C:\Program Files\Microchip\xc8\v2.30\pic\sources\c99\common\doprnt.c: 455:   ou *= 10.0
      +                          ;
  3815  003868  C1D0  F026         	movff	efgtoa@ou,___flmul@b
  3816  00386C  C1D1  F027         	movff	efgtoa@ou+1,___flmul@b+1
  3817  003870  C1D2  F028         	movff	efgtoa@ou+2,___flmul@b+2
  3818  003874  C1D3  F029         	movff	efgtoa@ou+3,___flmul@b+3
  3819  003878  0E00               	movlw	0
  3820  00387A  6E2A               	movwf	___flmul@a^0,c
  3821  00387C  0E00               	movlw	0
  3822  00387E  6E2B               	movwf	(___flmul@a+1)^0,c
  3823  003880  0E20               	movlw	32
  3824  003882  6E2C               	movwf	(___flmul@a+2)^0,c
  3825  003884  0E41               	movlw	65
  3826  003886  6E2D               	movwf	(___flmul@a+3)^0,c
  3827  003888  EC8B  F025         	call	___flmul	;wreg free
  3828  00388C  C026  F1D0         	movff	?___flmul,efgtoa@ou
  3829  003890  C027  F1D1         	movff	?___flmul+1,efgtoa@ou+1
  3830  003894  C028  F1D2         	movff	?___flmul+2,efgtoa@ou+2
  3831  003898  C029  F1D3         	movff	?___flmul+3,efgtoa@ou+3
  3832  00389C                     
  3833                           ;C:\Program Files\Microchip\xc8\v2.30\pic\sources\c99\common\doprnt.c: 456:   if (nmode 
      +                          == 'f') {
  3834  00389C  0E66               	movlw	102
  3835  00389E  0101               	movlb	1	; () banked
  3836  0038A0  19DC               	xorwf	efgtoa@nmode& (0+255),w,b
  3837  0038A2  A4D8               	btfss	status,2,c
  3838  0038A4  EF56  F01C         	goto	u8911
  3839  0038A8  EF58  F01C         	goto	u8910
  3840  0038AC                     u8911:
  3841  0038AC  EF5A  F01C         	goto	l6908
  3842  0038B0                     u8910:
  3843  0038B0                     
  3844                           ; BSR set to: 1
  3845                           ;C:\Program Files\Microchip\xc8\v2.30\pic\sources\c99\common\doprnt.c: 458:    m++;
  3846  0038B0  4BCE               	infsnz	efgtoa@m& (0+255),f,b
  3847  0038B2  2BCF               	incf	(efgtoa@m+1)& (0+255),f,b
  3848  0038B4                     l6908:
  3849                           
  3850                           ;C:\Program Files\Microchip\xc8\v2.30\pic\sources\c99\common\doprnt.c: 463:     u = ou;
  3851  0038B4  C1D0  F1F0         	movff	efgtoa@ou,efgtoa@u
  3852  0038B8  C1D1  F1F1         	movff	efgtoa@ou+1,efgtoa@u+1
  3853  0038BC  C1D2  F1F2         	movff	efgtoa@ou+2,efgtoa@u+2
  3854  0038C0  C1D3  F1F3         	movff	efgtoa@ou+3,efgtoa@u+3
  3855  0038C4                     
  3856                           ;C:\Program Files\Microchip\xc8\v2.30\pic\sources\c99\common\doprnt.c: 464:     ne = (nm
      +                          ode == 'e') ? 0 : e;
  3857  0038C4  0E65               	movlw	101
  3858  0038C6  0101               	movlb	1	; () banked
  3859  0038C8  19DC               	xorwf	efgtoa@nmode& (0+255),w,b
  3860  0038CA  B4D8               	btfsc	status,2,c
  3861  0038CC  EF6A  F01C         	goto	u8921
  3862  0038D0  EF6C  F01C         	goto	u8920
  3863  0038D4                     u8921:
  3864  0038D4  EF72  F01C         	goto	l6914
  3865  0038D8                     u8920:
  3866  0038D8                     
  3867                           ; BSR set to: 1
  3868  0038D8  C1EC  F1CC         	movff	efgtoa@e,efgtoa@ne
  3869  0038DC  C1ED  F1CD         	movff	efgtoa@e+1,efgtoa@ne+1
  3870  0038E0  EF76  F01C         	goto	l1029
  3871  0038E4                     l6914:
  3872                           
  3873                           ; BSR set to: 1
  3874  0038E4  0E00               	movlw	0
  3875  0038E6  6FCD               	movwf	(efgtoa@ne+1)& (0+255),b
  3876  0038E8  0E00               	movlw	0
  3877  0038EA  6FCC               	movwf	efgtoa@ne& (0+255),b
  3878  0038EC                     l1029:
  3879                           
  3880                           ; BSR set to: 1
  3881                           ;C:\Program Files\Microchip\xc8\v2.30\pic\sources\c99\common\doprnt.c: 465:     pp = 0;
  3882  0038EC  0E00               	movlw	0
  3883  0038EE  6FCB               	movwf	(efgtoa@pp+1)& (0+255),b
  3884  0038F0  0E00               	movlw	0
  3885  0038F2  6FCA               	movwf	efgtoa@pp& (0+255),b
  3886                           
  3887                           ;C:\Program Files\Microchip\xc8\v2.30\pic\sources\c99\common\doprnt.c: 466:     t = 0;
  3888  0038F4  0E00               	movlw	0
  3889  0038F6  6FC9               	movwf	(efgtoa@t+1)& (0+255),b
  3890  0038F8  0E00               	movlw	0
  3891  0038FA  6FC8               	movwf	efgtoa@t& (0+255),b
  3892                           
  3893                           ;C:\Program Files\Microchip\xc8\v2.30\pic\sources\c99\common\doprnt.c: 467:     i = 0;
  3894  0038FC  0E00               	movlw	0
  3895  0038FE  6FE7               	movwf	(efgtoa@i+1)& (0+255),b
  3896  003900  0E00               	movlw	0
  3897  003902  6FE6               	movwf	efgtoa@i& (0+255),b
  3898                           
  3899                           ;C:\Program Files\Microchip\xc8\v2.30\pic\sources\c99\common\doprnt.c: 468:     while ((
      +                          i < m) && (n < (80 - 5))) {
  3900  003904  EF72  F01D         	goto	l6964
  3901  003908                     l6916:
  3902                           
  3903                           ; BSR set to: 1
  3904                           ;C:\Program Files\Microchip\xc8\v2.30\pic\sources\c99\common\doprnt.c: 469:         l = 
      +                          floorf(h/u);
  3905  003908  C1DE  F047         	movff	efgtoa@h,___fldiv@b
  3906  00390C  C1DF  F048         	movff	efgtoa@h+1,___fldiv@b+1
  3907  003910  C1E0  F049         	movff	efgtoa@h+2,___fldiv@b+2
  3908  003914  C1E1  F04A         	movff	efgtoa@h+3,___fldiv@b+3
  3909  003918  C1F0  F04B         	movff	efgtoa@u,___fldiv@a
  3910  00391C  C1F1  F04C         	movff	efgtoa@u+1,___fldiv@a+1
  3911  003920  C1F2  F04D         	movff	efgtoa@u+2,___fldiv@a+2
  3912  003924  C1F3  F04E         	movff	efgtoa@u+3,___fldiv@a+3
  3913  003928  ECA0  F027         	call	___fldiv	;wreg free
  3914  00392C  C047  F053         	movff	?___fldiv,floorf@x
  3915  003930  C048  F054         	movff	?___fldiv+1,floorf@x+1
  3916  003934  C049  F055         	movff	?___fldiv+2,floorf@x+2
  3917  003938  C04A  F056         	movff	?___fldiv+3,floorf@x+3
  3918  00393C  EC88  F02A         	call	_floorf	;wreg free
  3919  003940  C053  F1E2         	movff	?_floorf,efgtoa@l
  3920  003944  C054  F1E3         	movff	?_floorf+1,efgtoa@l+1
  3921  003948  C055  F1E4         	movff	?_floorf+2,efgtoa@l+2
  3922  00394C  C056  F1E5         	movff	?_floorf+3,efgtoa@l+3
  3923                           
  3924                           ;C:\Program Files\Microchip\xc8\v2.30\pic\sources\c99\common\doprnt.c: 470:         d = 
      +                          (int)l;
  3925  003950  C1E2  F0B9         	movff	efgtoa@l,___fltol@f1
  3926  003954  C1E3  F0BA         	movff	efgtoa@l+1,___fltol@f1+1
  3927  003958  C1E4  F0BB         	movff	efgtoa@l+2,___fltol@f1+2
  3928  00395C  C1E5  F0BC         	movff	efgtoa@l+3,___fltol@f1+3
  3929  003960  EC12  F02F         	call	___fltol	;wreg free
  3930  003964  C0B9  F1D4         	movff	?___fltol,efgtoa@d
  3931  003968  C0BA  F1D5         	movff	?___fltol+1,efgtoa@d+1
  3932  00396C                     
  3933                           ;C:\Program Files\Microchip\xc8\v2.30\pic\sources\c99\common\doprnt.c: 471:         if (
      +                          !(flags & (1 << 4)) && !d && (mode == 'g') && (ne < 0)) {
  3934  00396C  B862               	btfsc	_flags^0,4,c
  3935  00396E  EFBB  F01C         	goto	u8931
  3936  003972  EFBD  F01C         	goto	u8930
  3937  003976                     u8931:
  3938  003976  EFDB  F01C         	goto	l6928
  3939  00397A                     u8930:
  3940  00397A  0101               	movlb	1	; () banked
  3941  00397C  51D4               	movf	efgtoa@d& (0+255),w,b
  3942  00397E  11D5               	iorwf	(efgtoa@d+1)& (0+255),w,b
  3943  003980  A4D8               	btfss	status,2,c
  3944  003982  EFC5  F01C         	goto	u8941
  3945  003986  EFC7  F01C         	goto	u8940
  3946  00398A                     u8941:
  3947  00398A  EFDB  F01C         	goto	l6928
  3948  00398E                     u8940:
  3949  00398E                     
  3950                           ; BSR set to: 1
  3951  00398E  0E67               	movlw	103
  3952  003990  19DD               	xorwf	efgtoa@mode& (0+255),w,b
  3953  003992  A4D8               	btfss	status,2,c
  3954  003994  EFCE  F01C         	goto	u8951
  3955  003998  EFD0  F01C         	goto	u8950
  3956  00399C                     u8951:
  3957  00399C  EFDB  F01C         	goto	l6928
  3958  0039A0                     u8950:
  3959  0039A0                     
  3960                           ; BSR set to: 1
  3961  0039A0  BFCD               	btfsc	(efgtoa@ne+1)& (0+255),7,b
  3962  0039A2  EFD7  F01C         	goto	u8960
  3963  0039A6  EFD5  F01C         	goto	u8961
  3964  0039AA                     u8961:
  3965  0039AA  EFDB  F01C         	goto	l6928
  3966  0039AE                     u8960:
  3967  0039AE                     
  3968                           ; BSR set to: 1
  3969                           ;C:\Program Files\Microchip\xc8\v2.30\pic\sources\c99\common\doprnt.c: 472:             
      +                          ++t;
  3970  0039AE  4BC8               	infsnz	efgtoa@t& (0+255),f,b
  3971  0039B0  2BC9               	incf	(efgtoa@t+1)& (0+255),f,b
  3972                           
  3973                           ;C:\Program Files\Microchip\xc8\v2.30\pic\sources\c99\common\doprnt.c: 473:         } el
      +                          se {
  3974  0039B2  EF26  F01D         	goto	l6956
  3975  0039B6                     l6928:
  3976                           
  3977                           ;C:\Program Files\Microchip\xc8\v2.30\pic\sources\c99\common\doprnt.c: 474:             
      +                          if (!pp && (ne < 0)) {
  3978  0039B6  0101               	movlb	1	; () banked
  3979  0039B8  51CA               	movf	efgtoa@pp& (0+255),w,b
  3980  0039BA  11CB               	iorwf	(efgtoa@pp+1)& (0+255),w,b
  3981  0039BC  A4D8               	btfss	status,2,c
  3982  0039BE  EFE3  F01C         	goto	u8971
  3983  0039C2  EFE5  F01C         	goto	u8970
  3984  0039C6                     u8971:
  3985  0039C6  EF0F  F01D         	goto	l6948
  3986  0039CA                     u8970:
  3987  0039CA                     
  3988                           ; BSR set to: 1
  3989  0039CA  BFCD               	btfsc	(efgtoa@ne+1)& (0+255),7,b
  3990  0039CC  EFEC  F01C         	goto	u8980
  3991  0039D0  EFEA  F01C         	goto	u8981
  3992  0039D4                     u8981:
  3993  0039D4  EF0F  F01D         	goto	l6948
  3994  0039D8                     u8980:
  3995  0039D8                     
  3996                           ; BSR set to: 1
  3997                           ;C:\Program Files\Microchip\xc8\v2.30\pic\sources\c99\common\doprnt.c: 475:             
      +                              dbuf[n++] = '.';
  3998  0039D8  0E08               	movlw	low _dbuf
  3999  0039DA  25EE               	addwf	efgtoa@n& (0+255),w,b
  4000  0039DC  6ED9               	movwf	fsr2l,c
  4001  0039DE  0E02               	movlw	high _dbuf
  4002  0039E0  21EF               	addwfc	(efgtoa@n+1)& (0+255),w,b
  4003  0039E2  6EDA               	movwf	fsr2h,c
  4004  0039E4  0E2E               	movlw	46
  4005  0039E6  6EDF               	movwf	indf2,c
  4006  0039E8                     
  4007                           ; BSR set to: 1
  4008  0039E8  4BEE               	infsnz	efgtoa@n& (0+255),f,b
  4009  0039EA  2BEF               	incf	(efgtoa@n+1)& (0+255),f,b
  4010  0039EC                     
  4011                           ; BSR set to: 1
  4012                           ;C:\Program Files\Microchip\xc8\v2.30\pic\sources\c99\common\doprnt.c: 476:             
      +                              --w;
  4013  0039EC  07DA               	decf	efgtoa@w& (0+255),f,b
  4014  0039EE  A0D8               	btfss	status,0,c
  4015  0039F0  07DB               	decf	(efgtoa@w+1)& (0+255),f,b
  4016  0039F2                     
  4017                           ; BSR set to: 1
  4018                           ;C:\Program Files\Microchip\xc8\v2.30\pic\sources\c99\common\doprnt.c: 477:             
      +                              pp = 1;
  4019  0039F2  0E00               	movlw	0
  4020  0039F4  6FCB               	movwf	(efgtoa@pp+1)& (0+255),b
  4021  0039F6  0E01               	movlw	1
  4022  0039F8  6FCA               	movwf	efgtoa@pp& (0+255),b
  4023  0039FA  EF0F  F01D         	goto	l6948
  4024  0039FE                     l6940:
  4025                           
  4026                           ; BSR set to: 1
  4027                           ;C:\Program Files\Microchip\xc8\v2.30\pic\sources\c99\common\doprnt.c: 480:             
      +                              dbuf[n++] = '0';
  4028  0039FE  0E08               	movlw	low _dbuf
  4029  003A00  25EE               	addwf	efgtoa@n& (0+255),w,b
  4030  003A02  6ED9               	movwf	fsr2l,c
  4031  003A04  0E02               	movlw	high _dbuf
  4032  003A06  21EF               	addwfc	(efgtoa@n+1)& (0+255),w,b
  4033  003A08  6EDA               	movwf	fsr2h,c
  4034  003A0A  0E30               	movlw	48
  4035  003A0C  6EDF               	movwf	indf2,c
  4036  003A0E                     
  4037                           ; BSR set to: 1
  4038  003A0E  4BEE               	infsnz	efgtoa@n& (0+255),f,b
  4039  003A10  2BEF               	incf	(efgtoa@n+1)& (0+255),f,b
  4040  003A12                     
  4041                           ; BSR set to: 1
  4042                           ;C:\Program Files\Microchip\xc8\v2.30\pic\sources\c99\common\doprnt.c: 481:             
      +                              --w;
  4043  003A12  07DA               	decf	efgtoa@w& (0+255),f,b
  4044  003A14  A0D8               	btfss	status,0,c
  4045  003A16  07DB               	decf	(efgtoa@w+1)& (0+255),f,b
  4046  003A18                     
  4047                           ; BSR set to: 1
  4048                           ;C:\Program Files\Microchip\xc8\v2.30\pic\sources\c99\common\doprnt.c: 482:             
      +                              --t;
  4049  003A18  07C8               	decf	efgtoa@t& (0+255),f,b
  4050  003A1A  A0D8               	btfss	status,0,c
  4051  003A1C  07C9               	decf	(efgtoa@t+1)& (0+255),f,b
  4052  003A1E                     l6948:
  4053                           
  4054                           ; BSR set to: 1
  4055                           ;C:\Program Files\Microchip\xc8\v2.30\pic\sources\c99\common\doprnt.c: 479:             
      +                          while (t) {
  4056  003A1E  51C8               	movf	efgtoa@t& (0+255),w,b
  4057  003A20  11C9               	iorwf	(efgtoa@t+1)& (0+255),w,b
  4058  003A22  A4D8               	btfss	status,2,c
  4059  003A24  EF16  F01D         	goto	u8991
  4060  003A28  EF18  F01D         	goto	u8990
  4061  003A2C                     u8991:
  4062  003A2C  EFFF  F01C         	goto	l6940
  4063  003A30                     u8990:
  4064  003A30                     
  4065                           ; BSR set to: 1
  4066                           ;C:\Program Files\Microchip\xc8\v2.30\pic\sources\c99\common\doprnt.c: 484:             
      +                          dbuf[n++] = (char)((int)'0' + d);
  4067  003A30  0E08               	movlw	low _dbuf
  4068  003A32  25EE               	addwf	efgtoa@n& (0+255),w,b
  4069  003A34  6ED9               	movwf	fsr2l,c
  4070  003A36  0E02               	movlw	high _dbuf
  4071  003A38  21EF               	addwfc	(efgtoa@n+1)& (0+255),w,b
  4072  003A3A  6EDA               	movwf	fsr2h,c
  4073  003A3C  51D4               	movf	efgtoa@d& (0+255),w,b
  4074  003A3E  0F30               	addlw	48
  4075  003A40  6EDF               	movwf	indf2,c
  4076  003A42                     
  4077                           ; BSR set to: 1
  4078  003A42  4BEE               	infsnz	efgtoa@n& (0+255),f,b
  4079  003A44  2BEF               	incf	(efgtoa@n+1)& (0+255),f,b
  4080  003A46                     
  4081                           ; BSR set to: 1
  4082                           ;C:\Program Files\Microchip\xc8\v2.30\pic\sources\c99\common\doprnt.c: 485:             
      +                          --w;
  4083  003A46  07DA               	decf	efgtoa@w& (0+255),f,b
  4084  003A48  A0D8               	btfss	status,0,c
  4085  003A4A  07DB               	decf	(efgtoa@w+1)& (0+255),f,b
  4086  003A4C                     l6956:
  4087                           
  4088                           ; BSR set to: 1
  4089                           ;C:\Program Files\Microchip\xc8\v2.30\pic\sources\c99\common\doprnt.c: 487:         h -=
      +                           l*u;
  4090  003A4C  C1DE  F03F         	movff	efgtoa@h,___flsub@b
  4091  003A50  C1DF  F040         	movff	efgtoa@h+1,___flsub@b+1
  4092  003A54  C1E0  F041         	movff	efgtoa@h+2,___flsub@b+2
  4093  003A58  C1E1  F042         	movff	efgtoa@h+3,___flsub@b+3
  4094  003A5C  C1F0  F02A         	movff	efgtoa@u,___flmul@a
  4095  003A60  C1F1  F02B         	movff	efgtoa@u+1,___flmul@a+1
  4096  003A64  C1F2  F02C         	movff	efgtoa@u+2,___flmul@a+2
  4097  003A68  C1F3  F02D         	movff	efgtoa@u+3,___flmul@a+3
  4098  003A6C  C1E2  F026         	movff	efgtoa@l,___flmul@b
  4099  003A70  C1E3  F027         	movff	efgtoa@l+1,___flmul@b+1
  4100  003A74  C1E4  F028         	movff	efgtoa@l+2,___flmul@b+2
  4101  003A78  C1E5  F029         	movff	efgtoa@l+3,___flmul@b+3
  4102  003A7C  EC8B  F025         	call	___flmul	;wreg free
  4103  003A80  C026  F043         	movff	?___flmul,___flsub@a
  4104  003A84  C027  F044         	movff	?___flmul+1,___flsub@a+1
  4105  003A88  C028  F045         	movff	?___flmul+2,___flsub@a+2
  4106  003A8C  C029  F046         	movff	?___flmul+3,___flsub@a+3
  4107  003A90  ECB6  F034         	call	___flsub	;wreg free
  4108  003A94  C03F  F1DE         	movff	?___flsub,efgtoa@h
  4109  003A98  C040  F1DF         	movff	?___flsub+1,efgtoa@h+1
  4110  003A9C  C041  F1E0         	movff	?___flsub+2,efgtoa@h+2
  4111  003AA0  C042  F1E1         	movff	?___flsub+3,efgtoa@h+3
  4112  003AA4                     
  4113                           ;C:\Program Files\Microchip\xc8\v2.30\pic\sources\c99\common\doprnt.c: 488:         u = 
      +                          u/10.0;
  4114  003AA4  C1F0  F047         	movff	efgtoa@u,___fldiv@b
  4115  003AA8  C1F1  F048         	movff	efgtoa@u+1,___fldiv@b+1
  4116  003AAC  C1F2  F049         	movff	efgtoa@u+2,___fldiv@b+2
  4117  003AB0  C1F3  F04A         	movff	efgtoa@u+3,___fldiv@b+3
  4118  003AB4  0E00               	movlw	0
  4119  003AB6  6E4B               	movwf	___fldiv@a^0,c
  4120  003AB8  0E00               	movlw	0
  4121  003ABA  6E4C               	movwf	(___fldiv@a+1)^0,c
  4122  003ABC  0E20               	movlw	32
  4123  003ABE  6E4D               	movwf	(___fldiv@a+2)^0,c
  4124  003AC0  0E41               	movlw	65
  4125  003AC2  6E4E               	movwf	(___fldiv@a+3)^0,c
  4126  003AC4  ECA0  F027         	call	___fldiv	;wreg free
  4127  003AC8  C047  F1F0         	movff	?___fldiv,efgtoa@u
  4128  003ACC  C048  F1F1         	movff	?___fldiv+1,efgtoa@u+1
  4129  003AD0  C049  F1F2         	movff	?___fldiv+2,efgtoa@u+2
  4130  003AD4  C04A  F1F3         	movff	?___fldiv+3,efgtoa@u+3
  4131  003AD8                     
  4132                           ;C:\Program Files\Microchip\xc8\v2.30\pic\sources\c99\common\doprnt.c: 489:         --ne
      +                          ;
  4133  003AD8  0101               	movlb	1	; () banked
  4134  003ADA  07CC               	decf	efgtoa@ne& (0+255),f,b
  4135  003ADC  A0D8               	btfss	status,0,c
  4136  003ADE  07CD               	decf	(efgtoa@ne+1)& (0+255),f,b
  4137  003AE0                     
  4138                           ; BSR set to: 1
  4139                           ;C:\Program Files\Microchip\xc8\v2.30\pic\sources\c99\common\doprnt.c: 490:         ++i;
  4140  003AE0  4BE6               	infsnz	efgtoa@i& (0+255),f,b
  4141  003AE2  2BE7               	incf	(efgtoa@i+1)& (0+255),f,b
  4142  003AE4                     l6964:
  4143                           
  4144                           ; BSR set to: 1
  4145                           ;C:\Program Files\Microchip\xc8\v2.30\pic\sources\c99\common\doprnt.c: 468:     while ((
      +                          i < m) && (n < (80 - 5))) {
  4146  003AE4  51CE               	movf	efgtoa@m& (0+255),w,b
  4147  003AE6  5DE6               	subwf	efgtoa@i& (0+255),w,b
  4148  003AE8  51E7               	movf	(efgtoa@i+1)& (0+255),w,b
  4149  003AEA  0A80               	xorlw	128
  4150  003AEC  0100               	movlb	0	; () banked
  4151  003AEE  6FC8               	movwf	??_efgtoa& (0+255),b
  4152  003AF0  0101               	movlb	1	; () banked
  4153  003AF2  51CF               	movf	(efgtoa@m+1)& (0+255),w,b
  4154  003AF4  0A80               	xorlw	128
  4155  003AF6  0100               	movlb	0	; () banked
  4156  003AF8  59C8               	subwfb	??_efgtoa& (0+255),w,b
  4157  003AFA  B0D8               	btfsc	status,0,c
  4158  003AFC  EF82  F01D         	goto	u9001
  4159  003B00  EF84  F01D         	goto	u9000
  4160  003B04                     u9001:
  4161  003B04  EF93  F01D         	goto	l6968
  4162  003B08                     u9000:
  4163  003B08                     
  4164                           ; BSR set to: 0
  4165  003B08  0101               	movlb	1	; () banked
  4166  003B0A  BFEF               	btfsc	(efgtoa@n+1)& (0+255),7,b
  4167  003B0C  EF91  F01D         	goto	u9011
  4168  003B10  51EF               	movf	(efgtoa@n+1)& (0+255),w,b
  4169  003B12  E109               	bnz	u9010
  4170  003B14  0E4B               	movlw	75
  4171  003B16  5DEE               	subwf	efgtoa@n& (0+255),w,b
  4172  003B18  A0D8               	btfss	status,0,c
  4173  003B1A  EF91  F01D         	goto	u9011
  4174  003B1E  EF93  F01D         	goto	u9010
  4175  003B22                     u9011:
  4176  003B22  EF84  F01C         	goto	l6916
  4177  003B26                     u9010:
  4178  003B26                     l6968:
  4179                           
  4180                           ;C:\Program Files\Microchip\xc8\v2.30\pic\sources\c99\common\doprnt.c: 492:     if (!pp 
      +                          && (flags & (1 << 4))) {
  4181  003B26  0101               	movlb	1	; () banked
  4182  003B28  51CA               	movf	efgtoa@pp& (0+255),w,b
  4183  003B2A  11CB               	iorwf	(efgtoa@pp+1)& (0+255),w,b
  4184  003B2C  A4D8               	btfss	status,2,c
  4185  003B2E  EF9B  F01D         	goto	u9021
  4186  003B32  EF9D  F01D         	goto	u9020
  4187  003B36                     u9021:
  4188  003B36  EFAE  F01D         	goto	l6976
  4189  003B3A                     u9020:
  4190  003B3A                     
  4191                           ; BSR set to: 1
  4192  003B3A  A862               	btfss	_flags^0,4,c
  4193  003B3C  EFA2  F01D         	goto	u9031
  4194  003B40  EFA4  F01D         	goto	u9030
  4195  003B44                     u9031:
  4196  003B44  EFAE  F01D         	goto	l6976
  4197  003B48                     u9030:
  4198  003B48                     
  4199                           ; BSR set to: 1
  4200                           ;C:\Program Files\Microchip\xc8\v2.30\pic\sources\c99\common\doprnt.c: 493:         dbuf
      +                          [n++] = '.';
  4201  003B48  0E08               	movlw	low _dbuf
  4202  003B4A  25EE               	addwf	efgtoa@n& (0+255),w,b
  4203  003B4C  6ED9               	movwf	fsr2l,c
  4204  003B4E  0E02               	movlw	high _dbuf
  4205  003B50  21EF               	addwfc	(efgtoa@n+1)& (0+255),w,b
  4206  003B52  6EDA               	movwf	fsr2h,c
  4207  003B54  0E2E               	movlw	46
  4208  003B56  6EDF               	movwf	indf2,c
  4209  003B58                     
  4210                           ; BSR set to: 1
  4211  003B58  4BEE               	infsnz	efgtoa@n& (0+255),f,b
  4212  003B5A  2BEF               	incf	(efgtoa@n+1)& (0+255),f,b
  4213  003B5C                     l6976:
  4214                           
  4215                           ; BSR set to: 1
  4216                           ;C:\Program Files\Microchip\xc8\v2.30\pic\sources\c99\common\doprnt.c: 495:     dbuf[n] 
      +                          = '\0';
  4217  003B5C  0E08               	movlw	low _dbuf
  4218  003B5E  25EE               	addwf	efgtoa@n& (0+255),w,b
  4219  003B60  6ED9               	movwf	fsr2l,c
  4220  003B62  0E02               	movlw	high _dbuf
  4221  003B64  21EF               	addwfc	(efgtoa@n+1)& (0+255),w,b
  4222  003B66  6EDA               	movwf	fsr2h,c
  4223  003B68  0E00               	movlw	0
  4224  003B6A  6EDF               	movwf	indf2,c
  4225  003B6C                     
  4226                           ; BSR set to: 1
  4227                           ;C:\Program Files\Microchip\xc8\v2.30\pic\sources\c99\common\doprnt.c: 498:     if (nmod
      +                          e == 'e') {
  4228  003B6C  0E65               	movlw	101
  4229  003B6E  19DC               	xorwf	efgtoa@nmode& (0+255),w,b
  4230  003B70  A4D8               	btfss	status,2,c
  4231  003B72  EFBD  F01D         	goto	u9041
  4232  003B76  EFBF  F01D         	goto	u9040
  4233  003B7A                     u9041:
  4234  003B7A  EF08  F019         	goto	l6778
  4235  003B7E                     u9040:
  4236  003B7E                     
  4237                           ; BSR set to: 1
  4238                           ;C:\Program Files\Microchip\xc8\v2.30\pic\sources\c99\common\doprnt.c: 499:         i = 
      +                          sizeof(dbuf) - 1;
  4239  003B7E  0E00               	movlw	0
  4240  003B80  6FE7               	movwf	(efgtoa@i+1)& (0+255),b
  4241  003B82  0E4F               	movlw	79
  4242  003B84  6FE6               	movwf	efgtoa@i& (0+255),b
  4243  003B86                     
  4244                           ; BSR set to: 1
  4245                           ;C:\Program Files\Microchip\xc8\v2.30\pic\sources\c99\common\doprnt.c: 500:         dbuf
      +                          [i] = '\0';
  4246  003B86  0E08               	movlw	low _dbuf
  4247  003B88  25E6               	addwf	efgtoa@i& (0+255),w,b
  4248  003B8A  6ED9               	movwf	fsr2l,c
  4249  003B8C  0E02               	movlw	high _dbuf
  4250  003B8E  21E7               	addwfc	(efgtoa@i+1)& (0+255),w,b
  4251  003B90  6EDA               	movwf	fsr2h,c
  4252  003B92  0E00               	movlw	0
  4253  003B94  6EDF               	movwf	indf2,c
  4254  003B96                     
  4255                           ; BSR set to: 1
  4256                           ;C:\Program Files\Microchip\xc8\v2.30\pic\sources\c99\common\doprnt.c: 501:         sign
      +                           = 0;
  4257  003B96  0E00               	movlw	0
  4258  003B98  6FD7               	movwf	(efgtoa@sign+1)& (0+255),b
  4259  003B9A  0E00               	movlw	0
  4260  003B9C  6FD6               	movwf	efgtoa@sign& (0+255),b
  4261  003B9E                     
  4262                           ; BSR set to: 1
  4263                           ;C:\Program Files\Microchip\xc8\v2.30\pic\sources\c99\common\doprnt.c: 502:         if (
      +                          e < 0) {
  4264  003B9E  BFED               	btfsc	(efgtoa@e+1)& (0+255),7,b
  4265  003BA0  EFD6  F01D         	goto	u9050
  4266  003BA4  EFD4  F01D         	goto	u9051
  4267  003BA8                     u9051:
  4268  003BA8  EFDE  F01D         	goto	l6992
  4269  003BAC                     u9050:
  4270  003BAC                     
  4271                           ; BSR set to: 1
  4272                           ;C:\Program Files\Microchip\xc8\v2.30\pic\sources\c99\common\doprnt.c: 503:             
      +                          sign = 1;
  4273  003BAC  0E00               	movlw	0
  4274  003BAE  6FD7               	movwf	(efgtoa@sign+1)& (0+255),b
  4275  003BB0  0E01               	movlw	1
  4276  003BB2  6FD6               	movwf	efgtoa@sign& (0+255),b
  4277  003BB4                     
  4278                           ; BSR set to: 1
  4279                           ;C:\Program Files\Microchip\xc8\v2.30\pic\sources\c99\common\doprnt.c: 504:             
      +                          e = -e;
  4280  003BB4  6DEC               	negf	efgtoa@e& (0+255),b
  4281  003BB6  1FED               	comf	(efgtoa@e+1)& (0+255),f,b
  4282  003BB8  B0D8               	btfsc	status,0,c
  4283  003BBA  2BED               	incf	(efgtoa@e+1)& (0+255),f,b
  4284  003BBC                     l6992:
  4285                           
  4286                           ; BSR set to: 1
  4287                           ;C:\Program Files\Microchip\xc8\v2.30\pic\sources\c99\common\doprnt.c: 506:         p = 
      +                          2;
  4288  003BBC  0E00               	movlw	0
  4289  003BBE  6FD9               	movwf	(efgtoa@p+1)& (0+255),b
  4290  003BC0  0E02               	movlw	2
  4291  003BC2  6FD8               	movwf	efgtoa@p& (0+255),b
  4292                           
  4293                           ;C:\Program Files\Microchip\xc8\v2.30\pic\sources\c99\common\doprnt.c: 507:         whil
      +                          e (e || (0 < p)) {
  4294  003BC4  EF0F  F01E         	goto	l7004
  4295  003BC8                     l6994:
  4296                           
  4297                           ; BSR set to: 1
  4298                           ;C:\Program Files\Microchip\xc8\v2.30\pic\sources\c99\common\doprnt.c: 508:             
      +                          --i;
  4299  003BC8  07E6               	decf	efgtoa@i& (0+255),f,b
  4300  003BCA  A0D8               	btfss	status,0,c
  4301  003BCC  07E7               	decf	(efgtoa@i+1)& (0+255),f,b
  4302  003BCE                     
  4303                           ; BSR set to: 1
  4304                           ;C:\Program Files\Microchip\xc8\v2.30\pic\sources\c99\common\doprnt.c: 509:             
      +                          dbuf[i] = '0' + (e % 10);
  4305  003BCE  0E08               	movlw	low _dbuf
  4306  003BD0  25E6               	addwf	efgtoa@i& (0+255),w,b
  4307  003BD2  6ED9               	movwf	fsr2l,c
  4308  003BD4  0E02               	movlw	high _dbuf
  4309  003BD6  21E7               	addwfc	(efgtoa@i+1)& (0+255),w,b
  4310  003BD8  6EDA               	movwf	fsr2h,c
  4311  003BDA  C1EC  F012         	movff	efgtoa@e,___awmod@dividend
  4312  003BDE  C1ED  F013         	movff	efgtoa@e+1,___awmod@dividend+1
  4313  003BE2  0E00               	movlw	0
  4314  003BE4  6E15               	movwf	(___awmod@divisor+1)^0,c
  4315  003BE6  0E0A               	movlw	10
  4316  003BE8  6E14               	movwf	___awmod@divisor^0,c
  4317  003BEA  ECA3  F032         	call	___awmod	;wreg free
  4318  003BEE  5012               	movf	?___awmod^0,w,c
  4319  003BF0  0F30               	addlw	48
  4320  003BF2  6EDF               	movwf	indf2,c
  4321  003BF4                     
  4322                           ;C:\Program Files\Microchip\xc8\v2.30\pic\sources\c99\common\doprnt.c: 510:             
      +                          e = e / 10;
  4323  003BF4  C1EC  F012         	movff	efgtoa@e,___awdiv@dividend
  4324  003BF8  C1ED  F013         	movff	efgtoa@e+1,___awdiv@dividend+1
  4325  003BFC  0E00               	movlw	0
  4326  003BFE  6E15               	movwf	(___awdiv@divisor+1)^0,c
  4327  003C00  0E0A               	movlw	10
  4328  003C02  6E14               	movwf	___awdiv@divisor^0,c
  4329  003C04  ECE0  F031         	call	___awdiv	;wreg free
  4330  003C08  C012  F1EC         	movff	?___awdiv,efgtoa@e
  4331  003C0C  C013  F1ED         	movff	?___awdiv+1,efgtoa@e+1
  4332  003C10                     
  4333                           ;C:\Program Files\Microchip\xc8\v2.30\pic\sources\c99\common\doprnt.c: 511:             
      +                          --p;
  4334  003C10  0101               	movlb	1	; () banked
  4335  003C12  07D8               	decf	efgtoa@p& (0+255),f,b
  4336  003C14  A0D8               	btfss	status,0,c
  4337  003C16  07D9               	decf	(efgtoa@p+1)& (0+255),f,b
  4338  003C18                     
  4339                           ; BSR set to: 1
  4340                           ;C:\Program Files\Microchip\xc8\v2.30\pic\sources\c99\common\doprnt.c: 512:             
      +                          --w;
  4341  003C18  07DA               	decf	efgtoa@w& (0+255),f,b
  4342  003C1A  A0D8               	btfss	status,0,c
  4343  003C1C  07DB               	decf	(efgtoa@w+1)& (0+255),f,b
  4344  003C1E                     l7004:
  4345                           
  4346                           ; BSR set to: 1
  4347                           ;C:\Program Files\Microchip\xc8\v2.30\pic\sources\c99\common\doprnt.c: 507:         whil
      +                          e (e || (0 < p)) {
  4348  003C1E  51EC               	movf	efgtoa@e& (0+255),w,b
  4349  003C20  11ED               	iorwf	(efgtoa@e+1)& (0+255),w,b
  4350  003C22  A4D8               	btfss	status,2,c
  4351  003C24  EF16  F01E         	goto	u9061
  4352  003C28  EF18  F01E         	goto	u9060
  4353  003C2C                     u9061:
  4354  003C2C  EFE4  F01D         	goto	l6994
  4355  003C30                     u9060:
  4356  003C30                     
  4357                           ; BSR set to: 1
  4358  003C30  BFD9               	btfsc	(efgtoa@p+1)& (0+255),7,b
  4359  003C32  EF25  F01E         	goto	u9070
  4360  003C36  51D9               	movf	(efgtoa@p+1)& (0+255),w,b
  4361  003C38  E106               	bnz	u9071
  4362  003C3A  05D8               	decf	efgtoa@p& (0+255),w,b
  4363  003C3C  B0D8               	btfsc	status,0,c
  4364  003C3E  EF23  F01E         	goto	u9071
  4365  003C42  EF25  F01E         	goto	u9070
  4366  003C46                     u9071:
  4367  003C46  EFE4  F01D         	goto	l6994
  4368  003C4A                     u9070:
  4369  003C4A                     
  4370                           ; BSR set to: 1
  4371                           ;C:\Program Files\Microchip\xc8\v2.30\pic\sources\c99\common\doprnt.c: 514:         --i;
  4372  003C4A  07E6               	decf	efgtoa@i& (0+255),f,b
  4373  003C4C  A0D8               	btfss	status,0,c
  4374  003C4E  07E7               	decf	(efgtoa@i+1)& (0+255),f,b
  4375  003C50                     
  4376                           ; BSR set to: 1
  4377                           ;C:\Program Files\Microchip\xc8\v2.30\pic\sources\c99\common\doprnt.c: 515:         dbuf
      +                          [i] = sign ? '-' : '+';
  4378  003C50  51D6               	movf	efgtoa@sign& (0+255),w,b
  4379  003C52  11D7               	iorwf	(efgtoa@sign+1)& (0+255),w,b
  4380  003C54  A4D8               	btfss	status,2,c
  4381  003C56  EF2F  F01E         	goto	u9081
  4382  003C5A  EF31  F01E         	goto	u9080
  4383  003C5E                     u9081:
  4384  003C5E  EF37  F01E         	goto	l7014
  4385  003C62                     u9080:
  4386  003C62                     
  4387                           ; BSR set to: 1
  4388  003C62  0E00               	movlw	0
  4389  003C64  6FC3               	movwf	(_efgtoa$1472+1)& (0+255),b
  4390  003C66  0E2B               	movlw	43
  4391  003C68  6FC2               	movwf	_efgtoa$1472& (0+255),b
  4392  003C6A  EF3B  F01E         	goto	l7016
  4393  003C6E                     l7014:
  4394                           
  4395                           ; BSR set to: 1
  4396  003C6E  0E00               	movlw	0
  4397  003C70  6FC3               	movwf	(_efgtoa$1472+1)& (0+255),b
  4398  003C72  0E2D               	movlw	45
  4399  003C74  6FC2               	movwf	_efgtoa$1472& (0+255),b
  4400  003C76                     l7016:
  4401                           
  4402                           ; BSR set to: 1
  4403  003C76  0E08               	movlw	low _dbuf
  4404  003C78  25E6               	addwf	efgtoa@i& (0+255),w,b
  4405  003C7A  6ED9               	movwf	fsr2l,c
  4406  003C7C  0E02               	movlw	high _dbuf
  4407  003C7E  21E7               	addwfc	(efgtoa@i+1)& (0+255),w,b
  4408  003C80  6EDA               	movwf	fsr2h,c
  4409  003C82  C1C2  FFDF         	movff	_efgtoa$1472,indf2
  4410  003C86                     
  4411                           ; BSR set to: 1
  4412                           ;C:\Program Files\Microchip\xc8\v2.30\pic\sources\c99\common\doprnt.c: 516:         --w;
  4413  003C86  07DA               	decf	efgtoa@w& (0+255),f,b
  4414  003C88  A0D8               	btfss	status,0,c
  4415  003C8A  07DB               	decf	(efgtoa@w+1)& (0+255),f,b
  4416  003C8C                     
  4417                           ; BSR set to: 1
  4418                           ;C:\Program Files\Microchip\xc8\v2.30\pic\sources\c99\common\doprnt.c: 518:         dbuf
      +                          [i] = (0 ? isupper((int)c) : ((unsigned)((int)c)-'A') < 26) ? 'E' : 'e';
  4419  003C8C  07E6               	decf	efgtoa@i& (0+255),f,b
  4420  003C8E  A0D8               	btfss	status,0,c
  4421  003C90  07E7               	decf	(efgtoa@i+1)& (0+255),f,b
  4422  003C92                     
  4423                           ; BSR set to: 1
  4424  003C92  0EBF               	movlw	191
  4425  003C94  0100               	movlb	0	; () banked
  4426  003C96  6FC8               	movwf	??_efgtoa& (0+255),b
  4427  003C98  0EFF               	movlw	255
  4428  003C9A  6FC9               	movwf	(??_efgtoa+1)& (0+255),b
  4429  003C9C  51C7               	movf	efgtoa@c& (0+255),w,b
  4430  003C9E  6FCA               	movwf	(??_efgtoa+2)& (0+255),b
  4431  003CA0  6BCB               	clrf	(??_efgtoa+3)& (0+255),b
  4432  003CA2  51C8               	movf	??_efgtoa& (0+255),w,b
  4433  003CA4  27CA               	addwf	(??_efgtoa+2)& (0+255),f,b
  4434  003CA6  51C9               	movf	(??_efgtoa+1)& (0+255),w,b
  4435  003CA8  23CB               	addwfc	(??_efgtoa+3)& (0+255),f,b
  4436  003CAA  51CB               	movf	(??_efgtoa+3)& (0+255),w,b
  4437  003CAC  E10A               	bnz	u9090
  4438  003CAE  0E1A               	movlw	26
  4439  003CB0  5DCA               	subwf	(??_efgtoa+2)& (0+255),w,b
  4440  003CB2  A0D8               	btfss	status,0,c
  4441  003CB4  EF5E  F01E         	goto	u9091
  4442  003CB8  EF61  F01E         	goto	u9090
  4443  003CBC                     u9091:
  4444  003CBC  0E01               	movlw	1
  4445  003CBE  EF62  F01E         	goto	u9100
  4446  003CC2                     u9090:
  4447  003CC2  0E00               	movlw	0
  4448  003CC4                     u9100:
  4449  003CC4  0101               	movlb	1	; () banked
  4450  003CC6  6FC6               	movwf	_efgtoa$1474& (0+255),b
  4451  003CC8  6BC7               	clrf	(_efgtoa$1474+1)& (0+255),b
  4452  003CCA                     
  4453                           ; BSR set to: 1
  4454  003CCA  51C6               	movf	_efgtoa$1474& (0+255),w,b
  4455  003CCC  11C7               	iorwf	(_efgtoa$1474+1)& (0+255),w,b
  4456  003CCE  A4D8               	btfss	status,2,c
  4457  003CD0  EF6C  F01E         	goto	u9111
  4458  003CD4  EF6E  F01E         	goto	u9110
  4459  003CD8                     u9111:
  4460  003CD8  EF74  F01E         	goto	l7030
  4461  003CDC                     u9110:
  4462  003CDC                     
  4463                           ; BSR set to: 1
  4464  003CDC  0E00               	movlw	0
  4465  003CDE  6FC5               	movwf	(_efgtoa$1473+1)& (0+255),b
  4466  003CE0  0E65               	movlw	101
  4467  003CE2  6FC4               	movwf	_efgtoa$1473& (0+255),b
  4468  003CE4  EF78  F01E         	goto	l7032
  4469  003CE8                     l7030:
  4470                           
  4471                           ; BSR set to: 1
  4472  003CE8  0E00               	movlw	0
  4473  003CEA  6FC5               	movwf	(_efgtoa$1473+1)& (0+255),b
  4474  003CEC  0E45               	movlw	69
  4475  003CEE  6FC4               	movwf	_efgtoa$1473& (0+255),b
  4476  003CF0                     l7032:
  4477                           
  4478                           ; BSR set to: 1
  4479  003CF0  0E08               	movlw	low _dbuf
  4480  003CF2  25E6               	addwf	efgtoa@i& (0+255),w,b
  4481  003CF4  6ED9               	movwf	fsr2l,c
  4482  003CF6  0E02               	movlw	high _dbuf
  4483  003CF8  21E7               	addwfc	(efgtoa@i+1)& (0+255),w,b
  4484  003CFA  6EDA               	movwf	fsr2h,c
  4485  003CFC  C1C4  FFDF         	movff	_efgtoa$1473,indf2
  4486  003D00                     
  4487                           ; BSR set to: 1
  4488                           ;C:\Program Files\Microchip\xc8\v2.30\pic\sources\c99\common\doprnt.c: 519:         --w;
  4489  003D00  07DA               	decf	efgtoa@w& (0+255),f,b
  4490  003D02  A0D8               	btfss	status,0,c
  4491  003D04  07DB               	decf	(efgtoa@w+1)& (0+255),f,b
  4492  003D06                     
  4493                           ; BSR set to: 1
  4494                           ;C:\Program Files\Microchip\xc8\v2.30\pic\sources\c99\common\doprnt.c: 520:         strc
      +                          py(&dbuf[n], &dbuf[i]);
  4495  003D06  0E08               	movlw	low _dbuf
  4496  003D08  25EE               	addwf	efgtoa@n& (0+255),w,b
  4497  003D0A  6E14               	movwf	strcpy@dest^0,c
  4498  003D0C  0E02               	movlw	high _dbuf
  4499  003D0E  21EF               	addwfc	(efgtoa@n+1)& (0+255),w,b
  4500  003D10  6E15               	movwf	(strcpy@dest+1)^0,c
  4501  003D12  0E08               	movlw	low _dbuf
  4502  003D14  25E6               	addwf	efgtoa@i& (0+255),w,b
  4503  003D16  6E16               	movwf	strcpy@src^0,c
  4504  003D18  0E02               	movlw	high _dbuf
  4505  003D1A  21E7               	addwfc	(efgtoa@i+1)& (0+255),w,b
  4506  003D1C  6E17               	movwf	(strcpy@src+1)^0,c
  4507  003D1E  EC0D  F034         	call	_strcpy	;wreg free
  4508  003D22  EF08  F019         	goto	l6778
  4509  003D26                     l983:
  4510  003D26  0012               	return		;funcret
  4511  003D28                     __end_of_efgtoa:
  4512                           	callstack 0
  4513                           
  4514 ;; *************** function _tolower *****************
  4515 ;; Defined at:
  4516 ;;		line 4 in file "C:\Program Files\Microchip\xc8\v2.30\pic\sources\c99\common\tolower.c"
  4517 ;; Parameters:    Size  Location     Type
  4518 ;;  c               2   23[COMRAM] int 
  4519 ;; Auto vars:     Size  Location     Type
  4520 ;;		None
  4521 ;; Return value:  Size  Location     Type
  4522 ;;                  2   23[COMRAM] int 
  4523 ;; Registers used:
  4524 ;;		wreg, status,2, status,0
  4525 ;; Tracked objects:
  4526 ;;		On entry : 0/0
  4527 ;;		On exit  : 0/0
  4528 ;;		Unchanged: 0/0
  4529 ;; Data sizes:     COMRAM   BANK0   BANK1   BANK2   BANK3   BANK4   BANK5
  4530 ;;      Params:         2       0       0       0       0       0       0
  4531 ;;      Locals:         2       0       0       0       0       0       0
  4532 ;;      Temps:          4       0       0       0       0       0       0
  4533 ;;      Totals:         8       0       0       0       0       0       0
  4534 ;;Total ram usage:        8 bytes
  4535 ;; Hardware stack levels used:    1
  4536 ;; Hardware stack levels required when called:    5
  4537 ;; This function calls:
  4538 ;;		_isupper
  4539 ;; This function is called by:
  4540 ;;		_efgtoa
  4541 ;;		_vfpfcnvrt
  4542 ;; This function uses a non-reentrant model
  4543 ;;
  4544                           
  4545                           	psect	text6
  4546  0067BA                     __ptext6:
  4547                           	callstack 0
  4548  0067BA                     _tolower:
  4549                           	callstack 22
  4550  0067BA  0EBF               	movlw	191
  4551  0067BC  6E1A               	movwf	??_tolower^0,c
  4552  0067BE  0EFF               	movlw	255
  4553  0067C0  6E1B               	movwf	(??_tolower+1)^0,c
  4554  0067C2  C018  F01C         	movff	tolower@c,??_tolower+2
  4555  0067C6  C019  F01D         	movff	tolower@c+1,??_tolower+3
  4556  0067CA  501A               	movf	??_tolower^0,w,c
  4557  0067CC  261C               	addwf	(??_tolower+2)^0,f,c
  4558  0067CE  501B               	movf	(??_tolower+1)^0,w,c
  4559  0067D0  221D               	addwfc	(??_tolower+3)^0,f,c
  4560  0067D2  501D               	movf	(??_tolower+3)^0,w,c
  4561  0067D4  E10A               	bnz	u8410
  4562  0067D6  0E1A               	movlw	26
  4563  0067D8  5C1C               	subwf	(??_tolower+2)^0,w,c
  4564  0067DA  A0D8               	btfss	status,0,c
  4565  0067DC  EFF2  F033         	goto	u8411
  4566  0067E0  EFF5  F033         	goto	u8410
  4567  0067E4                     u8411:
  4568  0067E4  0E01               	movlw	1
  4569  0067E6  EFF6  F033         	goto	u8420
  4570  0067EA                     u8410:
  4571  0067EA  0E00               	movlw	0
  4572  0067EC                     u8420:
  4573  0067EC  6E1E               	movwf	_tolower$1764^0,c
  4574  0067EE  6A1F               	clrf	(_tolower$1764+1)^0,c
  4575  0067F0  501E               	movf	_tolower$1764^0,w,c
  4576  0067F2  101F               	iorwf	(_tolower$1764+1)^0,w,c
  4577  0067F4  B4D8               	btfsc	status,2,c
  4578  0067F6  EFFF  F033         	goto	u8431
  4579  0067FA  EF01  F034         	goto	u8430
  4580  0067FE                     u8431:
  4581  0067FE  EF08  F034         	goto	l1444
  4582  006802                     u8430:
  4583  006802  0E20               	movlw	32
  4584  006804  1018               	iorwf	tolower@c^0,w,c
  4585  006806  6E18               	movwf	?_tolower^0,c
  4586  006808  5019               	movf	(tolower@c+1)^0,w,c
  4587  00680A  6E19               	movwf	(?_tolower+1)^0,c
  4588  00680C  EF0C  F034         	goto	l1449
  4589  006810                     l1444:
  4590  006810  C018  F018         	movff	tolower@c,?_tolower
  4591  006814  C019  F019         	movff	tolower@c+1,?_tolower+1
  4592  006818                     l1449:
  4593  006818  0012               	return		;funcret
  4594  00681A                     __end_of_tolower:
  4595                           	callstack 0
  4596                           
  4597 ;; *************** function _isupper *****************
  4598 ;; Defined at:
  4599 ;;		line 5 in file "C:\Program Files\Microchip\xc8\v2.30\pic\sources\c99\common\isupper.c"
  4600 ;; Parameters:    Size  Location     Type
  4601 ;;  c               2   17[COMRAM] int 
  4602 ;; Auto vars:     Size  Location     Type
  4603 ;;		None
  4604 ;; Return value:  Size  Location     Type
  4605 ;;                  2   17[COMRAM] int 
  4606 ;; Registers used:
  4607 ;;		wreg, status,2, status,0
  4608 ;; Tracked objects:
  4609 ;;		On entry : 0/0
  4610 ;;		On exit  : 0/0
  4611 ;;		Unchanged: 0/0
  4612 ;; Data sizes:     COMRAM   BANK0   BANK1   BANK2   BANK3   BANK4   BANK5
  4613 ;;      Params:         2       0       0       0       0       0       0
  4614 ;;      Locals:         0       0       0       0       0       0       0
  4615 ;;      Temps:          4       0       0       0       0       0       0
  4616 ;;      Totals:         6       0       0       0       0       0       0
  4617 ;;Total ram usage:        6 bytes
  4618 ;; Hardware stack levels used:    1
  4619 ;; Hardware stack levels required when called:    4
  4620 ;; This function calls:
  4621 ;;		Nothing
  4622 ;; This function is called by:
  4623 ;;		_efgtoa
  4624 ;;		_vfpfcnvrt
  4625 ;;		_tolower
  4626 ;; This function uses a non-reentrant model
  4627 ;;
  4628                           
  4629                           	psect	text7
  4630  006A7C                     __ptext7:
  4631                           	callstack 0
  4632  006A7C                     _isupper:
  4633                           	callstack 22
  4634  006A7C  0EBF               	movlw	191
  4635  006A7E  6E14               	movwf	??_isupper^0,c
  4636  006A80  0EFF               	movlw	255
  4637  006A82  6E15               	movwf	(??_isupper+1)^0,c
  4638  006A84  C012  F016         	movff	isupper@c,??_isupper+2
  4639  006A88  C013  F017         	movff	isupper@c+1,??_isupper+3
  4640  006A8C  5014               	movf	??_isupper^0,w,c
  4641  006A8E  2616               	addwf	(??_isupper+2)^0,f,c
  4642  006A90  5015               	movf	(??_isupper+1)^0,w,c
  4643  006A92  2217               	addwfc	(??_isupper+3)^0,f,c
  4644  006A94  5017               	movf	(??_isupper+3)^0,w,c
  4645  006A96  E10A               	bnz	u7560
  4646  006A98  0E1A               	movlw	26
  4647  006A9A  5C16               	subwf	(??_isupper+2)^0,w,c
  4648  006A9C  A0D8               	btfss	status,0,c
  4649  006A9E  EF53  F035         	goto	u7561
  4650  006AA2  EF56  F035         	goto	u7560
  4651  006AA6                     u7561:
  4652  006AA6  0E01               	movlw	1
  4653  006AA8  EF57  F035         	goto	u7570
  4654  006AAC                     u7560:
  4655  006AAC  0E00               	movlw	0
  4656  006AAE                     u7570:
  4657  006AAE  6E12               	movwf	?_isupper^0,c
  4658  006AB0  6A13               	clrf	(?_isupper+1)^0,c
  4659  006AB2  0012               	return		;funcret
  4660  006AB4                     __end_of_isupper:
  4661                           	callstack 0
  4662                           
  4663 ;; *************** function _pad *****************
  4664 ;; Defined at:
  4665 ;;		line 72 in file "C:\Program Files\Microchip\xc8\v2.30\pic\sources\c99\common\doprnt.c"
  4666 ;; Parameters:    Size  Location     Type
  4667 ;;  fp              2   33[COMRAM] PTR struct _IO_FILE
  4668 ;;		 -> sprintf@f(6), 
  4669 ;;  buf             2   35[COMRAM] PTR unsigned char 
  4670 ;;		 -> dbuf(80), 
  4671 ;;  p               2   37[COMRAM] int 
  4672 ;; Auto vars:     Size  Location     Type
  4673 ;;  w               2   42[COMRAM] int 
  4674 ;;  i               2   40[COMRAM] int 
  4675 ;; Return value:  Size  Location     Type
  4676 ;;                  2   33[COMRAM] int 
  4677 ;; Registers used:
  4678 ;;		wreg, fsr1l, fsr1h, fsr2l, fsr2h, status,2, status,0, cstack
  4679 ;; Tracked objects:
  4680 ;;		On entry : 0/0
  4681 ;;		On exit  : 0/0
  4682 ;;		Unchanged: 0/0
  4683 ;; Data sizes:     COMRAM   BANK0   BANK1   BANK2   BANK3   BANK4   BANK5
  4684 ;;      Params:         6       0       0       0       0       0       0
  4685 ;;      Locals:         4       0       0       0       0       0       0
  4686 ;;      Temps:          1       0       0       0       0       0       0
  4687 ;;      Totals:        11       0       0       0       0       0       0
  4688 ;;Total ram usage:       11 bytes
  4689 ;; Hardware stack levels used:    1
  4690 ;; Hardware stack levels required when called:    7
  4691 ;; This function calls:
  4692 ;;		_fputc
  4693 ;;		_fputs
  4694 ;;		_strlen
  4695 ;; This function is called by:
  4696 ;;		_efgtoa
  4697 ;; This function uses a non-reentrant model
  4698 ;;
  4699                           
  4700                           	psect	text8
  4701  006484                     __ptext8:
  4702                           	callstack 0
  4703  006484                     _pad:
  4704                           	callstack 19
  4705  006484                     
  4706                           ;C:\Program Files\Microchip\xc8\v2.30\pic\sources\c99\common\doprnt.c: 72: static int pa
      +                          d(FILE *fp, char *buf, int p);C:\Program Files\Microchip\xc8\v2.30\pic\sources\c99\commo
      +                          n\doprnt.c: 73: {;C:\Program Files\Microchip\xc8\v2.30\pic\sources\c99\common\doprnt.c: 
      +                          74:     int i, w;;C:\Program Files\Microchip\xc8\v2.30\pic\sources\c99\common\doprnt.c: 
      +                          77:     if (flags & (1 << 0)) {
  4707  006484  A062               	btfss	_flags^0,0,c
  4708  006486  EF47  F032         	goto	u8301
  4709  00648A  EF49  F032         	goto	u8300
  4710  00648E                     u8301:
  4711  00648E  EF53  F032         	goto	l6640
  4712  006492                     u8300:
  4713  006492                     
  4714                           ;C:\Program Files\Microchip\xc8\v2.30\pic\sources\c99\common\doprnt.c: 78:         fputs
      +                          ((const char *)buf, fp);
  4715  006492  C024  F01B         	movff	pad@buf,fputs@s
  4716  006496  C025  F01C         	movff	pad@buf+1,fputs@s+1
  4717  00649A  C022  F01D         	movff	pad@fp,fputs@fp
  4718  00649E  C023  F01E         	movff	pad@fp+1,fputs@fp+1
  4719  0064A2  ECD9  F034         	call	_fputs	;wreg free
  4720  0064A6                     l6640:
  4721                           
  4722                           ;C:\Program Files\Microchip\xc8\v2.30\pic\sources\c99\common\doprnt.c: 82:     w = (p < 
      +                          0) ? 0 : p;
  4723  0064A6  BE27               	btfsc	(pad@p+1)^0,7,c
  4724  0064A8  EF58  F032         	goto	u8311
  4725  0064AC  EF5A  F032         	goto	u8310
  4726  0064B0                     u8311:
  4727  0064B0  EF60  F032         	goto	l6644
  4728  0064B4                     u8310:
  4729  0064B4  C026  F02B         	movff	pad@p,pad@w
  4730  0064B8  C027  F02C         	movff	pad@p+1,pad@w+1
  4731  0064BC  EF64  F032         	goto	l960
  4732  0064C0                     l6644:
  4733  0064C0  0E00               	movlw	0
  4734  0064C2  6E2C               	movwf	(pad@w+1)^0,c
  4735  0064C4  0E00               	movlw	0
  4736  0064C6  6E2B               	movwf	pad@w^0,c
  4737  0064C8                     l960:
  4738                           
  4739                           ;C:\Program Files\Microchip\xc8\v2.30\pic\sources\c99\common\doprnt.c: 83:     i = 0;
  4740  0064C8  0E00               	movlw	0
  4741  0064CA  6E2A               	movwf	(pad@i+1)^0,c
  4742  0064CC  0E00               	movlw	0
  4743  0064CE  6E29               	movwf	pad@i^0,c
  4744                           
  4745                           ;C:\Program Files\Microchip\xc8\v2.30\pic\sources\c99\common\doprnt.c: 84:     while (i 
      +                          < w) {
  4746  0064D0  EF76  F032         	goto	l6650
  4747  0064D4                     l6646:
  4748                           
  4749                           ;C:\Program Files\Microchip\xc8\v2.30\pic\sources\c99\common\doprnt.c: 85:         fputc
      +                          (' ', fp);
  4750  0064D4  0E00               	movlw	0
  4751  0064D6  6E13               	movwf	(fputc@c+1)^0,c
  4752  0064D8  0E20               	movlw	32
  4753  0064DA  6E12               	movwf	fputc@c^0,c
  4754  0064DC  C022  F014         	movff	pad@fp,fputc@fp
  4755  0064E0  C023  F015         	movff	pad@fp+1,fputc@fp+1
  4756  0064E4  EC7B  F031         	call	_fputc	;wreg free
  4757  0064E8                     
  4758                           ;C:\Program Files\Microchip\xc8\v2.30\pic\sources\c99\common\doprnt.c: 86:         ++i;
  4759  0064E8  4A29               	infsnz	pad@i^0,f,c
  4760  0064EA  2A2A               	incf	(pad@i+1)^0,f,c
  4761  0064EC                     l6650:
  4762                           
  4763                           ;C:\Program Files\Microchip\xc8\v2.30\pic\sources\c99\common\doprnt.c: 84:     while (i 
      +                          < w) {
  4764  0064EC  502B               	movf	pad@w^0,w,c
  4765  0064EE  5C29               	subwf	pad@i^0,w,c
  4766  0064F0  502A               	movf	(pad@i+1)^0,w,c
  4767  0064F2  0A80               	xorlw	128
  4768  0064F4  6E28               	movwf	??_pad^0,c
  4769  0064F6  502C               	movf	(pad@w+1)^0,w,c
  4770  0064F8  0A80               	xorlw	128
  4771  0064FA  5828               	subwfb	??_pad^0,w,c
  4772  0064FC  A0D8               	btfss	status,0,c
  4773  0064FE  EF83  F032         	goto	u8321
  4774  006502  EF85  F032         	goto	u8320
  4775  006506                     u8321:
  4776  006506  EF6A  F032         	goto	l6646
  4777  00650A                     u8320:
  4778  00650A                     
  4779                           ;C:\Program Files\Microchip\xc8\v2.30\pic\sources\c99\common\doprnt.c: 90:     if (!(fla
      +                          gs & (1 << 0))) {
  4780  00650A  B062               	btfsc	_flags^0,0,c
  4781  00650C  EF8A  F032         	goto	u8331
  4782  006510  EF8C  F032         	goto	u8330
  4783  006514                     u8331:
  4784  006514  EF96  F032         	goto	l6654
  4785  006518                     u8330:
  4786  006518                     
  4787                           ;C:\Program Files\Microchip\xc8\v2.30\pic\sources\c99\common\doprnt.c: 91:         fputs
      +                          ((const char *)buf, fp);
  4788  006518  C024  F01B         	movff	pad@buf,fputs@s
  4789  00651C  C025  F01C         	movff	pad@buf+1,fputs@s+1
  4790  006520  C022  F01D         	movff	pad@fp,fputs@fp
  4791  006524  C023  F01E         	movff	pad@fp+1,fputs@fp+1
  4792  006528  ECD9  F034         	call	_fputs	;wreg free
  4793  00652C                     l6654:
  4794                           
  4795                           ;C:\Program Files\Microchip\xc8\v2.30\pic\sources\c99\common\doprnt.c: 94:     return (i
      +                          nt)(strlen(buf) + (size_t)w);
  4796  00652C  C024  F012         	movff	pad@buf,strlen@s
  4797  006530  C025  F013         	movff	pad@buf+1,strlen@s+1
  4798  006534  EC92  F035         	call	_strlen	;wreg free
  4799  006538  502B               	movf	pad@w^0,w,c
  4800  00653A  2412               	addwf	?_strlen^0,w,c
  4801  00653C  6E22               	movwf	?_pad^0,c
  4802  00653E  502C               	movf	(pad@w+1)^0,w,c
  4803  006540  2013               	addwfc	(?_strlen+1)^0,w,c
  4804  006542  6E23               	movwf	(?_pad+1)^0,c
  4805  006544  0012               	return		;funcret
  4806  006546                     __end_of_pad:
  4807                           	callstack 0
  4808                           
  4809 ;; *************** function _strlen *****************
  4810 ;; Defined at:
  4811 ;;		line 5 in file "C:\Program Files\Microchip\xc8\v2.30\pic\sources\c99\common\strlen.c"
  4812 ;; Parameters:    Size  Location     Type
  4813 ;;  s               2   17[COMRAM] PTR const unsigned char 
  4814 ;;		 -> dbuf(80), 
  4815 ;; Auto vars:     Size  Location     Type
  4816 ;;  a               2   19[COMRAM] PTR const unsigned char 
  4817 ;;		 -> dbuf(80), 
  4818 ;; Return value:  Size  Location     Type
  4819 ;;                  2   17[COMRAM] unsigned int 
  4820 ;; Registers used:
  4821 ;;		wreg, fsr2l, fsr2h, status,2, status,0
  4822 ;; Tracked objects:
  4823 ;;		On entry : 0/0
  4824 ;;		On exit  : 0/0
  4825 ;;		Unchanged: 0/0
  4826 ;; Data sizes:     COMRAM   BANK0   BANK1   BANK2   BANK3   BANK4   BANK5
  4827 ;;      Params:         2       0       0       0       0       0       0
  4828 ;;      Locals:         2       0       0       0       0       0       0
  4829 ;;      Temps:          0       0       0       0       0       0       0
  4830 ;;      Totals:         4       0       0       0       0       0       0
  4831 ;;Total ram usage:        4 bytes
  4832 ;; Hardware stack levels used:    1
  4833 ;; Hardware stack levels required when called:    4
  4834 ;; This function calls:
  4835 ;;		Nothing
  4836 ;; This function is called by:
  4837 ;;		_pad
  4838 ;; This function uses a non-reentrant model
  4839 ;;
  4840                           
  4841                           	psect	text9
  4842  006B24                     __ptext9:
  4843                           	callstack 0
  4844  006B24                     _strlen:
  4845                           	callstack 21
  4846  006B24  C012  F014         	movff	strlen@s,strlen@a
  4847  006B28  C013  F015         	movff	strlen@s+1,strlen@a+1
  4848  006B2C  EF9A  F035         	goto	l6172
  4849  006B30                     l6170:
  4850  006B30  4A12               	infsnz	strlen@s^0,f,c
  4851  006B32  2A13               	incf	(strlen@s+1)^0,f,c
  4852  006B34                     l6172:
  4853  006B34  C012  FFD9         	movff	strlen@s,fsr2l
  4854  006B38  C013  FFDA         	movff	strlen@s+1,fsr2h
  4855  006B3C  50DF               	movf	indf2,w,c
  4856  006B3E  A4D8               	btfss	status,2,c
  4857  006B40  EFA4  F035         	goto	u7551
  4858  006B44  EFA6  F035         	goto	u7550
  4859  006B48                     u7551:
  4860  006B48  EF98  F035         	goto	l6170
  4861  006B4C                     u7550:
  4862  006B4C  5014               	movf	strlen@a^0,w,c
  4863  006B4E  5C12               	subwf	strlen@s^0,w,c
  4864  006B50  6E12               	movwf	?_strlen^0,c
  4865  006B52  5015               	movf	(strlen@a+1)^0,w,c
  4866  006B54  5813               	subwfb	(strlen@s+1)^0,w,c
  4867  006B56  6E13               	movwf	(?_strlen+1)^0,c
  4868  006B58  0012               	return		;funcret
  4869  006B5A                     __end_of_strlen:
  4870                           	callstack 0
  4871                           
  4872 ;; *************** function _fputs *****************
  4873 ;; Defined at:
  4874 ;;		line 8 in file "C:\Program Files\Microchip\xc8\v2.30\pic\sources\c99\common\nf_fputs.c"
  4875 ;; Parameters:    Size  Location     Type
  4876 ;;  s               2   26[COMRAM] PTR const unsigned char 
  4877 ;;		 -> dbuf(80), 
  4878 ;;  fp              2   28[COMRAM] PTR struct _IO_FILE
  4879 ;;		 -> sprintf@f(6), 
  4880 ;; Auto vars:     Size  Location     Type
  4881 ;;  i               2   31[COMRAM] int 
  4882 ;;  c               1   30[COMRAM] unsigned char 
  4883 ;; Return value:  Size  Location     Type
  4884 ;;                  2   26[COMRAM] int 
  4885 ;; Registers used:
  4886 ;;		wreg, fsr1l, fsr1h, fsr2l, fsr2h, status,2, status,0, cstack
  4887 ;; Tracked objects:
  4888 ;;		On entry : 0/0
  4889 ;;		On exit  : 0/0
  4890 ;;		Unchanged: 0/0
  4891 ;; Data sizes:     COMRAM   BANK0   BANK1   BANK2   BANK3   BANK4   BANK5
  4892 ;;      Params:         4       0       0       0       0       0       0
  4893 ;;      Locals:         3       0       0       0       0       0       0
  4894 ;;      Temps:          0       0       0       0       0       0       0
  4895 ;;      Totals:         7       0       0       0       0       0       0
  4896 ;;Total ram usage:        7 bytes
  4897 ;; Hardware stack levels used:    1
  4898 ;; Hardware stack levels required when called:    6
  4899 ;; This function calls:
  4900 ;;		_fputc
  4901 ;; This function is called by:
  4902 ;;		_pad
  4903 ;; This function uses a non-reentrant model
  4904 ;;
  4905                           
  4906                           	psect	text10
  4907  0069B2                     __ptext10:
  4908                           	callstack 0
  4909  0069B2                     _fputs:
  4910                           	callstack 19
  4911  0069B2  0E00               	movlw	0
  4912  0069B4  6E21               	movwf	(fputs@i+1)^0,c
  4913  0069B6  0E00               	movlw	0
  4914  0069B8  6E20               	movwf	fputs@i^0,c
  4915  0069BA  EFEA  F034         	goto	l6166
  4916  0069BE                     l6162:
  4917  0069BE  C01F  F012         	movff	fputs@c,fputc@c
  4918  0069C2  6A13               	clrf	(fputc@c+1)^0,c
  4919  0069C4  C01D  F014         	movff	fputs@fp,fputc@fp
  4920  0069C8  C01E  F015         	movff	fputs@fp+1,fputc@fp+1
  4921  0069CC  EC7B  F031         	call	_fputc	;wreg free
  4922  0069D0  4A20               	infsnz	fputs@i^0,f,c
  4923  0069D2  2A21               	incf	(fputs@i+1)^0,f,c
  4924  0069D4                     l6166:
  4925  0069D4  5020               	movf	fputs@i^0,w,c
  4926  0069D6  241B               	addwf	fputs@s^0,w,c
  4927  0069D8  6ED9               	movwf	fsr2l,c
  4928  0069DA  5021               	movf	(fputs@i+1)^0,w,c
  4929  0069DC  201C               	addwfc	(fputs@s+1)^0,w,c
  4930  0069DE  6EDA               	movwf	fsr2h,c
  4931  0069E0  50DF               	movf	indf2,w,c
  4932  0069E2  6E1F               	movwf	fputs@c^0,c
  4933  0069E4  501F               	movf	fputs@c^0,w,c
  4934  0069E6  A4D8               	btfss	status,2,c
  4935  0069E8  EFF8  F034         	goto	u7541
  4936  0069EC  EFFA  F034         	goto	u7540
  4937  0069F0                     u7541:
  4938  0069F0  EFDF  F034         	goto	l6162
  4939  0069F4                     u7540:
  4940  0069F4  0012               	return		;funcret
  4941  0069F6                     __end_of_fputs:
  4942                           	callstack 0
  4943                           
  4944 ;; *************** function _fputc *****************
  4945 ;; Defined at:
  4946 ;;		line 8 in file "C:\Program Files\Microchip\xc8\v2.30\pic\sources\c99\common\nf_fputc.c"
  4947 ;; Parameters:    Size  Location     Type
  4948 ;;  c               2   17[COMRAM] int 
  4949 ;;  fp              2   19[COMRAM] PTR struct _IO_FILE
  4950 ;;		 -> sprintf@f(6), 
  4951 ;; Auto vars:     Size  Location     Type
  4952 ;;		None
  4953 ;; Return value:  Size  Location     Type
  4954 ;;                  2   17[COMRAM] int 
  4955 ;; Registers used:
  4956 ;;		wreg, fsr1l, fsr1h, fsr2l, fsr2h, status,2, status,0, cstack
  4957 ;; Tracked objects:
  4958 ;;		On entry : 0/0
  4959 ;;		On exit  : 0/0
  4960 ;;		Unchanged: 0/0
  4961 ;; Data sizes:     COMRAM   BANK0   BANK1   BANK2   BANK3   BANK4   BANK5
  4962 ;;      Params:         4       0       0       0       0       0       0
  4963 ;;      Locals:         0       0       0       0       0       0       0
  4964 ;;      Temps:          5       0       0       0       0       0       0
  4965 ;;      Totals:         9       0       0       0       0       0       0
  4966 ;;Total ram usage:        9 bytes
  4967 ;; Hardware stack levels used:    1
  4968 ;; Hardware stack levels required when called:    5
  4969 ;; This function calls:
  4970 ;;		_putch
  4971 ;; This function is called by:
  4972 ;;		_pad
  4973 ;;		_vfpfcnvrt
  4974 ;;		_fputs
  4975 ;; This function uses a non-reentrant model
  4976 ;;
  4977                           
  4978                           	psect	text11
  4979  0062F6                     __ptext11:
  4980                           	callstack 0
  4981  0062F6                     _fputc:
  4982                           	callstack 22
  4983  0062F6  5014               	movf	fputc@fp^0,w,c
  4984  0062F8  1015               	iorwf	(fputc@fp+1)^0,w,c
  4985  0062FA  B4D8               	btfsc	status,2,c
  4986  0062FC  EF82  F031         	goto	u7111
  4987  006300  EF84  F031         	goto	u7110
  4988  006304                     u7111:
  4989  006304  EF8D  F031         	goto	l5948
  4990  006308                     u7110:
  4991  006308  5014               	movf	fputc@fp^0,w,c
  4992  00630A  1015               	iorwf	(fputc@fp+1)^0,w,c
  4993  00630C  A4D8               	btfss	status,2,c
  4994  00630E  EF8B  F031         	goto	u7121
  4995  006312  EF8D  F031         	goto	u7120
  4996  006316                     u7121:
  4997  006316  EF92  F031         	goto	l5950
  4998  00631A                     u7120:
  4999  00631A                     l5948:
  5000  00631A  5012               	movf	fputc@c^0,w,c
  5001  00631C  EC5E  F036         	call	_putch
  5002  006320  EFDF  F031         	goto	l1176
  5003  006324                     l5950:
  5004  006324  EE20 F004          	lfsr	2,4
  5005  006328  5014               	movf	fputc@fp^0,w,c
  5006  00632A  26D9               	addwf	fsr2l,f,c
  5007  00632C  5015               	movf	(fputc@fp+1)^0,w,c
  5008  00632E  22DA               	addwfc	fsr2h,f,c
  5009  006330  50DE               	movf	postinc2,w,c
  5010  006332  10DE               	iorwf	postinc2,w,c
  5011  006334  B4D8               	btfsc	status,2,c
  5012  006336  EF9F  F031         	goto	u7131
  5013  00633A  EFA1  F031         	goto	u7130
  5014  00633E                     u7131:
  5015  00633E  EFBC  F031         	goto	l5954
  5016  006342                     u7130:
  5017  006342  EE20 F004          	lfsr	2,4
  5018  006346  5014               	movf	fputc@fp^0,w,c
  5019  006348  26D9               	addwf	fsr2l,f,c
  5020  00634A  5015               	movf	(fputc@fp+1)^0,w,c
  5021  00634C  22DA               	addwfc	fsr2h,f,c
  5022  00634E  EE10 F002          	lfsr	1,2
  5023  006352  5014               	movf	fputc@fp^0,w,c
  5024  006354  26E1               	addwf	fsr1l,f,c
  5025  006356  5015               	movf	(fputc@fp+1)^0,w,c
  5026  006358  22E2               	addwfc	fsr1h,f,c
  5027  00635A  50DE               	movf	postinc2,w,c
  5028  00635C  5CE6               	subwf	postinc1,w,c
  5029  00635E  50E6               	movf	postinc1,w,c
  5030  006360  0A80               	xorlw	128
  5031  006362  6E1A               	movwf	(??_fputc+4)^0,c
  5032  006364  50DE               	movf	postinc2,w,c
  5033  006366  0A80               	xorlw	128
  5034  006368  581A               	subwfb	(??_fputc+4)^0,w,c
  5035  00636A  B0D8               	btfsc	status,0,c
  5036  00636C  EFBA  F031         	goto	u7141
  5037  006370  EFBC  F031         	goto	u7140
  5038  006374                     u7141:
  5039  006374  EFDF  F031         	goto	l1176
  5040  006378                     u7140:
  5041  006378                     l5954:
  5042  006378  EE20 F002          	lfsr	2,2
  5043  00637C  5014               	movf	fputc@fp^0,w,c
  5044  00637E  26D9               	addwf	fsr2l,f,c
  5045  006380  5015               	movf	(fputc@fp+1)^0,w,c
  5046  006382  22DA               	addwfc	fsr2h,f,c
  5047  006384  CFDE F016          	movff	postinc2,??_fputc
  5048  006388  CFDD F017          	movff	postdec2,??_fputc+1
  5049  00638C  C014  FFD9         	movff	fputc@fp,fsr2l
  5050  006390  C015  FFDA         	movff	fputc@fp+1,fsr2h
  5051  006394  CFDE F018          	movff	postinc2,??_fputc+2
  5052  006398  CFDD F019          	movff	postdec2,??_fputc+3
  5053  00639C  5016               	movf	??_fputc^0,w,c
  5054  00639E  2418               	addwf	(??_fputc+2)^0,w,c
  5055  0063A0  6ED9               	movwf	fsr2l,c
  5056  0063A2  5017               	movf	(??_fputc+1)^0,w,c
  5057  0063A4  2019               	addwfc	(??_fputc+3)^0,w,c
  5058  0063A6  6EDA               	movwf	fsr2h,c
  5059  0063A8  C012  FFDF         	movff	fputc@c,indf2
  5060  0063AC  EE20 F002          	lfsr	2,2
  5061  0063B0  5014               	movf	fputc@fp^0,w,c
  5062  0063B2  26D9               	addwf	fsr2l,f,c
  5063  0063B4  5015               	movf	(fputc@fp+1)^0,w,c
  5064  0063B6  22DA               	addwfc	fsr2h,f,c
  5065  0063B8  2ADE               	incf	postinc2,f,c
  5066  0063BA  0E00               	movlw	0
  5067  0063BC  22DD               	addwfc	postdec2,f,c
  5068  0063BE                     l1176:
  5069  0063BE  0012               	return		;funcret
  5070  0063C0                     __end_of_fputc:
  5071                           	callstack 0
  5072                           
  5073 ;; *************** function _putch *****************
  5074 ;; Defined at:
  5075 ;;		line 7 in file "C:\Program Files\Microchip\xc8\v2.30\pic\sources\c99\common\putch.c"
  5076 ;; Parameters:    Size  Location     Type
  5077 ;;  c               1    wreg     unsigned char 
  5078 ;; Auto vars:     Size  Location     Type
  5079 ;;  c               1    0[COMRAM] unsigned char 
  5080 ;; Return value:  Size  Location     Type
  5081 ;;                  1    wreg      void 
  5082 ;; Registers used:
  5083 ;;		wreg
  5084 ;; Tracked objects:
  5085 ;;		On entry : 0/0
  5086 ;;		On exit  : 0/0
  5087 ;;		Unchanged: 0/0
  5088 ;; Data sizes:     COMRAM   BANK0   BANK1   BANK2   BANK3   BANK4   BANK5
  5089 ;;      Params:         0       0       0       0       0       0       0
  5090 ;;      Locals:         0       0       0       0       0       0       0
  5091 ;;      Temps:          0       0       0       0       0       0       0
  5092 ;;      Totals:         0       0       0       0       0       0       0
  5093 ;;Total ram usage:        0 bytes
  5094 ;; Hardware stack levels used:    1
  5095 ;; Hardware stack levels required when called:    4
  5096 ;; This function calls:
  5097 ;;		Nothing
  5098 ;; This function is called by:
  5099 ;;		_fputc
  5100 ;; This function uses a non-reentrant model
  5101 ;;
  5102                           
  5103                           	psect	text12
  5104  006CBC                     __ptext12:
  5105                           	callstack 0
  5106  006CBC                     _putch:
  5107                           	callstack 22
  5108  006CBC  0012               	return		;funcret
  5109  006CBE                     __end_of_putch:
  5110                           	callstack 0
  5111                           
  5112 ;; *************** function _floorf *****************
  5113 ;; Defined at:
  5114 ;;		line 3 in file "C:\Program Files\Microchip\xc8\v2.30\pic\sources\c99\common\floorf.c"
  5115 ;; Parameters:    Size  Location     Type
  5116 ;;  x               4   82[COMRAM] float 
  5117 ;; Auto vars:     Size  Location     Type
  5118 ;;  u               4   19[BANK0 ] struct .
  5119 ;;  m               4   13[BANK0 ] unsigned long 
  5120 ;;  e               2   17[BANK0 ] int 
  5121 ;; Return value:  Size  Location     Type
  5122 ;;                  4   82[COMRAM] float 
  5123 ;; Registers used:
  5124 ;;		wreg, status,2, status,0
  5125 ;; Tracked objects:
  5126 ;;		On entry : 0/0
  5127 ;;		On exit  : 0/0
  5128 ;;		Unchanged: 0/0
  5129 ;; Data sizes:     COMRAM   BANK0   BANK1   BANK2   BANK3   BANK4   BANK5
  5130 ;;      Params:         4       0       0       0       0       0       0
  5131 ;;      Locals:         0      10       0       0       0       0       0
  5132 ;;      Temps:          6       0       0       0       0       0       0
  5133 ;;      Totals:        10      10       0       0       0       0       0
  5134 ;;Total ram usage:       20 bytes
  5135 ;; Hardware stack levels used:    1
  5136 ;; Hardware stack levels required when called:    4
  5137 ;; This function calls:
  5138 ;;		Nothing
  5139 ;; This function is called by:
  5140 ;;		_efgtoa
  5141 ;; This function uses a non-reentrant model
  5142 ;;
  5143                           
  5144                           	psect	text13
  5145  005510                     __ptext13:
  5146                           	callstack 0
  5147  005510                     _floorf:
  5148                           	callstack 22
  5149  005510  C204  F093         	movff	floorf@F527,floorf@u
  5150  005514  C205  F094         	movff	floorf@F527+1,floorf@u+1
  5151  005518  C206  F095         	movff	floorf@F527+2,floorf@u+2
  5152  00551C  C207  F096         	movff	floorf@F527+3,floorf@u+3
  5153  005520  C053  F093         	movff	floorf@x,floorf@u
  5154  005524  C054  F094         	movff	floorf@x+1,floorf@u+1
  5155  005528  C055  F095         	movff	floorf@x+2,floorf@u+2
  5156  00552C  C056  F096         	movff	floorf@x+3,floorf@u+3
  5157  005530  0E81               	movlw	129
  5158  005532  6E57               	movwf	??_floorf^0,c
  5159  005534  0EFF               	movlw	255
  5160  005536  6E58               	movwf	(??_floorf+1)^0,c
  5161  005538  C093  F059         	movff	floorf@u,??_floorf+2
  5162  00553C  C094  F05A         	movff	floorf@u+1,??_floorf+3
  5163  005540  C095  F05B         	movff	floorf@u+2,??_floorf+4
  5164  005544  C096  F05C         	movff	floorf@u+3,??_floorf+5
  5165  005548  0E18               	movlw	24
  5166  00554A  EFAC  F02A         	goto	u8440
  5167  00554E                     u8445:
  5168  00554E  90D8               	bcf	status,0,c
  5169  005550  325C               	rrcf	(??_floorf+5)^0,f,c
  5170  005552  325B               	rrcf	(??_floorf+4)^0,f,c
  5171  005554  325A               	rrcf	(??_floorf+3)^0,f,c
  5172  005556  3259               	rrcf	(??_floorf+2)^0,f,c
  5173  005558                     u8440:
  5174  005558  2EE8               	decfsz	wreg,f,c
  5175  00555A  EFA7  F02A         	goto	u8445
  5176  00555E  5059               	movf	(??_floorf+2)^0,w,c
  5177  005560  2457               	addwf	??_floorf^0,w,c
  5178  005562  0100               	movlb	0	; () banked
  5179  005564  6F91               	movwf	floorf@e& (0+255),b
  5180  005566  0E00               	movlw	0
  5181  005568  2058               	addwfc	(??_floorf+1)^0,w,c
  5182  00556A  6F92               	movwf	(floorf@e+1)& (0+255),b
  5183  00556C  BF92               	btfsc	(floorf@e+1)& (0+255),7,b
  5184  00556E  EFC2  F02A         	goto	u8451
  5185  005572  5192               	movf	(floorf@e+1)& (0+255),w,b
  5186  005574  E109               	bnz	u8450
  5187  005576  0E17               	movlw	23
  5188  005578  5D91               	subwf	floorf@e& (0+255),w,b
  5189  00557A  A0D8               	btfss	status,0,c
  5190  00557C  EFC2  F02A         	goto	u8451
  5191  005580  EFC4  F02A         	goto	u8450
  5192  005584                     u8451:
  5193  005584  EFCE  F02A         	goto	l6696
  5194  005588                     u8450:
  5195  005588                     l6694:
  5196                           
  5197                           ; BSR set to: 0
  5198  005588  C053  F053         	movff	floorf@x,?_floorf
  5199  00558C  C054  F054         	movff	floorf@x+1,?_floorf+1
  5200  005590  C055  F055         	movff	floorf@x+2,?_floorf+2
  5201  005594  C056  F056         	movff	floorf@x+3,?_floorf+3
  5202  005598  EF92  F02B         	goto	l1137
  5203  00559C                     l6696:
  5204                           
  5205                           ; BSR set to: 0
  5206  00559C  BF92               	btfsc	(floorf@e+1)& (0+255),7,b
  5207  00559E  EFD3  F02A         	goto	u8461
  5208  0055A2  EFD5  F02A         	goto	u8460
  5209  0055A6                     u8461:
  5210  0055A6  EF46  F02B         	goto	l6706
  5211  0055AA                     u8460:
  5212  0055AA                     
  5213                           ; BSR set to: 0
  5214  0055AA  C091  F057         	movff	floorf@e,??_floorf
  5215  0055AE  0EFF               	movlw	255
  5216  0055B0  6E58               	movwf	(??_floorf+1)^0,c
  5217  0055B2  0EFF               	movlw	255
  5218  0055B4  6E59               	movwf	(??_floorf+2)^0,c
  5219  0055B6  0E7F               	movlw	127
  5220  0055B8  6E5A               	movwf	(??_floorf+3)^0,c
  5221  0055BA  0E00               	movlw	0
  5222  0055BC  6E5B               	movwf	(??_floorf+4)^0,c
  5223  0055BE                     u8475:
  5224  0055BE  6657               	tstfsz	??_floorf^0,c
  5225  0055C0  EFE4  F02A         	goto	u8476
  5226  0055C4  EFEC  F02A         	goto	u8477
  5227  0055C8                     u8476:
  5228  0055C8  345B               	rlcf	(??_floorf+4)^0,w,c
  5229  0055CA  325B               	rrcf	(??_floorf+4)^0,f,c
  5230  0055CC  325A               	rrcf	(??_floorf+3)^0,f,c
  5231  0055CE  3259               	rrcf	(??_floorf+2)^0,f,c
  5232  0055D0  3258               	rrcf	(??_floorf+1)^0,f,c
  5233  0055D2  2E57               	decfsz	??_floorf^0,f,c
  5234  0055D4  EFDF  F02A         	goto	u8475
  5235  0055D8                     u8477:
  5236  0055D8  C058  F08D         	movff	??_floorf+1,floorf@m
  5237  0055DC  C059  F08E         	movff	??_floorf+2,floorf@m+1
  5238  0055E0  C05A  F08F         	movff	??_floorf+3,floorf@m+2
  5239  0055E4  C05B  F090         	movff	??_floorf+4,floorf@m+3
  5240  0055E8  0100               	movlb	0	; () banked
  5241  0055EA  518D               	movf	floorf@m& (0+255),w,b
  5242  0055EC  1593               	andwf	floorf@u& (0+255),w,b
  5243  0055EE  6E57               	movwf	??_floorf^0,c
  5244  0055F0  518E               	movf	(floorf@m+1)& (0+255),w,b
  5245  0055F2  1594               	andwf	(floorf@u+1)& (0+255),w,b
  5246  0055F4  6E58               	movwf	(??_floorf+1)^0,c
  5247  0055F6  518F               	movf	(floorf@m+2)& (0+255),w,b
  5248  0055F8  1595               	andwf	(floorf@u+2)& (0+255),w,b
  5249  0055FA  6E59               	movwf	(??_floorf+2)^0,c
  5250  0055FC  5190               	movf	(floorf@m+3)& (0+255),w,b
  5251  0055FE  1596               	andwf	(floorf@u+3)& (0+255),w,b
  5252  005600  6E5A               	movwf	(??_floorf+3)^0,c
  5253  005602  5057               	movf	??_floorf^0,w,c
  5254  005604  1058               	iorwf	(??_floorf+1)^0,w,c
  5255  005606  1059               	iorwf	(??_floorf+2)^0,w,c
  5256  005608  105A               	iorwf	(??_floorf+3)^0,w,c
  5257  00560A  A4D8               	btfss	status,2,c
  5258  00560C  EF0A  F02B         	goto	u8481
  5259  005610  EF0C  F02B         	goto	u8480
  5260  005614                     u8481:
  5261  005614  EF0E  F02B         	goto	l6702
  5262  005618                     u8480:
  5263  005618  EFC4  F02A         	goto	l6694
  5264  00561C                     l6702:
  5265                           
  5266                           ; BSR set to: 0
  5267  00561C  C093  F057         	movff	floorf@u,??_floorf
  5268  005620  C094  F058         	movff	floorf@u+1,??_floorf+1
  5269  005624  C095  F059         	movff	floorf@u+2,??_floorf+2
  5270  005628  C096  F05A         	movff	floorf@u+3,??_floorf+3
  5271  00562C  0E20               	movlw	32
  5272  00562E  EF1E  F02B         	goto	u8490
  5273  005632                     u8495:
  5274  005632  90D8               	bcf	status,0,c
  5275  005634  325A               	rrcf	(??_floorf+3)^0,f,c
  5276  005636  3259               	rrcf	(??_floorf+2)^0,f,c
  5277  005638  3258               	rrcf	(??_floorf+1)^0,f,c
  5278  00563A  3257               	rrcf	??_floorf^0,f,c
  5279  00563C                     u8490:
  5280  00563C  2EE8               	decfsz	wreg,f,c
  5281  00563E  EF19  F02B         	goto	u8495
  5282  005642  5057               	movf	??_floorf^0,w,c
  5283  005644  1058               	iorwf	(??_floorf+1)^0,w,c
  5284  005646  1059               	iorwf	(??_floorf+2)^0,w,c
  5285  005648  105A               	iorwf	(??_floorf+3)^0,w,c
  5286  00564A  B4D8               	btfsc	status,2,c
  5287  00564C  EF2A  F02B         	goto	u8501
  5288  005650  EF2C  F02B         	goto	u8500
  5289  005654                     u8501:
  5290  005654  EF34  F02B         	goto	l1140
  5291  005658                     u8500:
  5292  005658                     
  5293                           ; BSR set to: 0
  5294  005658  518D               	movf	floorf@m& (0+255),w,b
  5295  00565A  2793               	addwf	floorf@u& (0+255),f,b
  5296  00565C  518E               	movf	(floorf@m+1)& (0+255),w,b
  5297  00565E  2394               	addwfc	(floorf@u+1)& (0+255),f,b
  5298  005660  518F               	movf	(floorf@m+2)& (0+255),w,b
  5299  005662  2395               	addwfc	(floorf@u+2)& (0+255),f,b
  5300  005664  5190               	movf	(floorf@m+3)& (0+255),w,b
  5301  005666  2396               	addwfc	(floorf@u+3)& (0+255),f,b
  5302  005668                     l1140:
  5303                           
  5304                           ; BSR set to: 0
  5305  005668  1D8D               	comf	floorf@m& (0+255),w,b
  5306  00566A  6E57               	movwf	??_floorf^0,c
  5307  00566C  1D8E               	comf	(floorf@m+1)& (0+255),w,b
  5308  00566E  6E58               	movwf	(??_floorf+1)^0,c
  5309  005670  1D8F               	comf	(floorf@m+2)& (0+255),w,b
  5310  005672  6E59               	movwf	(??_floorf+2)^0,c
  5311  005674  1D90               	comf	(floorf@m+3)& (0+255),w,b
  5312  005676  6E5A               	movwf	(??_floorf+3)^0,c
  5313  005678  5057               	movf	??_floorf^0,w,c
  5314  00567A  1793               	andwf	floorf@u& (0+255),f,b
  5315  00567C  5058               	movf	(??_floorf+1)^0,w,c
  5316  00567E  1794               	andwf	(floorf@u+1)& (0+255),f,b
  5317  005680  5059               	movf	(??_floorf+2)^0,w,c
  5318  005682  1795               	andwf	(floorf@u+2)& (0+255),f,b
  5319  005684  505A               	movf	(??_floorf+3)^0,w,c
  5320  005686  1796               	andwf	(floorf@u+3)& (0+255),f,b
  5321  005688  EF8A  F02B         	goto	l6714
  5322  00568C                     l6706:
  5323                           
  5324                           ; BSR set to: 0
  5325  00568C  C093  F057         	movff	floorf@u,??_floorf
  5326  005690  C094  F058         	movff	floorf@u+1,??_floorf+1
  5327  005694  C095  F059         	movff	floorf@u+2,??_floorf+2
  5328  005698  C096  F05A         	movff	floorf@u+3,??_floorf+3
  5329  00569C  0E20               	movlw	32
  5330  00569E  EF56  F02B         	goto	u8510
  5331  0056A2                     u8515:
  5332  0056A2  90D8               	bcf	status,0,c
  5333  0056A4  325A               	rrcf	(??_floorf+3)^0,f,c
  5334  0056A6  3259               	rrcf	(??_floorf+2)^0,f,c
  5335  0056A8  3258               	rrcf	(??_floorf+1)^0,f,c
  5336  0056AA  3257               	rrcf	??_floorf^0,f,c
  5337  0056AC                     u8510:
  5338  0056AC  2EE8               	decfsz	wreg,f,c
  5339  0056AE  EF51  F02B         	goto	u8515
  5340  0056B2  5057               	movf	??_floorf^0,w,c
  5341  0056B4  1058               	iorwf	(??_floorf+1)^0,w,c
  5342  0056B6  1059               	iorwf	(??_floorf+2)^0,w,c
  5343  0056B8  105A               	iorwf	(??_floorf+3)^0,w,c
  5344  0056BA  A4D8               	btfss	status,2,c
  5345  0056BC  EF62  F02B         	goto	u8521
  5346  0056C0  EF64  F02B         	goto	u8520
  5347  0056C4                     u8521:
  5348  0056C4  EF6E  F02B         	goto	l6710
  5349  0056C8                     u8520:
  5350  0056C8                     
  5351                           ; BSR set to: 0
  5352  0056C8  0E00               	movlw	0
  5353  0056CA  6F93               	movwf	floorf@u& (0+255),b
  5354  0056CC  0E00               	movlw	0
  5355  0056CE  6F94               	movwf	(floorf@u+1)& (0+255),b
  5356  0056D0  0E00               	movlw	0
  5357  0056D2  6F95               	movwf	(floorf@u+2)& (0+255),b
  5358  0056D4  0E00               	movlw	0
  5359  0056D6  6F96               	movwf	(floorf@u+3)& (0+255),b
  5360  0056D8  EF8A  F02B         	goto	l6714
  5361  0056DC                     l6710:
  5362                           
  5363                           ; BSR set to: 0
  5364  0056DC  90D8               	bcf	status,0,c
  5365  0056DE  3593               	rlcf	floorf@u& (0+255),w,b
  5366  0056E0  6E57               	movwf	??_floorf^0,c
  5367  0056E2  3594               	rlcf	(floorf@u+1)& (0+255),w,b
  5368  0056E4  6E58               	movwf	(??_floorf+1)^0,c
  5369  0056E6  3595               	rlcf	(floorf@u+2)& (0+255),w,b
  5370  0056E8  6E59               	movwf	(??_floorf+2)^0,c
  5371  0056EA  3596               	rlcf	(floorf@u+3)& (0+255),w,b
  5372  0056EC  6E5A               	movwf	(??_floorf+3)^0,c
  5373  0056EE  5057               	movf	??_floorf^0,w,c
  5374  0056F0  1058               	iorwf	(??_floorf+1)^0,w,c
  5375  0056F2  1059               	iorwf	(??_floorf+2)^0,w,c
  5376  0056F4  105A               	iorwf	(??_floorf+3)^0,w,c
  5377  0056F6  B4D8               	btfsc	status,2,c
  5378  0056F8  EF80  F02B         	goto	u8531
  5379  0056FC  EF82  F02B         	goto	u8530
  5380  005700                     u8531:
  5381  005700  EF8A  F02B         	goto	l6714
  5382  005704                     u8530:
  5383  005704                     
  5384                           ; BSR set to: 0
  5385  005704  0E00               	movlw	0
  5386  005706  6F93               	movwf	floorf@u& (0+255),b
  5387  005708  0E00               	movlw	0
  5388  00570A  6F94               	movwf	(floorf@u+1)& (0+255),b
  5389  00570C  0E80               	movlw	128
  5390  00570E  6F95               	movwf	(floorf@u+2)& (0+255),b
  5391  005710  0EBF               	movlw	191
  5392  005712  6F96               	movwf	(floorf@u+3)& (0+255),b
  5393  005714                     l6714:
  5394                           
  5395                           ; BSR set to: 0
  5396  005714  C093  F053         	movff	floorf@u,?_floorf
  5397  005718  C094  F054         	movff	floorf@u+1,?_floorf+1
  5398  00571C  C095  F055         	movff	floorf@u+2,?_floorf+2
  5399  005720  C096  F056         	movff	floorf@u+3,?_floorf+3
  5400  005724                     l1137:
  5401                           
  5402                           ; BSR set to: 0
  5403  005724  0012               	return		;funcret
  5404  005726                     __end_of_floorf:
  5405                           	callstack 0
  5406                           
  5407 ;; *************** function ___fpclassifyf *****************
  5408 ;; Defined at:
  5409 ;;		line 4 in file "C:\Program Files\Microchip\xc8\v2.30\pic\sources\c99\common\__fpclassifyf.c"
  5410 ;; Parameters:    Size  Location     Type
  5411 ;;  x               4   17[COMRAM] float 
  5412 ;; Auto vars:     Size  Location     Type
  5413 ;;  u               4   27[COMRAM] struct .
  5414 ;;  e               2   25[COMRAM] int 
  5415 ;; Return value:  Size  Location     Type
  5416 ;;                  2   17[COMRAM] int 
  5417 ;; Registers used:
  5418 ;;		wreg, status,2, status,0
  5419 ;; Tracked objects:
  5420 ;;		On entry : 0/0
  5421 ;;		On exit  : 0/0
  5422 ;;		Unchanged: 0/0
  5423 ;; Data sizes:     COMRAM   BANK0   BANK1   BANK2   BANK3   BANK4   BANK5
  5424 ;;      Params:         4       0       0       0       0       0       0
  5425 ;;      Locals:         6       0       0       0       0       0       0
  5426 ;;      Temps:          4       0       0       0       0       0       0
  5427 ;;      Totals:        14       0       0       0       0       0       0
  5428 ;;Total ram usage:       14 bytes
  5429 ;; Hardware stack levels used:    1
  5430 ;; Hardware stack levels required when called:    4
  5431 ;; This function calls:
  5432 ;;		Nothing
  5433 ;; This function is called by:
  5434 ;;		_efgtoa
  5435 ;; This function uses a non-reentrant model
  5436 ;;
  5437                           
  5438                           	psect	text14
  5439  006030                     __ptext14:
  5440                           	callstack 0
  5441  006030                     ___fpclassifyf:
  5442                           	callstack 22
  5443  006030  C1F4  F01C         	movff	___fpclassifyf@F465,___fpclassifyf@u
  5444  006034  C1F5  F01D         	movff	___fpclassifyf@F465+1,___fpclassifyf@u+1
  5445  006038  C1F6  F01E         	movff	___fpclassifyf@F465+2,___fpclassifyf@u+2
  5446  00603C  C1F7  F01F         	movff	___fpclassifyf@F465+3,___fpclassifyf@u+3
  5447  006040  C012  F01C         	movff	___fpclassifyf@x,___fpclassifyf@u
  5448  006044  C013  F01D         	movff	___fpclassifyf@x+1,___fpclassifyf@u+1
  5449  006048  C014  F01E         	movff	___fpclassifyf@x+2,___fpclassifyf@u+2
  5450  00604C  C015  F01F         	movff	___fpclassifyf@x+3,___fpclassifyf@u+3
  5451  006050  C01C  F016         	movff	___fpclassifyf@u,??___fpclassifyf
  5452  006054  C01D  F017         	movff	___fpclassifyf@u+1,??___fpclassifyf+1
  5453  006058  C01E  F018         	movff	___fpclassifyf@u+2,??___fpclassifyf+2
  5454  00605C  C01F  F019         	movff	___fpclassifyf@u+3,??___fpclassifyf+3
  5455  006060  0E18               	movlw	24
  5456  006062  EF38  F030         	goto	u8340
  5457  006066                     u8345:
  5458  006066  90D8               	bcf	status,0,c
  5459  006068  3219               	rrcf	(??___fpclassifyf+3)^0,f,c
  5460  00606A  3218               	rrcf	(??___fpclassifyf+2)^0,f,c
  5461  00606C  3217               	rrcf	(??___fpclassifyf+1)^0,f,c
  5462  00606E  3216               	rrcf	??___fpclassifyf^0,f,c
  5463  006070                     u8340:
  5464  006070  2EE8               	decfsz	wreg,f,c
  5465  006072  EF33  F030         	goto	u8345
  5466  006076  5016               	movf	??___fpclassifyf^0,w,c
  5467  006078  6E1A               	movwf	___fpclassifyf@e^0,c
  5468  00607A  6A1B               	clrf	(___fpclassifyf@e+1)^0,c
  5469  00607C  501A               	movf	___fpclassifyf@e^0,w,c
  5470  00607E  101B               	iorwf	(___fpclassifyf@e+1)^0,w,c
  5471  006080  A4D8               	btfss	status,2,c
  5472  006082  EF45  F030         	goto	u8351
  5473  006086  EF47  F030         	goto	u8350
  5474  00608A                     u8351:
  5475  00608A  EF67  F030         	goto	l6670
  5476  00608E                     u8350:
  5477  00608E  90D8               	bcf	status,0,c
  5478  006090  341C               	rlcf	___fpclassifyf@u^0,w,c
  5479  006092  6E16               	movwf	??___fpclassifyf^0,c
  5480  006094  341D               	rlcf	(___fpclassifyf@u+1)^0,w,c
  5481  006096  6E17               	movwf	(??___fpclassifyf+1)^0,c
  5482  006098  341E               	rlcf	(___fpclassifyf@u+2)^0,w,c
  5483  00609A  6E18               	movwf	(??___fpclassifyf+2)^0,c
  5484  00609C  341F               	rlcf	(___fpclassifyf@u+3)^0,w,c
  5485  00609E  6E19               	movwf	(??___fpclassifyf+3)^0,c
  5486  0060A0  5016               	movf	??___fpclassifyf^0,w,c
  5487  0060A2  1017               	iorwf	(??___fpclassifyf+1)^0,w,c
  5488  0060A4  1018               	iorwf	(??___fpclassifyf+2)^0,w,c
  5489  0060A6  1019               	iorwf	(??___fpclassifyf+3)^0,w,c
  5490  0060A8  A4D8               	btfss	status,2,c
  5491  0060AA  EF59  F030         	goto	u8361
  5492  0060AE  EF5B  F030         	goto	u8360
  5493  0060B2                     u8361:
  5494  0060B2  EF61  F030         	goto	l6666
  5495  0060B6                     u8360:
  5496  0060B6  0E00               	movlw	0
  5497  0060B8  6E13               	movwf	(?___fpclassifyf+1)^0,c
  5498  0060BA  0E02               	movlw	2
  5499  0060BC  6E12               	movwf	?___fpclassifyf^0,c
  5500  0060BE  EF96  F030         	goto	l1099
  5501  0060C2                     l6666:
  5502  0060C2  0E00               	movlw	0
  5503  0060C4  6E13               	movwf	(?___fpclassifyf+1)^0,c
  5504  0060C6  0E03               	movlw	3
  5505  0060C8  6E12               	movwf	?___fpclassifyf^0,c
  5506  0060CA  EF96  F030         	goto	l1099
  5507  0060CE                     l6670:
  5508  0060CE  281A               	incf	___fpclassifyf@e^0,w,c
  5509  0060D0  101B               	iorwf	(___fpclassifyf@e+1)^0,w,c
  5510  0060D2  A4D8               	btfss	status,2,c
  5511  0060D4  EF6E  F030         	goto	u8371
  5512  0060D8  EF70  F030         	goto	u8370
  5513  0060DC                     u8371:
  5514  0060DC  EF92  F030         	goto	l6676
  5515  0060E0                     u8370:
  5516  0060E0  C01C  F016         	movff	___fpclassifyf@u,??___fpclassifyf
  5517  0060E4  C01D  F017         	movff	___fpclassifyf@u+1,??___fpclassifyf+1
  5518  0060E8  C01E  F018         	movff	___fpclassifyf@u+2,??___fpclassifyf+2
  5519  0060EC  C01F  F019         	movff	___fpclassifyf@u+3,??___fpclassifyf+3
  5520  0060F0  0E09               	movlw	9
  5521  0060F2                     u8385:
  5522  0060F2  90D8               	bcf	status,0,c
  5523  0060F4  3616               	rlcf	??___fpclassifyf^0,f,c
  5524  0060F6  3617               	rlcf	(??___fpclassifyf+1)^0,f,c
  5525  0060F8  3618               	rlcf	(??___fpclassifyf+2)^0,f,c
  5526  0060FA  3619               	rlcf	(??___fpclassifyf+3)^0,f,c
  5527  0060FC  2EE8               	decfsz	wreg,f,c
  5528  0060FE  EF79  F030         	goto	u8385
  5529  006102  5016               	movf	??___fpclassifyf^0,w,c
  5530  006104  1017               	iorwf	(??___fpclassifyf+1)^0,w,c
  5531  006106  1018               	iorwf	(??___fpclassifyf+2)^0,w,c
  5532  006108  1019               	iorwf	(??___fpclassifyf+3)^0,w,c
  5533  00610A  B4D8               	btfsc	status,2,c
  5534  00610C  EF8A  F030         	goto	u8391
  5535  006110  EF8D  F030         	goto	u8390
  5536  006114                     u8391:
  5537  006114  0E01               	movlw	1
  5538  006116  EF8E  F030         	goto	u8400
  5539  00611A                     u8390:
  5540  00611A  0E00               	movlw	0
  5541  00611C                     u8400:
  5542  00611C  6E12               	movwf	?___fpclassifyf^0,c
  5543  00611E  6A13               	clrf	(?___fpclassifyf+1)^0,c
  5544  006120  EF96  F030         	goto	l1099
  5545  006124                     l6676:
  5546  006124  0E00               	movlw	0
  5547  006126  6E13               	movwf	(?___fpclassifyf+1)^0,c
  5548  006128  0E04               	movlw	4
  5549  00612A  6E12               	movwf	?___fpclassifyf^0,c
  5550  00612C                     l1099:
  5551  00612C  0012               	return		;funcret
  5552  00612E                     __end_of___fpclassifyf:
  5553                           	callstack 0
  5554                           
  5555 ;; *************** function ___fleq *****************
  5556 ;; Defined at:
  5557 ;;		line 4 in file "C:\Program Files\Microchip\xc8\v2.30\pic\sources\c99\common\fleq.c"
  5558 ;; Parameters:    Size  Location     Type
  5559 ;;  ff1             4   17[COMRAM] int 
  5560 ;;  ff2             4   21[COMRAM] int 
  5561 ;; Auto vars:     Size  Location     Type
  5562 ;;		None
  5563 ;; Return value:  Size  Location     Type
  5564 ;;		None               void
  5565 ;; Registers used:
  5566 ;;		wreg, status,2, status,0
  5567 ;; Tracked objects:
  5568 ;;		On entry : 0/0
  5569 ;;		On exit  : 0/0
  5570 ;;		Unchanged: 0/0
  5571 ;; Data sizes:     COMRAM   BANK0   BANK1   BANK2   BANK3   BANK4   BANK5
  5572 ;;      Params:         8       0       0       0       0       0       0
  5573 ;;      Locals:         0       0       0       0       0       0       0
  5574 ;;      Temps:          4       0       0       0       0       0       0
  5575 ;;      Totals:        12       0       0       0       0       0       0
  5576 ;;Total ram usage:       12 bytes
  5577 ;; Hardware stack levels used:    1
  5578 ;; Hardware stack levels required when called:    4
  5579 ;; This function calls:
  5580 ;;		Nothing
  5581 ;; This function is called by:
  5582 ;;		_efgtoa
  5583 ;; This function uses a non-reentrant model
  5584 ;;
  5585                           
  5586                           	psect	text15
  5587  0066A6                     __ptext15:
  5588                           	callstack 0
  5589  0066A6                     ___fleq:
  5590                           	callstack 22
  5591  0066A6  0E00               	movlw	0
  5592  0066A8  1412               	andwf	___fleq@ff1^0,w,c
  5593  0066AA  6E1A               	movwf	??___fleq^0,c
  5594  0066AC  0E00               	movlw	0
  5595  0066AE  1413               	andwf	(___fleq@ff1+1)^0,w,c
  5596  0066B0  6E1B               	movwf	(??___fleq+1)^0,c
  5597  0066B2  0E80               	movlw	128
  5598  0066B4  1414               	andwf	(___fleq@ff1+2)^0,w,c
  5599  0066B6  6E1C               	movwf	(??___fleq+2)^0,c
  5600  0066B8  0E7F               	movlw	127
  5601  0066BA  1415               	andwf	(___fleq@ff1+3)^0,w,c
  5602  0066BC  6E1D               	movwf	(??___fleq+3)^0,c
  5603  0066BE  501A               	movf	??___fleq^0,w,c
  5604  0066C0  101B               	iorwf	(??___fleq+1)^0,w,c
  5605  0066C2  101C               	iorwf	(??___fleq+2)^0,w,c
  5606  0066C4  101D               	iorwf	(??___fleq+3)^0,w,c
  5607  0066C6  A4D8               	btfss	status,2,c
  5608  0066C8  EF68  F033         	goto	u8141
  5609  0066CC  EF6A  F033         	goto	u8140
  5610  0066D0                     u8141:
  5611  0066D0  EF72  F033         	goto	l6550
  5612  0066D4                     u8140:
  5613  0066D4  0E00               	movlw	0
  5614  0066D6  6E12               	movwf	___fleq@ff1^0,c
  5615  0066D8  0E00               	movlw	0
  5616  0066DA  6E13               	movwf	(___fleq@ff1+1)^0,c
  5617  0066DC  0E00               	movlw	0
  5618  0066DE  6E14               	movwf	(___fleq@ff1+2)^0,c
  5619  0066E0  0E00               	movlw	0
  5620  0066E2  6E15               	movwf	(___fleq@ff1+3)^0,c
  5621  0066E4                     l6550:
  5622  0066E4  0E00               	movlw	0
  5623  0066E6  1416               	andwf	___fleq@ff2^0,w,c
  5624  0066E8  6E1A               	movwf	??___fleq^0,c
  5625  0066EA  0E00               	movlw	0
  5626  0066EC  1417               	andwf	(___fleq@ff2+1)^0,w,c
  5627  0066EE  6E1B               	movwf	(??___fleq+1)^0,c
  5628  0066F0  0E80               	movlw	128
  5629  0066F2  1418               	andwf	(___fleq@ff2+2)^0,w,c
  5630  0066F4  6E1C               	movwf	(??___fleq+2)^0,c
  5631  0066F6  0E7F               	movlw	127
  5632  0066F8  1419               	andwf	(___fleq@ff2+3)^0,w,c
  5633  0066FA  6E1D               	movwf	(??___fleq+3)^0,c
  5634  0066FC  501A               	movf	??___fleq^0,w,c
  5635  0066FE  101B               	iorwf	(??___fleq+1)^0,w,c
  5636  006700  101C               	iorwf	(??___fleq+2)^0,w,c
  5637  006702  101D               	iorwf	(??___fleq+3)^0,w,c
  5638  006704  A4D8               	btfss	status,2,c
  5639  006706  EF87  F033         	goto	u8151
  5640  00670A  EF89  F033         	goto	u8150
  5641  00670E                     u8151:
  5642  00670E  EF91  F033         	goto	l6554
  5643  006712                     u8150:
  5644  006712  0E00               	movlw	0
  5645  006714  6E16               	movwf	___fleq@ff2^0,c
  5646  006716  0E00               	movlw	0
  5647  006718  6E17               	movwf	(___fleq@ff2+1)^0,c
  5648  00671A  0E00               	movlw	0
  5649  00671C  6E18               	movwf	(___fleq@ff2+2)^0,c
  5650  00671E  0E00               	movlw	0
  5651  006720  6E19               	movwf	(___fleq@ff2+3)^0,c
  5652  006722                     l6554:
  5653  006722  5016               	movf	___fleq@ff2^0,w,c
  5654  006724  1812               	xorwf	___fleq@ff1^0,w,c
  5655  006726  E10F               	bnz	u8160
  5656  006728  5017               	movf	(___fleq@ff2+1)^0,w,c
  5657  00672A  1813               	xorwf	(___fleq@ff1+1)^0,w,c
  5658  00672C  E10C               	bnz	u8160
  5659  00672E  5018               	movf	(___fleq@ff2+2)^0,w,c
  5660  006730  1814               	xorwf	(___fleq@ff1+2)^0,w,c
  5661  006732  E109               	bnz	u8160
  5662  006734  5019               	movf	(___fleq@ff2+3)^0,w,c
  5663  006736  1815               	xorwf	(___fleq@ff1+3)^0,w,c
  5664  006738  B4D8               	btfsc	status,2,c
  5665  00673A  EFA1  F033         	goto	u8161
  5666  00673E  EFA3  F033         	goto	u8160
  5667  006742                     u8161:
  5668  006742  EFA6  F033         	goto	l6558
  5669  006746                     u8160:
  5670  006746  90D8               	bcf	status,0,c
  5671  006748  EFA7  F033         	goto	l500
  5672  00674C                     l6558:
  5673  00674C  80D8               	bsf	status,0,c
  5674  00674E                     l500:
  5675  00674E  0012               	return		;funcret
  5676  006750                     __end_of___fleq:
  5677                           	callstack 0
  5678                           
  5679 ;; *************** function ___awmod *****************
  5680 ;; Defined at:
  5681 ;;		line 7 in file "C:\Program Files\Microchip\xc8\v2.30\pic\sources\c99\common\awmod.c"
  5682 ;; Parameters:    Size  Location     Type
  5683 ;;  dividend        2   17[COMRAM] int 
  5684 ;;  divisor         2   19[COMRAM] int 
  5685 ;; Auto vars:     Size  Location     Type
  5686 ;;  sign            1   22[COMRAM] unsigned char 
  5687 ;;  counter         1   21[COMRAM] unsigned char 
  5688 ;; Return value:  Size  Location     Type
  5689 ;;                  2   17[COMRAM] int 
  5690 ;; Registers used:
  5691 ;;		wreg, status,2, status,0
  5692 ;; Tracked objects:
  5693 ;;		On entry : 0/0
  5694 ;;		On exit  : 0/0
  5695 ;;		Unchanged: 0/0
  5696 ;; Data sizes:     COMRAM   BANK0   BANK1   BANK2   BANK3   BANK4   BANK5
  5697 ;;      Params:         4       0       0       0       0       0       0
  5698 ;;      Locals:         2       0       0       0       0       0       0
  5699 ;;      Temps:          0       0       0       0       0       0       0
  5700 ;;      Totals:         6       0       0       0       0       0       0
  5701 ;;Total ram usage:        6 bytes
  5702 ;; Hardware stack levels used:    1
  5703 ;; Hardware stack levels required when called:    4
  5704 ;; This function calls:
  5705 ;;		Nothing
  5706 ;; This function is called by:
  5707 ;;		_efgtoa
  5708 ;; This function uses a non-reentrant model
  5709 ;;
  5710                           
  5711                           	psect	text16
  5712  006546                     __ptext16:
  5713                           	callstack 0
  5714  006546                     ___awmod:
  5715                           	callstack 22
  5716  006546  0E00               	movlw	0
  5717  006548  6E17               	movwf	___awmod@sign^0,c
  5718  00654A  BE13               	btfsc	(___awmod@dividend+1)^0,7,c
  5719  00654C  EFAC  F032         	goto	u8080
  5720  006550  EFAA  F032         	goto	u8081
  5721  006554                     u8081:
  5722  006554  EFB2  F032         	goto	l6518
  5723  006558                     u8080:
  5724  006558  6C12               	negf	___awmod@dividend^0,c
  5725  00655A  1E13               	comf	(___awmod@dividend+1)^0,f,c
  5726  00655C  B0D8               	btfsc	status,0,c
  5727  00655E  2A13               	incf	(___awmod@dividend+1)^0,f,c
  5728  006560  0E01               	movlw	1
  5729  006562  6E17               	movwf	___awmod@sign^0,c
  5730  006564                     l6518:
  5731  006564  BE15               	btfsc	(___awmod@divisor+1)^0,7,c
  5732  006566  EFB9  F032         	goto	u8090
  5733  00656A  EFB7  F032         	goto	u8091
  5734  00656E                     u8091:
  5735  00656E  EFBD  F032         	goto	l6522
  5736  006572                     u8090:
  5737  006572  6C14               	negf	___awmod@divisor^0,c
  5738  006574  1E15               	comf	(___awmod@divisor+1)^0,f,c
  5739  006576  B0D8               	btfsc	status,0,c
  5740  006578  2A15               	incf	(___awmod@divisor+1)^0,f,c
  5741  00657A                     l6522:
  5742  00657A  5014               	movf	___awmod@divisor^0,w,c
  5743  00657C  1015               	iorwf	(___awmod@divisor+1)^0,w,c
  5744  00657E  B4D8               	btfsc	status,2,c
  5745  006580  EFC4  F032         	goto	u8101
  5746  006584  EFC6  F032         	goto	u8100
  5747  006588                     u8101:
  5748  006588  EFEA  F032         	goto	l6538
  5749  00658C                     u8100:
  5750  00658C  0E01               	movlw	1
  5751  00658E  6E16               	movwf	___awmod@counter^0,c
  5752  006590  EFCE  F032         	goto	l6528
  5753  006594                     l6526:
  5754  006594  90D8               	bcf	status,0,c
  5755  006596  3614               	rlcf	___awmod@divisor^0,f,c
  5756  006598  3615               	rlcf	(___awmod@divisor+1)^0,f,c
  5757  00659A  2A16               	incf	___awmod@counter^0,f,c
  5758  00659C                     l6528:
  5759  00659C  AE15               	btfss	(___awmod@divisor+1)^0,7,c
  5760  00659E  EFD3  F032         	goto	u8111
  5761  0065A2  EFD5  F032         	goto	u8110
  5762  0065A6                     u8111:
  5763  0065A6  EFCA  F032         	goto	l6526
  5764  0065AA                     u8110:
  5765  0065AA                     l6530:
  5766  0065AA  5014               	movf	___awmod@divisor^0,w,c
  5767  0065AC  5C12               	subwf	___awmod@dividend^0,w,c
  5768  0065AE  5015               	movf	(___awmod@divisor+1)^0,w,c
  5769  0065B0  5813               	subwfb	(___awmod@dividend+1)^0,w,c
  5770  0065B2  A0D8               	btfss	status,0,c
  5771  0065B4  EFDE  F032         	goto	u8121
  5772  0065B8  EFE0  F032         	goto	u8120
  5773  0065BC                     u8121:
  5774  0065BC  EFE4  F032         	goto	l6534
  5775  0065C0                     u8120:
  5776  0065C0  5014               	movf	___awmod@divisor^0,w,c
  5777  0065C2  5E12               	subwf	___awmod@dividend^0,f,c
  5778  0065C4  5015               	movf	(___awmod@divisor+1)^0,w,c
  5779  0065C6  5A13               	subwfb	(___awmod@dividend+1)^0,f,c
  5780  0065C8                     l6534:
  5781  0065C8  90D8               	bcf	status,0,c
  5782  0065CA  3215               	rrcf	(___awmod@divisor+1)^0,f,c
  5783  0065CC  3214               	rrcf	___awmod@divisor^0,f,c
  5784  0065CE  2E16               	decfsz	___awmod@counter^0,f,c
  5785  0065D0  EFD5  F032         	goto	l6530
  5786  0065D4                     l6538:
  5787  0065D4  5017               	movf	___awmod@sign^0,w,c
  5788  0065D6  B4D8               	btfsc	status,2,c
  5789  0065D8  EFF0  F032         	goto	u8131
  5790  0065DC  EFF2  F032         	goto	u8130
  5791  0065E0                     u8131:
  5792  0065E0  EFF6  F032         	goto	l6542
  5793  0065E4                     u8130:
  5794  0065E4  6C12               	negf	___awmod@dividend^0,c
  5795  0065E6  1E13               	comf	(___awmod@dividend+1)^0,f,c
  5796  0065E8  B0D8               	btfsc	status,0,c
  5797  0065EA  2A13               	incf	(___awmod@dividend+1)^0,f,c
  5798  0065EC                     l6542:
  5799  0065EC  C012  F012         	movff	___awmod@dividend,?___awmod
  5800  0065F0  C013  F013         	movff	___awmod@dividend+1,?___awmod+1
  5801  0065F4  0012               	return		;funcret
  5802  0065F6                     __end_of___awmod:
  5803                           	callstack 0
  5804                           
  5805 ;; *************** function _atoi *****************
  5806 ;; Defined at:
  5807 ;;		line 4 in file "C:\Program Files\Microchip\xc8\v2.30\pic\sources\c99\common\atoi.c"
  5808 ;; Parameters:    Size  Location     Type
  5809 ;;  s               2   24[COMRAM] PTR const unsigned char 
  5810 ;;		 -> STR_3(5), STR_1(5), 
  5811 ;; Auto vars:     Size  Location     Type
  5812 ;;  n               2   37[COMRAM] int 
  5813 ;;  neg             2   30[COMRAM] int 
  5814 ;; Return value:  Size  Location     Type
  5815 ;;                  2   24[COMRAM] int 
  5816 ;; Registers used:
  5817 ;;		wreg, status,2, status,0, tblptrl, tblptrh, tblptru, prodl, prodh, cstack
  5818 ;; Tracked objects:
  5819 ;;		On entry : 0/0
  5820 ;;		On exit  : 0/0
  5821 ;;		Unchanged: 0/0
  5822 ;; Data sizes:     COMRAM   BANK0   BANK1   BANK2   BANK3   BANK4   BANK5
  5823 ;;      Params:         2       0       0       0       0       0       0
  5824 ;;      Locals:         9       0       0       0       0       0       0
  5825 ;;      Temps:          4       0       0       0       0       0       0
  5826 ;;      Totals:        15       0       0       0       0       0       0
  5827 ;;Total ram usage:       15 bytes
  5828 ;; Hardware stack levels used:    1
  5829 ;; Hardware stack levels required when called:    5
  5830 ;; This function calls:
  5831 ;;		___wmul
  5832 ;;		_isdigit
  5833 ;;		_isspace
  5834 ;; This function is called by:
  5835 ;;		_vfpfcnvrt
  5836 ;; This function uses a non-reentrant model
  5837 ;;
  5838                           
  5839                           	psect	text17
  5840  005C94                     __ptext17:
  5841                           	callstack 0
  5842  005C94                     _atoi:
  5843                           	callstack 22
  5844  005C94  0E00               	movlw	0
  5845  005C96  6E27               	movwf	(atoi@n+1)^0,c
  5846  005C98  0E00               	movlw	0
  5847  005C9A  6E26               	movwf	atoi@n^0,c
  5848  005C9C  0E00               	movlw	0
  5849  005C9E  6E20               	movwf	(atoi@neg+1)^0,c
  5850  005CA0  0E00               	movlw	0
  5851  005CA2  6E1F               	movwf	atoi@neg^0,c
  5852  005CA4  EF56  F02E         	goto	l7046
  5853  005CA8                     l7044:
  5854  005CA8  4A19               	infsnz	atoi@s^0,f,c
  5855  005CAA  2A1A               	incf	(atoi@s+1)^0,f,c
  5856  005CAC                     l7046:
  5857  005CAC  0E01               	movlw	1
  5858  005CAE  6E25               	movwf	_atoi$1527^0,c
  5859  005CB0  C019  FFF6         	movff	atoi@s,tblptrl
  5860  005CB4  C01A  FFF7         	movff	atoi@s+1,tblptrh
  5861  005CB8                     	if	0	;tblptru may be non-zero
  5862  005CB8                     	endif
  5863  005CB8                     	if	0	;tblptru may be non-zero
  5864  005CB8                     	endif
  5865  005CB8  0008               	tblrd		*
  5866  005CBA  50F5               	movf	tablat,w,c
  5867  005CBC  0A20               	xorlw	32
  5868  005CBE  B4D8               	btfsc	status,2,c
  5869  005CC0  EF64  F02E         	goto	u9121
  5870  005CC4  EF66  F02E         	goto	u9120
  5871  005CC8                     u9121:
  5872  005CC8  EF83  F02E         	goto	l7054
  5873  005CCC                     u9120:
  5874  005CCC  0EF7               	movlw	247
  5875  005CCE  6E1B               	movwf	??_atoi^0,c
  5876  005CD0  0EFF               	movlw	255
  5877  005CD2  6E1C               	movwf	(??_atoi+1)^0,c
  5878  005CD4  C019  FFF6         	movff	atoi@s,tblptrl
  5879  005CD8  C01A  FFF7         	movff	atoi@s+1,tblptrh
  5880  005CDC                     	if	0	;tblptru may be non-zero
  5881  005CDC                     	endif
  5882  005CDC                     	if	0	;tblptru may be non-zero
  5883  005CDC                     	endif
  5884  005CDC  0008               	tblrd		*
  5885  005CDE  50F5               	movf	tablat,w,c
  5886  005CE0  6E1D               	movwf	(??_atoi+2)^0,c
  5887  005CE2  6A1E               	clrf	(??_atoi+3)^0,c
  5888  005CE4  501B               	movf	??_atoi^0,w,c
  5889  005CE6  261D               	addwf	(??_atoi+2)^0,f,c
  5890  005CE8  501C               	movf	(??_atoi+1)^0,w,c
  5891  005CEA  221E               	addwfc	(??_atoi+3)^0,f,c
  5892  005CEC  501E               	movf	(??_atoi+3)^0,w,c
  5893  005CEE  E109               	bnz	u9130
  5894  005CF0  0E05               	movlw	5
  5895  005CF2  5C1D               	subwf	(??_atoi+2)^0,w,c
  5896  005CF4  A0D8               	btfss	status,0,c
  5897  005CF6  EF7F  F02E         	goto	u9131
  5898  005CFA  EF81  F02E         	goto	u9130
  5899  005CFE                     u9131:
  5900  005CFE  EF83  F02E         	goto	l7054
  5901  005D02                     u9130:
  5902  005D02  0E00               	movlw	0
  5903  005D04  6E25               	movwf	_atoi$1527^0,c
  5904  005D06                     l7054:
  5905  005D06  C025  F021         	movff	_atoi$1527,_atoi$1526
  5906  005D0A  6A22               	clrf	(_atoi$1526+1)^0,c
  5907  005D0C  5021               	movf	_atoi$1526^0,w,c
  5908  005D0E  1022               	iorwf	(_atoi$1526+1)^0,w,c
  5909  005D10  A4D8               	btfss	status,2,c
  5910  005D12  EF8D  F02E         	goto	u9141
  5911  005D16  EF8F  F02E         	goto	u9140
  5912  005D1A                     u9141:
  5913  005D1A  EF54  F02E         	goto	l7044
  5914  005D1E                     u9140:
  5915  005D1E  EF99  F02E         	goto	l7064
  5916  005D22                     l7060:
  5917  005D22  0E00               	movlw	0
  5918  005D24  6E20               	movwf	(atoi@neg+1)^0,c
  5919  005D26  0E01               	movlw	1
  5920  005D28  6E1F               	movwf	atoi@neg^0,c
  5921  005D2A                     l7062:
  5922  005D2A  4A19               	infsnz	atoi@s^0,f,c
  5923  005D2C  2A1A               	incf	(atoi@s+1)^0,f,c
  5924  005D2E  EFCE  F02E         	goto	l7070
  5925  005D32                     l7064:
  5926  005D32  C019  FFF6         	movff	atoi@s,tblptrl
  5927  005D36  C01A  FFF7         	movff	atoi@s+1,tblptrh
  5928  005D3A                     	if	0	;tblptru may be non-zero
  5929  005D3A                     	endif
  5930  005D3A                     	if	0	;tblptru may be non-zero
  5931  005D3A                     	endif
  5932  005D3A  0008               	tblrd		*
  5933  005D3C  50F5               	movf	tablat,w,c
  5934  005D3E  6E1B               	movwf	??_atoi^0,c
  5935  005D40  6A1C               	clrf	(??_atoi+1)^0,c
  5936                           
  5937                           ; Switch on 2 bytes has been partitioned into a top level switch of size 1, and 1 sub-sw
      +                          itches
  5938                           ; Switch size 1, requested type "simple"
  5939                           ; Number of cases is 1, Range of values is 0 to 0
  5940                           ; switch strategies available:
  5941                           ; Name         Instructions Cycles
  5942                           ; simple_byte            4     3 (average)
  5943                           ;	Chosen strategy is simple_byte
  5944  005D42  501C               	movf	(??_atoi+1)^0,w,c
  5945  005D44  0A00               	xorlw	0	; case 0
  5946  005D46  B4D8               	btfsc	status,2,c
  5947  005D48  EFA8  F02E         	goto	l8098
  5948  005D4C  EFCE  F02E         	goto	l7070
  5949  005D50                     l8098:
  5950                           
  5951                           ; Switch size 1, requested type "simple"
  5952                           ; Number of cases is 2, Range of values is 43 to 45
  5953                           ; switch strategies available:
  5954                           ; Name         Instructions Cycles
  5955                           ; simple_byte            7     4 (average)
  5956                           ;	Chosen strategy is simple_byte
  5957  005D50  501B               	movf	??_atoi^0,w,c
  5958  005D52  0A2B               	xorlw	43	; case 43
  5959  005D54  B4D8               	btfsc	status,2,c
  5960  005D56  EF95  F02E         	goto	l7062
  5961  005D5A  0A06               	xorlw	6	; case 45
  5962  005D5C  B4D8               	btfsc	status,2,c
  5963  005D5E  EF91  F02E         	goto	l7060
  5964  005D62  EFCE  F02E         	goto	l7070
  5965  005D66                     l7066:
  5966  005D66  C026  F012         	movff	atoi@n,___wmul@multiplier
  5967  005D6A  C027  F013         	movff	atoi@n+1,___wmul@multiplier+1
  5968  005D6E  0E00               	movlw	0
  5969  005D70  6E15               	movwf	(___wmul@multiplicand+1)^0,c
  5970  005D72  0E0A               	movlw	10
  5971  005D74  6E14               	movwf	___wmul@multiplicand^0,c
  5972  005D76  ECFB  F035         	call	___wmul	;wreg free
  5973  005D7A  C019  FFF6         	movff	atoi@s,tblptrl
  5974  005D7E  C01A  FFF7         	movff	atoi@s+1,tblptrh
  5975  005D82                     	if	0	;tblptru may be non-zero
  5976  005D82                     	endif
  5977  005D82                     	if	0	;tblptru may be non-zero
  5978  005D82                     	endif
  5979  005D82  0008               	tblrd		*
  5980  005D84  50F5               	movf	tablat,w,c
  5981  005D86  5E12               	subwf	?___wmul^0,f,c
  5982  005D88  0E00               	movlw	0
  5983  005D8A  5A13               	subwfb	(?___wmul+1)^0,f,c
  5984  005D8C  0E30               	movlw	48
  5985  005D8E  2412               	addwf	?___wmul^0,w,c
  5986  005D90  6E26               	movwf	atoi@n^0,c
  5987  005D92  0E00               	movlw	0
  5988  005D94  2013               	addwfc	(?___wmul+1)^0,w,c
  5989  005D96  6E27               	movwf	(atoi@n+1)^0,c
  5990  005D98  EF95  F02E         	goto	l7062
  5991  005D9C                     l7070:
  5992  005D9C  0ED0               	movlw	208
  5993  005D9E  6E1B               	movwf	??_atoi^0,c
  5994  005DA0  0EFF               	movlw	255
  5995  005DA2  6E1C               	movwf	(??_atoi+1)^0,c
  5996  005DA4  C019  FFF6         	movff	atoi@s,tblptrl
  5997  005DA8  C01A  FFF7         	movff	atoi@s+1,tblptrh
  5998  005DAC                     	if	0	;tblptru may be non-zero
  5999  005DAC                     	endif
  6000  005DAC                     	if	0	;tblptru may be non-zero
  6001  005DAC                     	endif
  6002  005DAC  0008               	tblrd		*
  6003  005DAE  50F5               	movf	tablat,w,c
  6004  005DB0  6E1D               	movwf	(??_atoi+2)^0,c
  6005  005DB2  6A1E               	clrf	(??_atoi+3)^0,c
  6006  005DB4  501B               	movf	??_atoi^0,w,c
  6007  005DB6  261D               	addwf	(??_atoi+2)^0,f,c
  6008  005DB8  501C               	movf	(??_atoi+1)^0,w,c
  6009  005DBA  221E               	addwfc	(??_atoi+3)^0,f,c
  6010  005DBC  501E               	movf	(??_atoi+3)^0,w,c
  6011  005DBE  E10A               	bnz	u9150
  6012  005DC0  0E0A               	movlw	10
  6013  005DC2  5C1D               	subwf	(??_atoi+2)^0,w,c
  6014  005DC4  A0D8               	btfss	status,0,c
  6015  005DC6  EFE7  F02E         	goto	u9151
  6016  005DCA  EFEA  F02E         	goto	u9150
  6017  005DCE                     u9151:
  6018  005DCE  0E01               	movlw	1
  6019  005DD0  EFEB  F02E         	goto	u9160
  6020  005DD4                     u9150:
  6021  005DD4  0E00               	movlw	0
  6022  005DD6                     u9160:
  6023  005DD6  6E23               	movwf	_atoi$1528^0,c
  6024  005DD8  6A24               	clrf	(_atoi$1528+1)^0,c
  6025  005DDA  5023               	movf	_atoi$1528^0,w,c
  6026  005DDC  1024               	iorwf	(_atoi$1528+1)^0,w,c
  6027  005DDE  A4D8               	btfss	status,2,c
  6028  005DE0  EFF4  F02E         	goto	u9171
  6029  005DE4  EFF6  F02E         	goto	u9170
  6030  005DE8                     u9171:
  6031  005DE8  EFB3  F02E         	goto	l7066
  6032  005DEC                     u9170:
  6033  005DEC  501F               	movf	atoi@neg^0,w,c
  6034  005DEE  1020               	iorwf	(atoi@neg+1)^0,w,c
  6035  005DF0  A4D8               	btfss	status,2,c
  6036  005DF2  EFFD  F02E         	goto	u9181
  6037  005DF6  EFFF  F02E         	goto	u9180
  6038  005DFA                     u9181:
  6039  005DFA  EF0D  F02F         	goto	l1128
  6040  005DFE                     u9180:
  6041  005DFE  C026  F01B         	movff	atoi@n,??_atoi
  6042  005E02  C027  F01C         	movff	atoi@n+1,??_atoi+1
  6043  005E06  1E1B               	comf	??_atoi^0,f,c
  6044  005E08  1E1C               	comf	(??_atoi+1)^0,f,c
  6045  005E0A  4A1B               	infsnz	??_atoi^0,f,c
  6046  005E0C  2A1C               	incf	(??_atoi+1)^0,f,c
  6047  005E0E  C01B  F019         	movff	??_atoi,?_atoi
  6048  005E12  C01C  F01A         	movff	??_atoi+1,?_atoi+1
  6049  005E16  EF11  F02F         	goto	l1131
  6050  005E1A                     l1128:
  6051  005E1A  C026  F019         	movff	atoi@n,?_atoi
  6052  005E1E  C027  F01A         	movff	atoi@n+1,?_atoi+1
  6053  005E22                     l1131:
  6054  005E22  0012               	return		;funcret
  6055  005E24                     __end_of_atoi:
  6056                           	callstack 0
  6057                           
  6058 ;; *************** function _isspace *****************
  6059 ;; Defined at:
  6060 ;;		line 5 in file "C:\Program Files\Microchip\xc8\v2.30\pic\sources\c99\common\isspace.c"
  6061 ;; Parameters:    Size  Location     Type
  6062 ;;  c               2   17[COMRAM] int 
  6063 ;; Auto vars:     Size  Location     Type
  6064 ;;		None
  6065 ;; Return value:  Size  Location     Type
  6066 ;;                  2   17[COMRAM] int 
  6067 ;; Registers used:
  6068 ;;		wreg, status,2, status,0
  6069 ;; Tracked objects:
  6070 ;;		On entry : 0/0
  6071 ;;		On exit  : 0/0
  6072 ;;		Unchanged: 0/0
  6073 ;; Data sizes:     COMRAM   BANK0   BANK1   BANK2   BANK3   BANK4   BANK5
  6074 ;;      Params:         2       0       0       0       0       0       0
  6075 ;;      Locals:         1       0       0       0       0       0       0
  6076 ;;      Temps:          4       0       0       0       0       0       0
  6077 ;;      Totals:         7       0       0       0       0       0       0
  6078 ;;Total ram usage:        7 bytes
  6079 ;; Hardware stack levels used:    1
  6080 ;; Hardware stack levels required when called:    4
  6081 ;; This function calls:
  6082 ;;		Nothing
  6083 ;; This function is called by:
  6084 ;;		_atoi
  6085 ;; This function uses a non-reentrant model
  6086 ;;
  6087                           
  6088                           	psect	text18
  6089  0068D0                     __ptext18:
  6090                           	callstack 0
  6091  0068D0                     _isspace:
  6092                           	callstack 22
  6093  0068D0  0E01               	movlw	1
  6094  0068D2  6E18               	movwf	_isspace$1557^0,c
  6095  0068D4  0E20               	movlw	32
  6096  0068D6  1812               	xorwf	isspace@c^0,w,c
  6097  0068D8  1013               	iorwf	(isspace@c+1)^0,w,c
  6098  0068DA  B4D8               	btfsc	status,2,c
  6099  0068DC  EF72  F034         	goto	u8561
  6100  0068E0  EF74  F034         	goto	u8560
  6101  0068E4                     u8561:
  6102  0068E4  EF8D  F034         	goto	l6730
  6103  0068E8                     u8560:
  6104  0068E8  0EF7               	movlw	247
  6105  0068EA  6E14               	movwf	??_isspace^0,c
  6106  0068EC  0EFF               	movlw	255
  6107  0068EE  6E15               	movwf	(??_isspace+1)^0,c
  6108  0068F0  C012  F016         	movff	isspace@c,??_isspace+2
  6109  0068F4  C013  F017         	movff	isspace@c+1,??_isspace+3
  6110  0068F8  5014               	movf	??_isspace^0,w,c
  6111  0068FA  2616               	addwf	(??_isspace+2)^0,f,c
  6112  0068FC  5015               	movf	(??_isspace+1)^0,w,c
  6113  0068FE  2217               	addwfc	(??_isspace+3)^0,f,c
  6114  006900  5017               	movf	(??_isspace+3)^0,w,c
  6115  006902  E109               	bnz	u8570
  6116  006904  0E05               	movlw	5
  6117  006906  5C16               	subwf	(??_isspace+2)^0,w,c
  6118  006908  A0D8               	btfss	status,0,c
  6119  00690A  EF89  F034         	goto	u8571
  6120  00690E  EF8B  F034         	goto	u8570
  6121  006912                     u8571:
  6122  006912  EF8D  F034         	goto	l6730
  6123  006916                     u8570:
  6124  006916  0E00               	movlw	0
  6125  006918  6E18               	movwf	_isspace$1557^0,c
  6126  00691A                     l6730:
  6127  00691A  C018  F012         	movff	_isspace$1557,?_isspace
  6128  00691E  6A13               	clrf	(?_isspace+1)^0,c
  6129  006920  0012               	return		;funcret
  6130  006922                     __end_of_isspace:
  6131                           	callstack 0
  6132                           
  6133 ;; *************** function _isdigit *****************
  6134 ;; Defined at:
  6135 ;;		line 5 in file "C:\Program Files\Microchip\xc8\v2.30\pic\sources\c99\common\isdigit.c"
  6136 ;; Parameters:    Size  Location     Type
  6137 ;;  c               2   17[COMRAM] int 
  6138 ;; Auto vars:     Size  Location     Type
  6139 ;;		None
  6140 ;; Return value:  Size  Location     Type
  6141 ;;                  2   17[COMRAM] int 
  6142 ;; Registers used:
  6143 ;;		wreg, status,2, status,0
  6144 ;; Tracked objects:
  6145 ;;		On entry : 0/0
  6146 ;;		On exit  : 0/0
  6147 ;;		Unchanged: 0/0
  6148 ;; Data sizes:     COMRAM   BANK0   BANK1   BANK2   BANK3   BANK4   BANK5
  6149 ;;      Params:         2       0       0       0       0       0       0
  6150 ;;      Locals:         0       0       0       0       0       0       0
  6151 ;;      Temps:          4       0       0       0       0       0       0
  6152 ;;      Totals:         6       0       0       0       0       0       0
  6153 ;;Total ram usage:        6 bytes
  6154 ;; Hardware stack levels used:    1
  6155 ;; Hardware stack levels required when called:    4
  6156 ;; This function calls:
  6157 ;;		Nothing
  6158 ;; This function is called by:
  6159 ;;		_vfpfcnvrt
  6160 ;;		_atoi
  6161 ;; This function uses a non-reentrant model
  6162 ;;
  6163                           
  6164                           	psect	text19
  6165  006AB4                     __ptext19:
  6166                           	callstack 0
  6167  006AB4                     _isdigit:
  6168                           	callstack 23
  6169  006AB4  0ED0               	movlw	208
  6170  006AB6  6E14               	movwf	??_isdigit^0,c
  6171  006AB8  0EFF               	movlw	255
  6172  006ABA  6E15               	movwf	(??_isdigit+1)^0,c
  6173  006ABC  C012  F016         	movff	isdigit@c,??_isdigit+2
  6174  006AC0  C013  F017         	movff	isdigit@c+1,??_isdigit+3
  6175  006AC4  5014               	movf	??_isdigit^0,w,c
  6176  006AC6  2616               	addwf	(??_isdigit+2)^0,f,c
  6177  006AC8  5015               	movf	(??_isdigit+1)^0,w,c
  6178  006ACA  2217               	addwfc	(??_isdigit+3)^0,f,c
  6179  006ACC  5017               	movf	(??_isdigit+3)^0,w,c
  6180  006ACE  E10A               	bnz	u8540
  6181  006AD0  0E0A               	movlw	10
  6182  006AD2  5C16               	subwf	(??_isdigit+2)^0,w,c
  6183  006AD4  A0D8               	btfss	status,0,c
  6184  006AD6  EF6F  F035         	goto	u8541
  6185  006ADA  EF72  F035         	goto	u8540
  6186  006ADE                     u8541:
  6187  006ADE  0E01               	movlw	1
  6188  006AE0  EF73  F035         	goto	u8550
  6189  006AE4                     u8540:
  6190  006AE4  0E00               	movlw	0
  6191  006AE6                     u8550:
  6192  006AE6  6E12               	movwf	?_isdigit^0,c
  6193  006AE8  6A13               	clrf	(?_isdigit+1)^0,c
  6194  006AEA  0012               	return		;funcret
  6195  006AEC                     __end_of_isdigit:
  6196                           	callstack 0
  6197                           
  6198 ;; *************** function ___wmul *****************
  6199 ;; Defined at:
  6200 ;;		line 15 in file "C:\Program Files\Microchip\xc8\v2.30\pic\sources\c99\common\Umul16.c"
  6201 ;; Parameters:    Size  Location     Type
  6202 ;;  multiplier      2   17[COMRAM] unsigned int 
  6203 ;;  multiplicand    2   19[COMRAM] unsigned int 
  6204 ;; Auto vars:     Size  Location     Type
  6205 ;;  product         2   21[COMRAM] unsigned int 
  6206 ;; Return value:  Size  Location     Type
  6207 ;;                  2   17[COMRAM] unsigned int 
  6208 ;; Registers used:
  6209 ;;		wreg, status,2, status,0, prodl, prodh
  6210 ;; Tracked objects:
  6211 ;;		On entry : 0/0
  6212 ;;		On exit  : 0/0
  6213 ;;		Unchanged: 0/0
  6214 ;; Data sizes:     COMRAM   BANK0   BANK1   BANK2   BANK3   BANK4   BANK5
  6215 ;;      Params:         4       0       0       0       0       0       0
  6216 ;;      Locals:         2       0       0       0       0       0       0
  6217 ;;      Temps:          0       0       0       0       0       0       0
  6218 ;;      Totals:         6       0       0       0       0       0       0
  6219 ;;Total ram usage:        6 bytes
  6220 ;; Hardware stack levels used:    1
  6221 ;; Hardware stack levels required when called:    4
  6222 ;; This function calls:
  6223 ;;		Nothing
  6224 ;; This function is called by:
  6225 ;;		_atoi
  6226 ;; This function uses a non-reentrant model
  6227 ;;
  6228                           
  6229                           	psect	text20
  6230  006BF6                     __ptext20:
  6231                           	callstack 0
  6232  006BF6                     ___wmul:
  6233                           	callstack 22
  6234  006BF6  5012               	movf	___wmul@multiplier^0,w,c
  6235  006BF8  0214               	mulwf	___wmul@multiplicand^0,c
  6236  006BFA  CFF3 F016          	movff	prodl,___wmul@product
  6237  006BFE  CFF4 F017          	movff	prodh,___wmul@product+1
  6238  006C02  5012               	movf	___wmul@multiplier^0,w,c
  6239  006C04  0215               	mulwf	(___wmul@multiplicand+1)^0,c
  6240  006C06  50F3               	movf	243,w,c
  6241  006C08  2617               	addwf	(___wmul@product+1)^0,f,c
  6242  006C0A  5013               	movf	(___wmul@multiplier+1)^0,w,c
  6243  006C0C  0214               	mulwf	___wmul@multiplicand^0,c
  6244  006C0E  50F3               	movf	243,w,c
  6245  006C10  2617               	addwf	(___wmul@product+1)^0,f,c
  6246  006C12  C016  F012         	movff	___wmul@product,?___wmul
  6247  006C16  C017  F013         	movff	___wmul@product+1,?___wmul+1
  6248  006C1A  0012               	return		;funcret
  6249  006C1C                     __end_of___wmul:
  6250                           	callstack 0
  6251                           
  6252 ;; *************** function _set_time *****************
  6253 ;; Defined at:
  6254 ;;		line 92 in file "main.c"
  6255 ;; Parameters:    Size  Location     Type
  6256 ;;		None
  6257 ;; Auto vars:     Size  Location     Type
  6258 ;;  j               2   79[BANK0 ] int 
  6259 ;;  i               2   81[BANK0 ] int 
  6260 ;;  b               2   77[BANK0 ] int 
  6261 ;; Return value:  Size  Location     Type
  6262 ;;                  1    wreg      void 
  6263 ;; Registers used:
  6264 ;;		wreg, fsr1l, fsr1h, fsr2l, fsr2h, status,2, status,0, tblptrl, tblptrh, tblptru, prodl, prodh, cstack
  6265 ;; Tracked objects:
  6266 ;;		On entry : 0/0
  6267 ;;		On exit  : 0/0
  6268 ;;		Unchanged: 0/0
  6269 ;; Data sizes:     COMRAM   BANK0   BANK1   BANK2   BANK3   BANK4   BANK5
  6270 ;;      Params:         0       0       0       0       0       0       0
  6271 ;;      Locals:         0      14       0       0       0       0       0
  6272 ;;      Temps:          0       4       0       0       0       0       0
  6273 ;;      Totals:         0      18       0       0       0       0       0
  6274 ;;Total ram usage:       18 bytes
  6275 ;; Hardware stack levels used:    1
  6276 ;; Hardware stack levels required when called:    7
  6277 ;; This function calls:
  6278 ;;		_ClearBuffer
  6279 ;;		_GetString
  6280 ;;		___awdiv
  6281 ;;		___flmul
  6282 ;;		___fltol
  6283 ;;		___xxtofl
  6284 ;;		_powf
  6285 ;;		_strcpy
  6286 ;; This function is called by:
  6287 ;;		_main
  6288 ;; This function uses a non-reentrant model
  6289 ;;
  6290                           
  6291                           	psect	text21
  6292  005912                     __ptext21:
  6293                           	callstack 0
  6294  005912                     _set_time:
  6295                           	callstack 23
  6296  005912                     
  6297                           ;main.c: 94:     ClearBuffer();
  6298  005912  EC1D  F035         	call	_ClearBuffer	;wreg free
  6299  005916                     
  6300                           ;main.c: 95:     int b = 0;
  6301  005916  0E00               	movlw	0
  6302  005918  0100               	movlb	0	; () banked
  6303  00591A  6FCE               	movwf	(set_time@b+1)& (0+255),b
  6304  00591C  0E00               	movlw	0
  6305  00591E  6FCD               	movwf	set_time@b& (0+255),b
  6306  005920                     l7928:
  6307                           
  6308                           ; BSR set to: 0
  6309                           ;main.c: 97:         strcpy(str, GetString());
  6310  005920  0E58               	movlw	low _str
  6311  005922  6E14               	movwf	strcpy@dest^0,c
  6312  005924  0E02               	movlw	high _str
  6313  005926  6E15               	movwf	(strcpy@dest+1)^0,c
  6314  005928  EC51  F036         	call	_GetString	;wreg free
  6315  00592C  C012  F016         	movff	?_GetString,strcpy@src
  6316  005930  C013  F017         	movff	?_GetString+1,strcpy@src+1
  6317  005934  EC0D  F034         	call	_strcpy	;wreg free
  6318  005938                     
  6319                           ;main.c: 98:         for(int i=19; i>=0; --i) {
  6320  005938  0E00               	movlw	0
  6321  00593A  0100               	movlb	0	; () banked
  6322  00593C  6FD2               	movwf	(set_time@i+1)& (0+255),b
  6323  00593E  0E13               	movlw	19
  6324  005940  6FD1               	movwf	set_time@i& (0+255),b
  6325  005942                     l7936:
  6326                           
  6327                           ; BSR set to: 0
  6328                           ;main.c: 99:             if(str[i] == 'o') {
  6329  005942  0E58               	movlw	low _str
  6330  005944  25D1               	addwf	set_time@i& (0+255),w,b
  6331  005946  6ED9               	movwf	fsr2l,c
  6332  005948  0E02               	movlw	high _str
  6333  00594A  21D2               	addwfc	(set_time@i+1)& (0+255),w,b
  6334  00594C  6EDA               	movwf	fsr2h,c
  6335  00594E  0E6F               	movlw	111
  6336  005950  18DE               	xorwf	postinc2,w,c
  6337  005952  A4D8               	btfss	status,2,c
  6338  005954  EFAE  F02C         	goto	u10311
  6339  005958  EFB0  F02C         	goto	u10310
  6340  00595C                     u10311:
  6341  00595C  EF5C  F02D         	goto	l7958
  6342  005960                     u10310:
  6343  005960                     
  6344                           ; BSR set to: 0
  6345                           ;main.c: 100:                 for(int j=i-1; j>=0; --j) {
  6346  005960  0EFF               	movlw	255
  6347  005962  25D1               	addwf	set_time@i& (0+255),w,b
  6348  005964  6FCF               	movwf	set_time@j& (0+255),b
  6349  005966  0EFF               	movlw	255
  6350  005968  21D2               	addwfc	(set_time@i+1)& (0+255),w,b
  6351  00596A  6FD0               	movwf	(set_time@j+1)& (0+255),b
  6352  00596C  BFD0               	btfsc	(set_time@j+1)& (0+255),7,b
  6353  00596E  EFBD  F02C         	goto	u10320
  6354  005972  EFBB  F02C         	goto	u10321
  6355  005976                     u10321:
  6356  005976  EFBF  F02C         	goto	l7942
  6357  00597A                     u10320:
  6358  00597A  EF42  F02D         	goto	l219
  6359  00597E                     l7942:
  6360                           
  6361                           ; BSR set to: 0
  6362                           ;main.c: 101:                     time = (str[j] - '0') * powf(10,(i-j-1));
  6363  00597E  0EFF               	movlw	255
  6364  005980  6FC1               	movwf	??_set_time& (0+255),b
  6365  005982  0EFF               	movlw	255
  6366  005984  6FC2               	movwf	(??_set_time+1)& (0+255),b
  6367  005986  51CF               	movf	set_time@j& (0+255),w,b
  6368  005988  5DD1               	subwf	set_time@i& (0+255),w,b
  6369  00598A  6FC3               	movwf	(??_set_time+2)& (0+255),b
  6370  00598C  51D0               	movf	(set_time@j+1)& (0+255),w,b
  6371  00598E  59D2               	subwfb	(set_time@i+1)& (0+255),w,b
  6372  005990  6FC4               	movwf	(??_set_time+3)& (0+255),b
  6373  005992  51C1               	movf	??_set_time& (0+255),w,b
  6374  005994  27C3               	addwf	(??_set_time+2)& (0+255),f,b
  6375  005996  51C2               	movf	(??_set_time+1)& (0+255),w,b
  6376  005998  23C4               	addwfc	(??_set_time+3)& (0+255),f,b
  6377  00599A  C0C3  F018         	movff	??_set_time+2,___xxtofl@val
  6378  00599E  C0C4  F019         	movff	??_set_time+3,___xxtofl@val+1
  6379  0059A2  0E00               	movlw	0
  6380  0059A4  BE19               	btfsc	(___xxtofl@val+1)^0,7,c
  6381  0059A6  0EFF               	movlw	-1
  6382  0059A8  6E1A               	movwf	(___xxtofl@val+2)^0,c
  6383  0059AA  6E1B               	movwf	(___xxtofl@val+3)^0,c
  6384  0059AC  0E01               	movlw	1
  6385  0059AE  EC70  F02D         	call	___xxtofl
  6386  0059B2  C018  F0C5         	movff	?___xxtofl,_set_time$1980
  6387  0059B6  C019  F0C6         	movff	?___xxtofl+1,_set_time$1980+1
  6388  0059BA  C01A  F0C7         	movff	?___xxtofl+2,_set_time$1980+2
  6389  0059BE  C01B  F0C8         	movff	?___xxtofl+3,_set_time$1980+3
  6390  0059C2                     
  6391                           ;main.c: 101:                     time = (str[j] - '0') * powf(10,(i-j-1));
  6392  0059C2  C0C5  F0AC         	movff	_set_time$1980,powf@y
  6393  0059C6  C0C6  F0AD         	movff	_set_time$1980+1,powf@y+1
  6394  0059CA  C0C7  F0AE         	movff	_set_time$1980+2,powf@y+2
  6395  0059CE  C0C8  F0AF         	movff	_set_time$1980+3,powf@y+3
  6396  0059D2  0E00               	movlw	0
  6397  0059D4  0100               	movlb	0	; () banked
  6398  0059D6  6FA8               	movwf	powf@x& (0+255),b
  6399  0059D8  0E00               	movlw	0
  6400  0059DA  6FA9               	movwf	(powf@x+1)& (0+255),b
  6401  0059DC  0E20               	movlw	32
  6402  0059DE  6FAA               	movwf	(powf@x+2)& (0+255),b
  6403  0059E0  0E41               	movlw	65
  6404  0059E2  6FAB               	movwf	(powf@x+3)& (0+255),b
  6405  0059E4  EC4D  F003         	call	_powf	;wreg free
  6406  0059E8  C0A8  F0C9         	movff	?_powf,_set_time$1981
  6407  0059EC  C0A9  F0CA         	movff	?_powf+1,_set_time$1981+1
  6408  0059F0  C0AA  F0CB         	movff	?_powf+2,_set_time$1981+2
  6409  0059F4  C0AB  F0CC         	movff	?_powf+3,_set_time$1981+3
  6410  0059F8                     
  6411                           ;main.c: 101:                     time = (str[j] - '0') * powf(10,(i-j-1));
  6412  0059F8  C0C9  F02A         	movff	_set_time$1981,___flmul@a
  6413  0059FC  C0CA  F02B         	movff	_set_time$1981+1,___flmul@a+1
  6414  005A00  C0CB  F02C         	movff	_set_time$1981+2,___flmul@a+2
  6415  005A04  C0CC  F02D         	movff	_set_time$1981+3,___flmul@a+3
  6416  005A08  0ED0               	movlw	208
  6417  005A0A  0100               	movlb	0	; () banked
  6418  005A0C  6FC1               	movwf	??_set_time& (0+255),b
  6419  005A0E  0EFF               	movlw	255
  6420  005A10  6FC2               	movwf	(??_set_time+1)& (0+255),b
  6421  005A12  0E58               	movlw	low _str
  6422  005A14  25CF               	addwf	set_time@j& (0+255),w,b
  6423  005A16  6ED9               	movwf	fsr2l,c
  6424  005A18  0E02               	movlw	high _str
  6425  005A1A  21D0               	addwfc	(set_time@j+1)& (0+255),w,b
  6426  005A1C  6EDA               	movwf	fsr2h,c
  6427  005A1E  50DF               	movf	indf2,w,c
  6428  005A20  6FC3               	movwf	(??_set_time+2)& (0+255),b
  6429  005A22  6BC4               	clrf	(??_set_time+3)& (0+255),b
  6430  005A24  51C1               	movf	??_set_time& (0+255),w,b
  6431  005A26  27C3               	addwf	(??_set_time+2)& (0+255),f,b
  6432  005A28  51C2               	movf	(??_set_time+1)& (0+255),w,b
  6433  005A2A  23C4               	addwfc	(??_set_time+3)& (0+255),f,b
  6434  005A2C  C0C3  F018         	movff	??_set_time+2,___xxtofl@val
  6435  005A30  C0C4  F019         	movff	??_set_time+3,___xxtofl@val+1
  6436  005A34  6A1A               	clrf	(___xxtofl@val+2)^0,c
  6437  005A36  6A1B               	clrf	(___xxtofl@val+3)^0,c
  6438  005A38  0E00               	movlw	0
  6439  005A3A  EC70  F02D         	call	___xxtofl
  6440  005A3E  C018  F026         	movff	?___xxtofl,___flmul@b
  6441  005A42  C019  F027         	movff	?___xxtofl+1,___flmul@b+1
  6442  005A46  C01A  F028         	movff	?___xxtofl+2,___flmul@b+2
  6443  005A4A  C01B  F029         	movff	?___xxtofl+3,___flmul@b+3
  6444  005A4E  EC8B  F025         	call	___flmul	;wreg free
  6445  005A52  C026  F0B9         	movff	?___flmul,___fltol@f1
  6446  005A56  C027  F0BA         	movff	?___flmul+1,___fltol@f1+1
  6447  005A5A  C028  F0BB         	movff	?___flmul+2,___fltol@f1+2
  6448  005A5E  C029  F0BC         	movff	?___flmul+3,___fltol@f1+3
  6449  005A62  EC12  F02F         	call	___fltol	;wreg free
  6450  005A66  C0B9  F06A         	movff	?___fltol,_time
  6451  005A6A  C0BA  F06B         	movff	?___fltol+1,_time+1
  6452  005A6E                     
  6453                           ;main.c: 103:                 }
  6454  005A6E  0100               	movlb	0	; () banked
  6455  005A70  07CF               	decf	set_time@j& (0+255),f,b
  6456  005A72  A0D8               	btfss	status,0,c
  6457  005A74  07D0               	decf	(set_time@j+1)& (0+255),f,b
  6458  005A76                     
  6459                           ; BSR set to: 0
  6460  005A76  BFD0               	btfsc	(set_time@j+1)& (0+255),7,b
  6461  005A78  EF42  F02D         	goto	u10330
  6462  005A7C  EF40  F02D         	goto	u10331
  6463  005A80                     u10331:
  6464  005A80  EFBF  F02C         	goto	l7942
  6465  005A84                     u10330:
  6466  005A84                     l219:
  6467                           
  6468                           ; BSR set to: 0
  6469                           ;main.c: 104:                 T1CONbits.TMR1ON = 1;
  6470  005A84  80CD               	bsf	205,0,c	;volatile
  6471  005A86                     
  6472                           ; BSR set to: 0
  6473                           ;main.c: 105:                 delay_cycle = time/2;
  6474  005A86  C06A  F012         	movff	_time,___awdiv@dividend
  6475  005A8A  C06B  F013         	movff	_time+1,___awdiv@dividend+1
  6476  005A8E  0E00               	movlw	0
  6477  005A90  6E15               	movwf	(___awdiv@divisor+1)^0,c
  6478  005A92  0E02               	movlw	2
  6479  005A94  6E14               	movwf	___awdiv@divisor^0,c
  6480  005A96  ECE0  F031         	call	___awdiv	;wreg free
  6481  005A9A  C012  F068         	movff	?___awdiv,_delay_cycle
  6482  005A9E  C013  F069         	movff	?___awdiv+1,_delay_cycle+1
  6483  005AA2                     
  6484                           ;main.c: 106:                 in = 1;
  6485  005AA2  0E00               	movlw	0
  6486  005AA4  6E65               	movwf	(_in+1)^0,c
  6487  005AA6  0E01               	movlw	1
  6488  005AA8  6E64               	movwf	_in^0,c
  6489  005AAA                     
  6490                           ;main.c: 107:                 b = 1;
  6491  005AAA  0E00               	movlw	0
  6492  005AAC  0100               	movlb	0	; () banked
  6493  005AAE  6FCE               	movwf	(set_time@b+1)& (0+255),b
  6494  005AB0  0E01               	movlw	1
  6495  005AB2  6FCD               	movwf	set_time@b& (0+255),b
  6496                           
  6497                           ;main.c: 108:                 break;
  6498  005AB4  EF66  F02D         	goto	l7962
  6499  005AB8                     l7958:
  6500                           
  6501                           ; BSR set to: 0
  6502                           ;main.c: 110:         }
  6503  005AB8  07D1               	decf	set_time@i& (0+255),f,b
  6504  005ABA  A0D8               	btfss	status,0,c
  6505  005ABC  07D2               	decf	(set_time@i+1)& (0+255),f,b
  6506  005ABE                     
  6507                           ; BSR set to: 0
  6508  005ABE  BFD2               	btfsc	(set_time@i+1)& (0+255),7,b
  6509  005AC0  EF66  F02D         	goto	u10340
  6510  005AC4  EF64  F02D         	goto	u10341
  6511  005AC8                     u10341:
  6512  005AC8  EFA1  F02C         	goto	l7936
  6513  005ACC                     u10340:
  6514  005ACC                     l7962:
  6515                           
  6516                           ; BSR set to: 0
  6517                           ;main.c: 111:         if(b == 1)
  6518  005ACC  05CD               	decf	set_time@b& (0+255),w,b
  6519  005ACE  11CE               	iorwf	(set_time@b+1)& (0+255),w,b
  6520  005AD0  A4D8               	btfss	status,2,c
  6521  005AD2  EF6D  F02D         	goto	u10351
  6522  005AD6  EF6F  F02D         	goto	u10350
  6523  005ADA                     u10351:
  6524  005ADA  EF90  F02C         	goto	l7928
  6525  005ADE                     u10350:
  6526  005ADE                     
  6527                           ; BSR set to: 0
  6528  005ADE  0012               	return		;funcret
  6529  005AE0                     __end_of_set_time:
  6530                           	callstack 0
  6531                           
  6532 ;; *************** function _strcpy *****************
  6533 ;; Defined at:
  6534 ;;		line 3 in file "C:\Program Files\Microchip\xc8\v2.30\pic\sources\c99\common\strcpy.c"
  6535 ;; Parameters:    Size  Location     Type
  6536 ;;  dest            2   19[COMRAM] PTR unsigned char 
  6537 ;;		 -> dbuf(80), str(20), 
  6538 ;;  src             2   21[COMRAM] PTR const unsigned char 
  6539 ;;		 -> STR_9(4), STR_8(4), STR_5(4), STR_4(4), 
  6540 ;;		 -> dbuf(80), mystring(20), 
  6541 ;; Auto vars:     Size  Location     Type
  6542 ;;  d               2   27[COMRAM] PTR unsigned char 
  6543 ;;		 -> dbuf(80), str(20), 
  6544 ;;  s               2   25[COMRAM] PTR const unsigned char 
  6545 ;;		 -> STR_9(4), STR_8(4), STR_5(4), STR_4(4), 
  6546 ;;		 -> dbuf(80), mystring(20), 
  6547 ;; Return value:  Size  Location     Type
  6548 ;;                  2   19[COMRAM] PTR unsigned char 
  6549 ;; Registers used:
  6550 ;;		wreg, fsr1l, fsr1h, fsr2l, fsr2h, status,2, status,0, tblptrl, tblptrh, tblptru
  6551 ;; Tracked objects:
  6552 ;;		On entry : 0/0
  6553 ;;		On exit  : 0/0
  6554 ;;		Unchanged: 0/0
  6555 ;; Data sizes:     COMRAM   BANK0   BANK1   BANK2   BANK3   BANK4   BANK5
  6556 ;;      Params:         4       0       0       0       0       0       0
  6557 ;;      Locals:         4       0       0       0       0       0       0
  6558 ;;      Temps:          2       0       0       0       0       0       0
  6559 ;;      Totals:        10       0       0       0       0       0       0
  6560 ;;Total ram usage:       10 bytes
  6561 ;; Hardware stack levels used:    1
  6562 ;; Hardware stack levels required when called:    4
  6563 ;; This function calls:
  6564 ;;		Nothing
  6565 ;; This function is called by:
  6566 ;;		_set_time
  6567 ;;		_main
  6568 ;;		_efgtoa
  6569 ;;		_motor
  6570 ;; This function uses a non-reentrant model
  6571 ;;
  6572                           
  6573                           	psect	text22
  6574  00681A                     __ptext22:
  6575                           	callstack 0
  6576  00681A                     _strcpy:
  6577                           	callstack 26
  6578  00681A  C016  F01A         	movff	strcpy@src,strcpy@s
  6579  00681E  C017  F01B         	movff	strcpy@src+1,strcpy@s+1
  6580  006822  C014  F01C         	movff	strcpy@dest,strcpy@d
  6581  006826  C015  F01D         	movff	strcpy@dest+1,strcpy@d+1
  6582  00682A                     l6184:
  6583  00682A  501A               	movf	strcpy@s^0,w,c
  6584  00682C  6E18               	movwf	??_strcpy^0,c
  6585  00682E  501B               	movf	(strcpy@s+1)^0,w,c
  6586  006830  6E19               	movwf	(??_strcpy+1)^0,c
  6587  006832  4A1A               	infsnz	strcpy@s^0,f,c
  6588  006834  2A1B               	incf	(strcpy@s+1)^0,f,c
  6589  006836  C018  FFF6         	movff	??_strcpy,tblptrl
  6590  00683A  C019  FFF7         	movff	??_strcpy+1,tblptrh
  6591  00683E  6AF8               	clrf	tblptru,c
  6592  006840  C01C  FFD9         	movff	strcpy@d,fsr2l
  6593  006844  C01D  FFDA         	movff	strcpy@d+1,fsr2h
  6594  006848  4A1C               	infsnz	strcpy@d^0,f,c
  6595  00684A  2A1D               	incf	(strcpy@d+1)^0,f,c
  6596  00684C  0E05               	movlw	(high __ramtop+-1)
  6597  00684E  64F7               	cpfsgt	tblptrh,c
  6598  006850  D003               	bra	u7587
  6599  006852  0008               	tblrd		*
  6600  006854  50F5               	movf	tablat,w,c
  6601  006856  D005               	bra	u7580
  6602  006858                     u7587:
  6603  006858  CFF6 FFE1          	movff	tblptrl,fsr1l
  6604  00685C  CFF7 FFE2          	movff	tblptrh,fsr1h
  6605  006860  50E7               	movf	indf1,w,c
  6606  006862                     u7580:
  6607  006862  6EDF               	movwf	indf2,c
  6608  006864  50DF               	movf	indf2,w,c
  6609  006866  A4D8               	btfss	status,2,c
  6610  006868  EF38  F034         	goto	u7591
  6611  00686C  EF3A  F034         	goto	u7590
  6612  006870                     u7591:
  6613  006870  EF15  F034         	goto	l6184
  6614  006874                     u7590:
  6615  006874  0012               	return		;funcret
  6616  006876                     __end_of_strcpy:
  6617                           	callstack 0
  6618                           
  6619 ;; *************** function _powf *****************
  6620 ;; Defined at:
  6621 ;;		line 52 in file "C:\Program Files\Microchip\xc8\v2.30\pic\sources\c99\common\powf.c"
  6622 ;; Parameters:    Size  Location     Type
  6623 ;;  x               4   40[BANK0 ] float 
  6624 ;;  y               4   44[BANK0 ] float 
  6625 ;; Auto vars:     Size  Location     Type
  6626 ;;  s2              4  140[BANK1 ] float 
  6627 ;;  s_h             4  108[BANK1 ] float 
  6628 ;;  t_h             4  104[BANK1 ] float 
  6629 ;;  t_l             4   52[BANK1 ] float 
  6630 ;;  s_l             4   48[BANK1 ] float 
  6631 ;;  __xc8_float_    4  184[BANK1 ] struct .
  6632 ;;  z               4  180[BANK1 ] float 
  6633 ;;  t               4  176[BANK1 ] float 
  6634 ;;  j               4  172[BANK1 ] long 
  6635 ;;  ix              4  168[BANK1 ] long 
  6636 ;;  k               4  160[BANK1 ] long 
  6637 ;;  p_h             4  156[BANK1 ] float 
  6638 ;;  is              4  148[BANK1 ] long 
  6639 ;;  iy              4  144[BANK1 ] long 
  6640 ;;  sn              4  136[BANK1 ] float 
  6641 ;;  t1              4  132[BANK1 ] float 
  6642 ;;  n               4  128[BANK1 ] long 
  6643 ;;  hy              4  124[BANK1 ] long 
  6644 ;;  v               4  120[BANK1 ] float 
  6645 ;;  u               4  116[BANK1 ] float 
  6646 ;;  ax              4  112[BANK1 ] float 
  6647 ;;  p_l             4  100[BANK1 ] float 
  6648 ;;  hx              4   96[BANK1 ] long 
  6649 ;;  s               4   92[BANK1 ] float 
  6650 ;;  yisint          4   80[BANK1 ] long 
  6651 ;;  r               4   76[BANK1 ] float 
  6652 ;;  w               4   68[BANK1 ] float 
  6653 ;;  i               4   44[BANK1 ] long 
  6654 ;;  y1              4   40[BANK1 ] float 
  6655 ;;  z_l             4   36[BANK1 ] float 
  6656 ;;  z_h             4   32[BANK1 ] float 
  6657 ;;  t2              4   28[BANK1 ] float 
  6658 ;; Return value:  Size  Location     Type
  6659 ;;                  4   40[BANK0 ] float 
  6660 ;; Registers used:
  6661 ;;		wreg, status,2, status,0, tblptrl, tblptrh, tblptru, prodl, prodh, cstack
  6662 ;; Tracked objects:
  6663 ;;		On entry : 0/0
  6664 ;;		On exit  : 0/0
  6665 ;;		Unchanged: 0/0
  6666 ;; Data sizes:     COMRAM   BANK0   BANK1   BANK2   BANK3   BANK4   BANK5
  6667 ;;      Params:         0       8       0       0       0       0       0
  6668 ;;      Locals:         0       0     188       0       0       0       0
  6669 ;;      Temps:          0       9       0       0       0       0       0
  6670 ;;      Totals:         0      17     188       0       0       0       0
  6671 ;;Total ram usage:      205 bytes
  6672 ;; Hardware stack levels used:    1
  6673 ;; Hardware stack levels required when called:    6
  6674 ;; This function calls:
  6675 ;;		___fladd
  6676 ;;		___fldiv
  6677 ;;		___flge
  6678 ;;		___flmul
  6679 ;;		___flneg
  6680 ;;		___flsub
  6681 ;;		___xxtofl
  6682 ;;		_fabsf
  6683 ;;		_scalbnf
  6684 ;;		_sqrtf
  6685 ;; This function is called by:
  6686 ;;		_set_time
  6687 ;; This function uses a non-reentrant model
  6688 ;;
  6689                           
  6690                           	psect	text23
  6691  00069A                     __ptext23:
  6692                           	callstack 0
  6693  00069A                     _powf:
  6694                           	callstack 23
  6695  00069A  C0A8  F1B8         	movff	powf@x,powf@__xc8_float_word
  6696  00069E  C0A9  F1B9         	movff	powf@x+1,powf@__xc8_float_word+1
  6697  0006A2  C0AA  F1BA         	movff	powf@x+2,powf@__xc8_float_word+2
  6698  0006A6  C0AB  F1BB         	movff	powf@x+3,powf@__xc8_float_word+3
  6699  0006AA  C1B8  F160         	movff	powf@__xc8_float_word,powf@hx
  6700  0006AE  C1B9  F161         	movff	powf@__xc8_float_word+1,powf@hx+1
  6701  0006B2  C1BA  F162         	movff	powf@__xc8_float_word+2,powf@hx+2
  6702  0006B6  C1BB  F163         	movff	powf@__xc8_float_word+3,powf@hx+3
  6703  0006BA  C0AC  F1B8         	movff	powf@y,powf@__xc8_float_word
  6704  0006BE  C0AD  F1B9         	movff	powf@y+1,powf@__xc8_float_word+1
  6705  0006C2  C0AE  F1BA         	movff	powf@y+2,powf@__xc8_float_word+2
  6706  0006C6  C0AF  F1BB         	movff	powf@y+3,powf@__xc8_float_word+3
  6707  0006CA  C1B8  F17C         	movff	powf@__xc8_float_word,powf@hy
  6708  0006CE  C1B9  F17D         	movff	powf@__xc8_float_word+1,powf@hy+1
  6709  0006D2  C1BA  F17E         	movff	powf@__xc8_float_word+2,powf@hy+2
  6710  0006D6  C1BB  F17F         	movff	powf@__xc8_float_word+3,powf@hy+3
  6711  0006DA  0EFF               	movlw	255
  6712  0006DC  0101               	movlb	1	; () banked
  6713  0006DE  1560               	andwf	powf@hx& (0+255),w,b
  6714  0006E0  6FA8               	movwf	powf@ix& (0+255),b
  6715  0006E2  0EFF               	movlw	255
  6716  0006E4  1561               	andwf	(powf@hx+1)& (0+255),w,b
  6717  0006E6  6FA9               	movwf	(powf@ix+1)& (0+255),b
  6718  0006E8  0EFF               	movlw	255
  6719  0006EA  1562               	andwf	(powf@hx+2)& (0+255),w,b
  6720  0006EC  6FAA               	movwf	(powf@ix+2)& (0+255),b
  6721  0006EE  0E7F               	movlw	127
  6722  0006F0  1563               	andwf	(powf@hx+3)& (0+255),w,b
  6723  0006F2  6FAB               	movwf	(powf@ix+3)& (0+255),b
  6724  0006F4  0EFF               	movlw	255
  6725  0006F6  157C               	andwf	powf@hy& (0+255),w,b
  6726  0006F8  6F90               	movwf	powf@iy& (0+255),b
  6727  0006FA  0EFF               	movlw	255
  6728  0006FC  157D               	andwf	(powf@hy+1)& (0+255),w,b
  6729  0006FE  6F91               	movwf	(powf@iy+1)& (0+255),b
  6730  000700  0EFF               	movlw	255
  6731  000702  157E               	andwf	(powf@hy+2)& (0+255),w,b
  6732  000704  6F92               	movwf	(powf@iy+2)& (0+255),b
  6733  000706  0E7F               	movlw	127
  6734  000708  157F               	andwf	(powf@hy+3)& (0+255),w,b
  6735  00070A  6F93               	movwf	(powf@iy+3)& (0+255),b
  6736  00070C  5190               	movf	powf@iy& (0+255),w,b
  6737  00070E  1191               	iorwf	(powf@iy+1)& (0+255),w,b
  6738  000710  1192               	iorwf	(powf@iy+2)& (0+255),w,b
  6739  000712  1193               	iorwf	(powf@iy+3)& (0+255),w,b
  6740  000714  A4D8               	btfss	status,2,c
  6741  000716  EF8F  F003         	goto	u9701
  6742  00071A  EF91  F003         	goto	u9700
  6743  00071E                     u9701:
  6744  00071E  EF9C  F003         	goto	l7428
  6745  000722                     u9700:
  6746  000722                     
  6747                           ; BSR set to: 1
  6748  000722  0E00               	movlw	0
  6749  000724  0100               	movlb	0	; () banked
  6750  000726  6FA8               	movwf	?_powf& (0+255),b
  6751  000728  0E00               	movlw	0
  6752  00072A  6FA9               	movwf	(?_powf+1)& (0+255),b
  6753  00072C  0E80               	movlw	128
  6754  00072E  6FAA               	movwf	(?_powf+2)& (0+255),b
  6755  000730  0E3F               	movlw	63
  6756  000732  6FAB               	movwf	(?_powf+3)& (0+255),b
  6757  000734  EF53  F018         	goto	l1252
  6758  000738                     l7428:
  6759                           
  6760                           ; BSR set to: 1
  6761  000738  0E80               	movlw	128
  6762  00073A  1962               	xorwf	(powf@hx+2)& (0+255),w,b
  6763  00073C  E109               	bnz	u9711
  6764  00073E  0E3F               	movlw	63
  6765  000740  1963               	xorwf	(powf@hx+3)& (0+255),w,b
  6766  000742  1160               	iorwf	powf@hx& (0+255),w,b
  6767  000744  1161               	iorwf	(powf@hx+1)& (0+255),w,b
  6768  000746  A4D8               	btfss	status,2,c
  6769  000748  EFA8  F003         	goto	u9711
  6770  00074C  EFAA  F003         	goto	u9710
  6771  000750                     u9711:
  6772  000750  EFB5  F003         	goto	l7434
  6773  000754                     u9710:
  6774  000754                     
  6775                           ; BSR set to: 1
  6776  000754  0E00               	movlw	0
  6777  000756  0100               	movlb	0	; () banked
  6778  000758  6FA8               	movwf	?_powf& (0+255),b
  6779  00075A  0E00               	movlw	0
  6780  00075C  6FA9               	movwf	(?_powf+1)& (0+255),b
  6781  00075E  0E80               	movlw	128
  6782  000760  6FAA               	movwf	(?_powf+2)& (0+255),b
  6783  000762  0E3F               	movlw	63
  6784  000764  6FAB               	movwf	(?_powf+3)& (0+255),b
  6785  000766  EF53  F018         	goto	l1252
  6786  00076A                     l7434:
  6787                           
  6788                           ; BSR set to: 1
  6789  00076A  BFAB               	btfsc	(powf@ix+3)& (0+255),7,b
  6790  00076C  EFC6  F003         	goto	u9720
  6791  000770  05A8               	decf	powf@ix& (0+255),w,b
  6792  000772  0E00               	movlw	0
  6793  000774  59A9               	subwfb	(powf@ix+1)& (0+255),w,b
  6794  000776  0E80               	movlw	128
  6795  000778  59AA               	subwfb	(powf@ix+2)& (0+255),w,b
  6796  00077A  0E7F               	movlw	127
  6797  00077C  59AB               	subwfb	(powf@ix+3)& (0+255),w,b
  6798  00077E  B0D8               	btfsc	status,0,c
  6799  000780  EFC4  F003         	goto	u9721
  6800  000784  EFC6  F003         	goto	u9720
  6801  000788                     u9721:
  6802  000788  EFD7  F003         	goto	l7438
  6803  00078C                     u9720:
  6804  00078C                     
  6805                           ; BSR set to: 1
  6806  00078C  BF93               	btfsc	(powf@iy+3)& (0+255),7,b
  6807  00078E  EFD5  F003         	goto	u9731
  6808  000792  0590               	decf	powf@iy& (0+255),w,b
  6809  000794  0E00               	movlw	0
  6810  000796  5991               	subwfb	(powf@iy+1)& (0+255),w,b
  6811  000798  0E80               	movlw	128
  6812  00079A  5992               	subwfb	(powf@iy+2)& (0+255),w,b
  6813  00079C  0E7F               	movlw	127
  6814  00079E  5993               	subwfb	(powf@iy+3)& (0+255),w,b
  6815  0007A0  A0D8               	btfss	status,0,c
  6816  0007A2  EFD5  F003         	goto	u9731
  6817  0007A6  EFD7  F003         	goto	u9730
  6818  0007AA                     u9731:
  6819  0007AA  EFF3  F003         	goto	l7442
  6820  0007AE                     u9730:
  6821  0007AE                     l7438:
  6822                           
  6823                           ; BSR set to: 1
  6824  0007AE  C0A8  F012         	movff	powf@x,___fladd@b
  6825  0007B2  C0A9  F013         	movff	powf@x+1,___fladd@b+1
  6826  0007B6  C0AA  F014         	movff	powf@x+2,___fladd@b+2
  6827  0007BA  C0AB  F015         	movff	powf@x+3,___fladd@b+3
  6828  0007BE  C0AC  F016         	movff	powf@y,___fladd@a
  6829  0007C2  C0AD  F017         	movff	powf@y+1,___fladd@a+1
  6830  0007C6  C0AE  F018         	movff	powf@y+2,___fladd@a+2
  6831  0007CA  C0AF  F019         	movff	powf@y+3,___fladd@a+3
  6832  0007CE  ECF5  F020         	call	___fladd	;wreg free
  6833  0007D2  C012  F0A8         	movff	?___fladd,?_powf
  6834  0007D6  C013  F0A9         	movff	?___fladd+1,?_powf+1
  6835  0007DA  C014  F0AA         	movff	?___fladd+2,?_powf+2
  6836  0007DE  C015  F0AB         	movff	?___fladd+3,?_powf+3
  6837  0007E2  EF53  F018         	goto	l1252
  6838  0007E6                     l7442:
  6839                           
  6840                           ; BSR set to: 1
  6841  0007E6  0E00               	movlw	0
  6842  0007E8  6F50               	movwf	powf@yisint& (0+255),b
  6843  0007EA  0E00               	movlw	0
  6844  0007EC  6F51               	movwf	(powf@yisint+1)& (0+255),b
  6845  0007EE  0E00               	movlw	0
  6846  0007F0  6F52               	movwf	(powf@yisint+2)& (0+255),b
  6847  0007F2  0E00               	movlw	0
  6848  0007F4  6F53               	movwf	(powf@yisint+3)& (0+255),b
  6849  0007F6                     
  6850                           ; BSR set to: 1
  6851  0007F6  BF63               	btfsc	(powf@hx+3)& (0+255),7,b
  6852  0007F8  EF02  F004         	goto	u9740
  6853  0007FC  EF00  F004         	goto	u9741
  6854  000800                     u9741:
  6855  000800  EFCE  F004         	goto	l1257
  6856  000804                     u9740:
  6857  000804                     
  6858                           ; BSR set to: 1
  6859  000804  BF93               	btfsc	(powf@iy+3)& (0+255),7,b
  6860  000806  EF0E  F004         	goto	u9751
  6861  00080A  0E80               	movlw	128
  6862  00080C  5D92               	subwf	(powf@iy+2)& (0+255),w,b
  6863  00080E  0E4B               	movlw	75
  6864  000810  5993               	subwfb	(powf@iy+3)& (0+255),w,b
  6865  000812  A0D8               	btfss	status,0,c
  6866  000814  EF0E  F004         	goto	u9751
  6867  000818  EF10  F004         	goto	u9750
  6868  00081C                     u9751:
  6869  00081C  EF1A  F004         	goto	l7450
  6870  000820                     u9750:
  6871  000820                     
  6872                           ; BSR set to: 1
  6873  000820  0E02               	movlw	2
  6874  000822  6F50               	movwf	powf@yisint& (0+255),b
  6875  000824  0E00               	movlw	0
  6876  000826  6F51               	movwf	(powf@yisint+1)& (0+255),b
  6877  000828  0E00               	movlw	0
  6878  00082A  6F52               	movwf	(powf@yisint+2)& (0+255),b
  6879  00082C  0E00               	movlw	0
  6880  00082E  6F53               	movwf	(powf@yisint+3)& (0+255),b
  6881  000830  EFCE  F004         	goto	l1257
  6882  000834                     l7450:
  6883                           
  6884                           ; BSR set to: 1
  6885  000834  BF93               	btfsc	(powf@iy+3)& (0+255),7,b
  6886  000836  EF26  F004         	goto	u9761
  6887  00083A  0E80               	movlw	128
  6888  00083C  5D92               	subwf	(powf@iy+2)& (0+255),w,b
  6889  00083E  0E3F               	movlw	63
  6890  000840  5993               	subwfb	(powf@iy+3)& (0+255),w,b
  6891  000842  A0D8               	btfss	status,0,c
  6892  000844  EF26  F004         	goto	u9761
  6893  000848  EF28  F004         	goto	u9760
  6894  00084C                     u9761:
  6895  00084C  EFCE  F004         	goto	l1257
  6896  000850                     u9760:
  6897  000850                     
  6898                           ; BSR set to: 1
  6899  000850  0E17               	movlw	23
  6900  000852  0100               	movlb	0	; () banked
  6901  000854  6FB0               	movwf	??_powf& (0+255),b
  6902  000856  C190  F0B1         	movff	powf@iy,??_powf+1
  6903  00085A  C191  F0B2         	movff	powf@iy+1,??_powf+2
  6904  00085E  C192  F0B3         	movff	powf@iy+2,??_powf+3
  6905  000862  C193  F0B4         	movff	powf@iy+3,??_powf+4
  6906  000866                     u9775:
  6907  000866  67B0               	tstfsz	??_powf& (0+255),b
  6908  000868  EF38  F004         	goto	u9776
  6909  00086C  EF40  F004         	goto	u9777
  6910  000870                     u9776:
  6911  000870  35B4               	rlcf	(??_powf+4)& (0+255),w,b
  6912  000872  33B4               	rrcf	(??_powf+4)& (0+255),f,b
  6913  000874  33B3               	rrcf	(??_powf+3)& (0+255),f,b
  6914  000876  33B2               	rrcf	(??_powf+2)& (0+255),f,b
  6915  000878  33B1               	rrcf	(??_powf+1)& (0+255),f,b
  6916  00087A  2FB0               	decfsz	??_powf& (0+255),f,b
  6917  00087C  EF33  F004         	goto	u9775
  6918  000880                     u9777:
  6919  000880  0E81               	movlw	129
  6920  000882  0100               	movlb	0	; () banked
  6921  000884  25B1               	addwf	(??_powf+1)& (0+255),w,b
  6922  000886  0101               	movlb	1	; () banked
  6923  000888  6FA0               	movwf	powf@k& (0+255),b
  6924  00088A  0EFF               	movlw	255
  6925  00088C  0100               	movlb	0	; () banked
  6926  00088E  21B2               	addwfc	(??_powf+2)& (0+255),w,b
  6927  000890  0101               	movlb	1	; () banked
  6928  000892  6FA1               	movwf	(powf@k+1)& (0+255),b
  6929  000894  0EFF               	movlw	255
  6930  000896  0100               	movlb	0	; () banked
  6931  000898  21B3               	addwfc	(??_powf+3)& (0+255),w,b
  6932  00089A  0101               	movlb	1	; () banked
  6933  00089C  6FA2               	movwf	(powf@k+2)& (0+255),b
  6934  00089E  0EFF               	movlw	255
  6935  0008A0  0100               	movlb	0	; () banked
  6936  0008A2  21B4               	addwfc	(??_powf+4)& (0+255),w,b
  6937  0008A4  0101               	movlb	1	; () banked
  6938  0008A6  6FA3               	movwf	(powf@k+3)& (0+255),b
  6939  0008A8  51A0               	movf	powf@k& (0+255),w,b
  6940  0008AA  0817               	sublw	23
  6941  0008AC  0100               	movlb	0	; () banked
  6942  0008AE  6FB0               	movwf	??_powf& (0+255),b
  6943  0008B0  C190  F0B1         	movff	powf@iy,??_powf+1
  6944  0008B4  C191  F0B2         	movff	powf@iy+1,??_powf+2
  6945  0008B8  C192  F0B3         	movff	powf@iy+2,??_powf+3
  6946  0008BC  C193  F0B4         	movff	powf@iy+3,??_powf+4
  6947  0008C0                     u9785:
  6948  0008C0  67B0               	tstfsz	??_powf& (0+255),b
  6949  0008C2  EF65  F004         	goto	u9786
  6950  0008C6  EF6D  F004         	goto	u9787
  6951  0008CA                     u9786:
  6952  0008CA  35B4               	rlcf	(??_powf+4)& (0+255),w,b
  6953  0008CC  33B4               	rrcf	(??_powf+4)& (0+255),f,b
  6954  0008CE  33B3               	rrcf	(??_powf+3)& (0+255),f,b
  6955  0008D0  33B2               	rrcf	(??_powf+2)& (0+255),f,b
  6956  0008D2  33B1               	rrcf	(??_powf+1)& (0+255),f,b
  6957  0008D4  2FB0               	decfsz	??_powf& (0+255),f,b
  6958  0008D6  EF60  F004         	goto	u9785
  6959  0008DA                     u9787:
  6960  0008DA  C0B1  F1AC         	movff	??_powf+1,powf@j
  6961  0008DE  C0B2  F1AD         	movff	??_powf+2,powf@j+1
  6962  0008E2  C0B3  F1AE         	movff	??_powf+3,powf@j+2
  6963  0008E6  C0B4  F1AF         	movff	??_powf+4,powf@j+3
  6964  0008EA  0101               	movlb	1	; () banked
  6965  0008EC  51A0               	movf	powf@k& (0+255),w,b
  6966  0008EE  0817               	sublw	23
  6967  0008F0  0100               	movlb	0	; () banked
  6968  0008F2  6FB0               	movwf	??_powf& (0+255),b
  6969  0008F4  C1AC  F0B1         	movff	powf@j,??_powf+1
  6970  0008F8  C1AD  F0B2         	movff	powf@j+1,??_powf+2
  6971  0008FC  C1AE  F0B3         	movff	powf@j+2,??_powf+3
  6972  000900  C1AF  F0B4         	movff	powf@j+3,??_powf+4
  6973  000904  2BB0               	incf	??_powf& (0+255),f,b
  6974  000906  EF8A  F004         	goto	u9790
  6975  00090A                     u9795:
  6976  00090A  90D8               	bcf	status,0,c
  6977  00090C  37B1               	rlcf	(??_powf+1)& (0+255),f,b
  6978  00090E  37B2               	rlcf	(??_powf+2)& (0+255),f,b
  6979  000910  37B3               	rlcf	(??_powf+3)& (0+255),f,b
  6980  000912  37B4               	rlcf	(??_powf+4)& (0+255),f,b
  6981  000914                     u9790:
  6982  000914  2FB0               	decfsz	??_powf& (0+255),f,b
  6983  000916  EF85  F004         	goto	u9795
  6984  00091A  0101               	movlb	1	; () banked
  6985  00091C  5190               	movf	powf@iy& (0+255),w,b
  6986  00091E  0100               	movlb	0	; () banked
  6987  000920  19B1               	xorwf	(??_powf+1)& (0+255),w,b
  6988  000922  E113               	bnz	u9801
  6989  000924  0101               	movlb	1	; () banked
  6990  000926  5191               	movf	(powf@iy+1)& (0+255),w,b
  6991  000928  0100               	movlb	0	; () banked
  6992  00092A  19B2               	xorwf	(??_powf+2)& (0+255),w,b
  6993  00092C  E10E               	bnz	u9801
  6994  00092E  0101               	movlb	1	; () banked
  6995  000930  5192               	movf	(powf@iy+2)& (0+255),w,b
  6996  000932  0100               	movlb	0	; () banked
  6997  000934  19B3               	xorwf	(??_powf+3)& (0+255),w,b
  6998  000936  E109               	bnz	u9801
  6999  000938  0101               	movlb	1	; () banked
  7000  00093A  5193               	movf	(powf@iy+3)& (0+255),w,b
  7001  00093C  0100               	movlb	0	; () banked
  7002  00093E  19B4               	xorwf	(??_powf+4)& (0+255),w,b
  7003  000940  A4D8               	btfss	status,2,c
  7004  000942  EFA5  F004         	goto	u9801
  7005  000946  EFA7  F004         	goto	u9800
  7006  00094A                     u9801:
  7007  00094A  EFCE  F004         	goto	l1257
  7008  00094E                     u9800:
  7009  00094E                     
  7010                           ; BSR set to: 0
  7011  00094E  0E01               	movlw	1
  7012  000950  0101               	movlb	1	; () banked
  7013  000952  15AC               	andwf	powf@j& (0+255),w,b
  7014  000954  0100               	movlb	0	; () banked
  7015  000956  6FB0               	movwf	??_powf& (0+255),b
  7016  000958  0E00               	movlw	0
  7017  00095A  0101               	movlb	1	; () banked
  7018  00095C  15AD               	andwf	(powf@j+1)& (0+255),w,b
  7019  00095E  0100               	movlb	0	; () banked
  7020  000960  6FB1               	movwf	(??_powf+1)& (0+255),b
  7021  000962  0E00               	movlw	0
  7022  000964  0101               	movlb	1	; () banked
  7023  000966  15AE               	andwf	(powf@j+2)& (0+255),w,b
  7024  000968  0100               	movlb	0	; () banked
  7025  00096A  6FB2               	movwf	(??_powf+2)& (0+255),b
  7026  00096C  0E00               	movlw	0
  7027  00096E  0101               	movlb	1	; () banked
  7028  000970  15AF               	andwf	(powf@j+3)& (0+255),w,b
  7029  000972  0100               	movlb	0	; () banked
  7030  000974  6FB3               	movwf	(??_powf+3)& (0+255),b
  7031  000976  51B0               	movf	??_powf& (0+255),w,b
  7032  000978  0802               	sublw	2
  7033  00097A  0101               	movlb	1	; () banked
  7034  00097C  6F50               	movwf	powf@yisint& (0+255),b
  7035  00097E  0E00               	movlw	0
  7036  000980  0100               	movlb	0	; () banked
  7037  000982  55B1               	subfwb	(??_powf+1)& (0+255),w,b
  7038  000984  0101               	movlb	1	; () banked
  7039  000986  6F51               	movwf	(powf@yisint+1)& (0+255),b
  7040  000988  0E00               	movlw	0
  7041  00098A  0100               	movlb	0	; () banked
  7042  00098C  55B2               	subfwb	(??_powf+2)& (0+255),w,b
  7043  00098E  0101               	movlb	1	; () banked
  7044  000990  6F52               	movwf	(powf@yisint+2)& (0+255),b
  7045  000992  0E00               	movlw	0
  7046  000994  0100               	movlb	0	; () banked
  7047  000996  55B3               	subfwb	(??_powf+3)& (0+255),w,b
  7048  000998  0101               	movlb	1	; () banked
  7049  00099A  6F53               	movwf	(powf@yisint+3)& (0+255),b
  7050  00099C                     l1257:
  7051  00099C  0E80               	movlw	128
  7052  00099E  0101               	movlb	1	; () banked
  7053  0009A0  1992               	xorwf	(powf@iy+2)& (0+255),w,b
  7054  0009A2  E109               	bnz	u9811
  7055  0009A4  0E7F               	movlw	127
  7056  0009A6  1993               	xorwf	(powf@iy+3)& (0+255),w,b
  7057  0009A8  1190               	iorwf	powf@iy& (0+255),w,b
  7058  0009AA  1191               	iorwf	(powf@iy+1)& (0+255),w,b
  7059  0009AC  A4D8               	btfss	status,2,c
  7060  0009AE  EFDB  F004         	goto	u9811
  7061  0009B2  EFDD  F004         	goto	u9810
  7062  0009B6                     u9811:
  7063  0009B6  EF49  F005         	goto	l7480
  7064  0009BA                     u9810:
  7065  0009BA                     
  7066                           ; BSR set to: 1
  7067  0009BA  0E80               	movlw	128
  7068  0009BC  19AA               	xorwf	(powf@ix+2)& (0+255),w,b
  7069  0009BE  E109               	bnz	u9821
  7070  0009C0  0E3F               	movlw	63
  7071  0009C2  19AB               	xorwf	(powf@ix+3)& (0+255),w,b
  7072  0009C4  11A8               	iorwf	powf@ix& (0+255),w,b
  7073  0009C6  11A9               	iorwf	(powf@ix+1)& (0+255),w,b
  7074  0009C8  A4D8               	btfss	status,2,c
  7075  0009CA  EFE9  F004         	goto	u9821
  7076  0009CE  EFEB  F004         	goto	u9820
  7077  0009D2                     u9821:
  7078  0009D2  EFF6  F004         	goto	l7464
  7079  0009D6                     u9820:
  7080  0009D6                     
  7081                           ; BSR set to: 1
  7082  0009D6  0E00               	movlw	0
  7083  0009D8  0100               	movlb	0	; () banked
  7084  0009DA  6FA8               	movwf	?_powf& (0+255),b
  7085  0009DC  0E00               	movlw	0
  7086  0009DE  6FA9               	movwf	(?_powf+1)& (0+255),b
  7087  0009E0  0E80               	movlw	128
  7088  0009E2  6FAA               	movwf	(?_powf+2)& (0+255),b
  7089  0009E4  0E3F               	movlw	63
  7090  0009E6  6FAB               	movwf	(?_powf+3)& (0+255),b
  7091  0009E8  EF53  F018         	goto	l1252
  7092  0009EC                     l7464:
  7093                           
  7094                           ; BSR set to: 1
  7095  0009EC  BFAB               	btfsc	(powf@ix+3)& (0+255),7,b
  7096  0009EE  EF05  F005         	goto	u9831
  7097  0009F2  05A8               	decf	powf@ix& (0+255),w,b
  7098  0009F4  0E00               	movlw	0
  7099  0009F6  59A9               	subwfb	(powf@ix+1)& (0+255),w,b
  7100  0009F8  0E80               	movlw	128
  7101  0009FA  59AA               	subwfb	(powf@ix+2)& (0+255),w,b
  7102  0009FC  0E3F               	movlw	63
  7103  0009FE  59AB               	subwfb	(powf@ix+3)& (0+255),w,b
  7104  000A00  A0D8               	btfss	status,0,c
  7105  000A02  EF05  F005         	goto	u9831
  7106  000A06  EF07  F005         	goto	u9830
  7107  000A0A                     u9831:
  7108  000A0A  EF23  F005         	goto	l7472
  7109  000A0E                     u9830:
  7110  000A0E                     
  7111                           ; BSR set to: 1
  7112  000A0E  BF7F               	btfsc	(powf@hy+3)& (0+255),7,b
  7113  000A10  EF0E  F005         	goto	u9840
  7114  000A14  EF0C  F005         	goto	u9841
  7115  000A18                     u9841:
  7116  000A18  EF19  F005         	goto	l1267
  7117  000A1C                     u9840:
  7118  000A1C                     
  7119                           ; BSR set to: 1
  7120  000A1C  0E00               	movlw	0
  7121  000A1E  0100               	movlb	0	; () banked
  7122  000A20  6FA8               	movwf	?_powf& (0+255),b
  7123  000A22  0E00               	movlw	0
  7124  000A24  6FA9               	movwf	(?_powf+1)& (0+255),b
  7125  000A26  0E00               	movlw	0
  7126  000A28  6FAA               	movwf	(?_powf+2)& (0+255),b
  7127  000A2A  0E00               	movlw	0
  7128  000A2C  6FAB               	movwf	(?_powf+3)& (0+255),b
  7129  000A2E  EF53  F018         	goto	l1252
  7130  000A32                     l1267:
  7131                           
  7132                           ; BSR set to: 1
  7133  000A32  C0AC  F0A8         	movff	powf@y,?_powf
  7134  000A36  C0AD  F0A9         	movff	powf@y+1,?_powf+1
  7135  000A3A  C0AE  F0AA         	movff	powf@y+2,?_powf+2
  7136  000A3E  C0AF  F0AB         	movff	powf@y+3,?_powf+3
  7137  000A42  EF53  F018         	goto	l1252
  7138  000A46                     l7472:
  7139                           
  7140                           ; BSR set to: 1
  7141  000A46  BF7F               	btfsc	(powf@hy+3)& (0+255),7,b
  7142  000A48  EF2A  F005         	goto	u9850
  7143  000A4C  EF28  F005         	goto	u9851
  7144  000A50                     u9851:
  7145  000A50  EF3E  F005         	goto	l7476
  7146  000A54                     u9850:
  7147  000A54                     
  7148                           ; BSR set to: 1
  7149  000A54  C0AC  F012         	movff	powf@y,___flneg@f1
  7150  000A58  C0AD  F013         	movff	powf@y+1,___flneg@f1+1
  7151  000A5C  C0AE  F014         	movff	powf@y+2,___flneg@f1+2
  7152  000A60  C0AF  F015         	movff	powf@y+3,___flneg@f1+3
  7153  000A64  EC76  F035         	call	___flneg	;wreg free
  7154  000A68  C012  F0A8         	movff	?___flneg,?_powf
  7155  000A6C  C013  F0A9         	movff	?___flneg+1,?_powf+1
  7156  000A70  C014  F0AA         	movff	?___flneg+2,?_powf+2
  7157  000A74  C015  F0AB         	movff	?___flneg+3,?_powf+3
  7158  000A78  EF53  F018         	goto	l1252
  7159  000A7C                     l7476:
  7160                           
  7161                           ; BSR set to: 1
  7162  000A7C  0E00               	movlw	0
  7163  000A7E  0100               	movlb	0	; () banked
  7164  000A80  6FA8               	movwf	?_powf& (0+255),b
  7165  000A82  0E00               	movlw	0
  7166  000A84  6FA9               	movwf	(?_powf+1)& (0+255),b
  7167  000A86  0E00               	movlw	0
  7168  000A88  6FAA               	movwf	(?_powf+2)& (0+255),b
  7169  000A8A  0E00               	movlw	0
  7170  000A8C  6FAB               	movwf	(?_powf+3)& (0+255),b
  7171  000A8E  EF53  F018         	goto	l1252
  7172  000A92                     l7480:
  7173                           
  7174                           ; BSR set to: 1
  7175  000A92  0E80               	movlw	128
  7176  000A94  1992               	xorwf	(powf@iy+2)& (0+255),w,b
  7177  000A96  E109               	bnz	u9861
  7178  000A98  0E3F               	movlw	63
  7179  000A9A  1993               	xorwf	(powf@iy+3)& (0+255),w,b
  7180  000A9C  1190               	iorwf	powf@iy& (0+255),w,b
  7181  000A9E  1191               	iorwf	(powf@iy+1)& (0+255),w,b
  7182  000AA0  A4D8               	btfss	status,2,c
  7183  000AA2  EF55  F005         	goto	u9861
  7184  000AA6  EF57  F005         	goto	u9860
  7185  000AAA                     u9861:
  7186  000AAA  EF84  F005         	goto	l7486
  7187  000AAE                     u9860:
  7188  000AAE                     
  7189                           ; BSR set to: 1
  7190  000AAE  BF7F               	btfsc	(powf@hy+3)& (0+255),7,b
  7191  000AB0  EF5E  F005         	goto	u9870
  7192  000AB4  EF5C  F005         	goto	u9871
  7193  000AB8                     u9871:
  7194  000AB8  EF7A  F005         	goto	l1277
  7195  000ABC                     u9870:
  7196  000ABC                     
  7197                           ; BSR set to: 1
  7198  000ABC  0E00               	movlw	0
  7199  000ABE  6E47               	movwf	___fldiv@b^0,c
  7200  000AC0  0E00               	movlw	0
  7201  000AC2  6E48               	movwf	(___fldiv@b+1)^0,c
  7202  000AC4  0E80               	movlw	128
  7203  000AC6  6E49               	movwf	(___fldiv@b+2)^0,c
  7204  000AC8  0E3F               	movlw	63
  7205  000ACA  6E4A               	movwf	(___fldiv@b+3)^0,c
  7206  000ACC  C0A8  F04B         	movff	powf@x,___fldiv@a
  7207  000AD0  C0A9  F04C         	movff	powf@x+1,___fldiv@a+1
  7208  000AD4  C0AA  F04D         	movff	powf@x+2,___fldiv@a+2
  7209  000AD8  C0AB  F04E         	movff	powf@x+3,___fldiv@a+3
  7210  000ADC  ECA0  F027         	call	___fldiv	;wreg free
  7211  000AE0  C047  F0A8         	movff	?___fldiv,?_powf
  7212  000AE4  C048  F0A9         	movff	?___fldiv+1,?_powf+1
  7213  000AE8  C049  F0AA         	movff	?___fldiv+2,?_powf+2
  7214  000AEC  C04A  F0AB         	movff	?___fldiv+3,?_powf+3
  7215  000AF0  EF53  F018         	goto	l1252
  7216  000AF4                     l1277:
  7217                           
  7218                           ; BSR set to: 1
  7219  000AF4  C0A8  F0A8         	movff	powf@x,?_powf
  7220  000AF8  C0A9  F0A9         	movff	powf@x+1,?_powf+1
  7221  000AFC  C0AA  F0AA         	movff	powf@x+2,?_powf+2
  7222  000B00  C0AB  F0AB         	movff	powf@x+3,?_powf+3
  7223  000B04  EF53  F018         	goto	l1252
  7224  000B08                     l7486:
  7225                           
  7226                           ; BSR set to: 1
  7227  000B08  0E40               	movlw	64
  7228  000B0A  197F               	xorwf	(powf@hy+3)& (0+255),w,b
  7229  000B0C  117C               	iorwf	powf@hy& (0+255),w,b
  7230  000B0E  117D               	iorwf	(powf@hy+1)& (0+255),w,b
  7231  000B10  117E               	iorwf	(powf@hy+2)& (0+255),w,b
  7232  000B12  A4D8               	btfss	status,2,c
  7233  000B14  EF8E  F005         	goto	u9881
  7234  000B18  EF90  F005         	goto	u9880
  7235  000B1C                     u9881:
  7236  000B1C  EFAC  F005         	goto	l7492
  7237  000B20                     u9880:
  7238  000B20                     
  7239                           ; BSR set to: 1
  7240  000B20  C0A8  F026         	movff	powf@x,___flmul@b
  7241  000B24  C0A9  F027         	movff	powf@x+1,___flmul@b+1
  7242  000B28  C0AA  F028         	movff	powf@x+2,___flmul@b+2
  7243  000B2C  C0AB  F029         	movff	powf@x+3,___flmul@b+3
  7244  000B30  C0A8  F02A         	movff	powf@x,___flmul@a
  7245  000B34  C0A9  F02B         	movff	powf@x+1,___flmul@a+1
  7246  000B38  C0AA  F02C         	movff	powf@x+2,___flmul@a+2
  7247  000B3C  C0AB  F02D         	movff	powf@x+3,___flmul@a+3
  7248  000B40  EC8B  F025         	call	___flmul	;wreg free
  7249  000B44  C026  F0A8         	movff	?___flmul,?_powf
  7250  000B48  C027  F0A9         	movff	?___flmul+1,?_powf+1
  7251  000B4C  C028  F0AA         	movff	?___flmul+2,?_powf+2
  7252  000B50  C029  F0AB         	movff	?___flmul+3,?_powf+3
  7253  000B54  EF53  F018         	goto	l1252
  7254  000B58                     l7492:
  7255                           
  7256                           ; BSR set to: 1
  7257  000B58  0E3F               	movlw	63
  7258  000B5A  197F               	xorwf	(powf@hy+3)& (0+255),w,b
  7259  000B5C  117C               	iorwf	powf@hy& (0+255),w,b
  7260  000B5E  117D               	iorwf	(powf@hy+1)& (0+255),w,b
  7261  000B60  117E               	iorwf	(powf@hy+2)& (0+255),w,b
  7262  000B62  A4D8               	btfss	status,2,c
  7263  000B64  EFB6  F005         	goto	u9891
  7264  000B68  EFB8  F005         	goto	u9890
  7265  000B6C                     u9891:
  7266  000B6C  EFD3  F005         	goto	l7500
  7267  000B70                     u9890:
  7268  000B70                     
  7269                           ; BSR set to: 1
  7270  000B70  BF63               	btfsc	(powf@hx+3)& (0+255),7,b
  7271  000B72  EFBD  F005         	goto	u9901
  7272  000B76  EFBF  F005         	goto	u9900
  7273  000B7A                     u9901:
  7274  000B7A  EFD3  F005         	goto	l7500
  7275  000B7E                     u9900:
  7276  000B7E                     
  7277                           ; BSR set to: 1
  7278  000B7E  C0A8  F053         	movff	powf@x,sqrtf@x
  7279  000B82  C0A9  F054         	movff	powf@x+1,sqrtf@x+1
  7280  000B86  C0AA  F055         	movff	powf@x+2,sqrtf@x+2
  7281  000B8A  C0AB  F056         	movff	powf@x+3,sqrtf@x+3
  7282  000B8E  EC94  F01E         	call	_sqrtf	;wreg free
  7283  000B92  C053  F0A8         	movff	?_sqrtf,?_powf
  7284  000B96  C054  F0A9         	movff	?_sqrtf+1,?_powf+1
  7285  000B9A  C055  F0AA         	movff	?_sqrtf+2,?_powf+2
  7286  000B9E  C056  F0AB         	movff	?_sqrtf+3,?_powf+3
  7287  000BA2  EF53  F018         	goto	l1252
  7288  000BA6                     l7500:
  7289                           
  7290                           ; BSR set to: 1
  7291  000BA6  C0A8  F012         	movff	powf@x,fabsf@x
  7292  000BAA  C0A9  F013         	movff	powf@x+1,fabsf@x+1
  7293  000BAE  C0AA  F014         	movff	powf@x+2,fabsf@x+2
  7294  000BB2  C0AB  F015         	movff	powf@x+3,fabsf@x+3
  7295  000BB6  ECC8  F035         	call	_fabsf	;wreg free
  7296  000BBA  C012  F170         	movff	?_fabsf,powf@ax
  7297  000BBE  C013  F171         	movff	?_fabsf+1,powf@ax+1
  7298  000BC2  C014  F172         	movff	?_fabsf+2,powf@ax+2
  7299  000BC6  C015  F173         	movff	?_fabsf+3,powf@ax+3
  7300  000BCA  0E80               	movlw	128
  7301  000BCC  0101               	movlb	1	; () banked
  7302  000BCE  19AA               	xorwf	(powf@ix+2)& (0+255),w,b
  7303  000BD0  E10B               	bnz	u9910
  7304  000BD2  0E7F               	movlw	127
  7305  000BD4  19AB               	xorwf	(powf@ix+3)& (0+255),w,b
  7306  000BD6  11A8               	iorwf	powf@ix& (0+255),w,b
  7307  000BD8  11A9               	iorwf	(powf@ix+1)& (0+255),w,b
  7308  000BDA  B4D8               	btfsc	status,2,c
  7309  000BDC  EFF2  F005         	goto	u9911
  7310  000BE0  EFF4  F005         	goto	u9910
  7311  000BE4                     u9911:
  7312  000BE4  EF0D  F006         	goto	l1285
  7313  000BE8                     u9910:
  7314  000BE8                     
  7315                           ; BSR set to: 1
  7316  000BE8  51A8               	movf	powf@ix& (0+255),w,b
  7317  000BEA  11A9               	iorwf	(powf@ix+1)& (0+255),w,b
  7318  000BEC  11AA               	iorwf	(powf@ix+2)& (0+255),w,b
  7319  000BEE  11AB               	iorwf	(powf@ix+3)& (0+255),w,b
  7320  000BF0  B4D8               	btfsc	status,2,c
  7321  000BF2  EFFD  F005         	goto	u9921
  7322  000BF6  EFFF  F005         	goto	u9920
  7323  000BFA                     u9921:
  7324  000BFA  EF0D  F006         	goto	l1285
  7325  000BFE                     u9920:
  7326  000BFE                     
  7327                           ; BSR set to: 1
  7328  000BFE  0E80               	movlw	128
  7329  000C00  19AA               	xorwf	(powf@ix+2)& (0+255),w,b
  7330  000C02  E109               	bnz	u9931
  7331  000C04  0E3F               	movlw	63
  7332  000C06  19AB               	xorwf	(powf@ix+3)& (0+255),w,b
  7333  000C08  11A8               	iorwf	powf@ix& (0+255),w,b
  7334  000C0A  11A9               	iorwf	(powf@ix+1)& (0+255),w,b
  7335  000C0C  A4D8               	btfss	status,2,c
  7336  000C0E  EF0B  F006         	goto	u9931
  7337  000C12  EF0D  F006         	goto	u9930
  7338  000C16                     u9931:
  7339  000C16  EFD8  F006         	goto	l7526
  7340  000C1A                     u9930:
  7341  000C1A                     l1285:
  7342                           
  7343                           ; BSR set to: 1
  7344  000C1A  C170  F1B4         	movff	powf@ax,powf@z
  7345  000C1E  C171  F1B5         	movff	powf@ax+1,powf@z+1
  7346  000C22  C172  F1B6         	movff	powf@ax+2,powf@z+2
  7347  000C26  C173  F1B7         	movff	powf@ax+3,powf@z+3
  7348  000C2A                     
  7349                           ; BSR set to: 1
  7350  000C2A  BF7F               	btfsc	(powf@hy+3)& (0+255),7,b
  7351  000C2C  EF1C  F006         	goto	u9940
  7352  000C30  EF1A  F006         	goto	u9941
  7353  000C34                     u9941:
  7354  000C34  EF36  F006         	goto	l7512
  7355  000C38                     u9940:
  7356  000C38                     
  7357                           ; BSR set to: 1
  7358  000C38  0E00               	movlw	0
  7359  000C3A  6E47               	movwf	___fldiv@b^0,c
  7360  000C3C  0E00               	movlw	0
  7361  000C3E  6E48               	movwf	(___fldiv@b+1)^0,c
  7362  000C40  0E80               	movlw	128
  7363  000C42  6E49               	movwf	(___fldiv@b+2)^0,c
  7364  000C44  0E3F               	movlw	63
  7365  000C46  6E4A               	movwf	(___fldiv@b+3)^0,c
  7366  000C48  C1B4  F04B         	movff	powf@z,___fldiv@a
  7367  000C4C  C1B5  F04C         	movff	powf@z+1,___fldiv@a+1
  7368  000C50  C1B6  F04D         	movff	powf@z+2,___fldiv@a+2
  7369  000C54  C1B7  F04E         	movff	powf@z+3,___fldiv@a+3
  7370  000C58  ECA0  F027         	call	___fldiv	;wreg free
  7371  000C5C  C047  F1B4         	movff	?___fldiv,powf@z
  7372  000C60  C048  F1B5         	movff	?___fldiv+1,powf@z+1
  7373  000C64  C049  F1B6         	movff	?___fldiv+2,powf@z+2
  7374  000C68  C04A  F1B7         	movff	?___fldiv+3,powf@z+3
  7375  000C6C                     l7512:
  7376  000C6C  0101               	movlb	1	; () banked
  7377  000C6E  BF63               	btfsc	(powf@hx+3)& (0+255),7,b
  7378  000C70  EF3E  F006         	goto	u9950
  7379  000C74  EF3C  F006         	goto	u9951
  7380  000C78                     u9951:
  7381  000C78  EFCE  F006         	goto	l7522
  7382  000C7C                     u9950:
  7383  000C7C                     
  7384                           ; BSR set to: 1
  7385  000C7C  0E00               	movlw	0
  7386  000C7E  25A8               	addwf	powf@ix& (0+255),w,b
  7387  000C80  0100               	movlb	0	; () banked
  7388  000C82  6FB0               	movwf	??_powf& (0+255),b
  7389  000C84  0E00               	movlw	0
  7390  000C86  0101               	movlb	1	; () banked
  7391  000C88  21A9               	addwfc	(powf@ix+1)& (0+255),w,b
  7392  000C8A  0100               	movlb	0	; () banked
  7393  000C8C  6FB1               	movwf	(??_powf+1)& (0+255),b
  7394  000C8E  0E80               	movlw	128
  7395  000C90  0101               	movlb	1	; () banked
  7396  000C92  21AA               	addwfc	(powf@ix+2)& (0+255),w,b
  7397  000C94  0100               	movlb	0	; () banked
  7398  000C96  6FB2               	movwf	(??_powf+2)& (0+255),b
  7399  000C98  0EC0               	movlw	192
  7400  000C9A  0101               	movlb	1	; () banked
  7401  000C9C  21AB               	addwfc	(powf@ix+3)& (0+255),w,b
  7402  000C9E  0100               	movlb	0	; () banked
  7403  000CA0  6FB3               	movwf	(??_powf+3)& (0+255),b
  7404  000CA2  0101               	movlb	1	; () banked
  7405  000CA4  5150               	movf	powf@yisint& (0+255),w,b
  7406  000CA6  0100               	movlb	0	; () banked
  7407  000CA8  11B0               	iorwf	??_powf& (0+255),w,b
  7408  000CAA  6FB4               	movwf	(??_powf+4)& (0+255),b
  7409  000CAC  0101               	movlb	1	; () banked
  7410  000CAE  5151               	movf	(powf@yisint+1)& (0+255),w,b
  7411  000CB0  0100               	movlb	0	; () banked
  7412  000CB2  11B1               	iorwf	(??_powf+1)& (0+255),w,b
  7413  000CB4  6FB5               	movwf	(??_powf+5)& (0+255),b
  7414  000CB6  0101               	movlb	1	; () banked
  7415  000CB8  5152               	movf	(powf@yisint+2)& (0+255),w,b
  7416  000CBA  0100               	movlb	0	; () banked
  7417  000CBC  11B2               	iorwf	(??_powf+2)& (0+255),w,b
  7418  000CBE  6FB6               	movwf	(??_powf+6)& (0+255),b
  7419  000CC0  0101               	movlb	1	; () banked
  7420  000CC2  5153               	movf	(powf@yisint+3)& (0+255),w,b
  7421  000CC4  0100               	movlb	0	; () banked
  7422  000CC6  11B3               	iorwf	(??_powf+3)& (0+255),w,b
  7423  000CC8  6FB7               	movwf	(??_powf+7)& (0+255),b
  7424  000CCA  51B4               	movf	(??_powf+4)& (0+255),w,b
  7425  000CCC  11B5               	iorwf	(??_powf+5)& (0+255),w,b
  7426  000CCE  11B6               	iorwf	(??_powf+6)& (0+255),w,b
  7427  000CD0  11B7               	iorwf	(??_powf+7)& (0+255),w,b
  7428  000CD2  A4D8               	btfss	status,2,c
  7429  000CD4  EF6E  F006         	goto	u9961
  7430  000CD8  EF70  F006         	goto	u9960
  7431  000CDC                     u9961:
  7432  000CDC  EFB0  F006         	goto	l7518
  7433  000CE0                     u9960:
  7434  000CE0                     
  7435                           ; BSR set to: 0
  7436  000CE0  C1B4  F043         	movff	powf@z,___flsub@a
  7437  000CE4  C1B5  F044         	movff	powf@z+1,___flsub@a+1
  7438  000CE8  C1B6  F045         	movff	powf@z+2,___flsub@a+2
  7439  000CEC  C1B7  F046         	movff	powf@z+3,___flsub@a+3
  7440  000CF0  C1B4  F03F         	movff	powf@z,___flsub@b
  7441  000CF4  C1B5  F040         	movff	powf@z+1,___flsub@b+1
  7442  000CF8  C1B6  F041         	movff	powf@z+2,___flsub@b+2
  7443  000CFC  C1B7  F042         	movff	powf@z+3,___flsub@b+3
  7444  000D00  ECB6  F034         	call	___flsub	;wreg free
  7445  000D04  C03F  F047         	movff	?___flsub,___fldiv@b
  7446  000D08  C040  F048         	movff	?___flsub+1,___fldiv@b+1
  7447  000D0C  C041  F049         	movff	?___flsub+2,___fldiv@b+2
  7448  000D10  C042  F04A         	movff	?___flsub+3,___fldiv@b+3
  7449  000D14  C1B4  F043         	movff	powf@z,___flsub@a
  7450  000D18  C1B5  F044         	movff	powf@z+1,___flsub@a+1
  7451  000D1C  C1B6  F045         	movff	powf@z+2,___flsub@a+2
  7452  000D20  C1B7  F046         	movff	powf@z+3,___flsub@a+3
  7453  000D24  C1B4  F03F         	movff	powf@z,___flsub@b
  7454  000D28  C1B5  F040         	movff	powf@z+1,___flsub@b+1
  7455  000D2C  C1B6  F041         	movff	powf@z+2,___flsub@b+2
  7456  000D30  C1B7  F042         	movff	powf@z+3,___flsub@b+3
  7457  000D34  ECB6  F034         	call	___flsub	;wreg free
  7458  000D38  C03F  F04B         	movff	?___flsub,___fldiv@a
  7459  000D3C  C040  F04C         	movff	?___flsub+1,___fldiv@a+1
  7460  000D40  C041  F04D         	movff	?___flsub+2,___fldiv@a+2
  7461  000D44  C042  F04E         	movff	?___flsub+3,___fldiv@a+3
  7462  000D48  ECA0  F027         	call	___fldiv	;wreg free
  7463  000D4C  C047  F1B4         	movff	?___fldiv,powf@z
  7464  000D50  C048  F1B5         	movff	?___fldiv+1,powf@z+1
  7465  000D54  C049  F1B6         	movff	?___fldiv+2,powf@z+2
  7466  000D58  C04A  F1B7         	movff	?___fldiv+3,powf@z+3
  7467  000D5C  EFCE  F006         	goto	l7522
  7468  000D60                     l7518:
  7469                           
  7470                           ; BSR set to: 0
  7471  000D60  0101               	movlb	1	; () banked
  7472  000D62  0550               	decf	powf@yisint& (0+255),w,b
  7473  000D64  1151               	iorwf	(powf@yisint+1)& (0+255),w,b
  7474  000D66  1152               	iorwf	(powf@yisint+2)& (0+255),w,b
  7475  000D68  1153               	iorwf	(powf@yisint+3)& (0+255),w,b
  7476  000D6A  A4D8               	btfss	status,2,c
  7477  000D6C  EFBA  F006         	goto	u9971
  7478  000D70  EFBC  F006         	goto	u9970
  7479  000D74                     u9971:
  7480  000D74  EFCE  F006         	goto	l7522
  7481  000D78                     u9970:
  7482  000D78                     
  7483                           ; BSR set to: 1
  7484  000D78  C1B4  F012         	movff	powf@z,___flneg@f1
  7485  000D7C  C1B5  F013         	movff	powf@z+1,___flneg@f1+1
  7486  000D80  C1B6  F014         	movff	powf@z+2,___flneg@f1+2
  7487  000D84  C1B7  F015         	movff	powf@z+3,___flneg@f1+3
  7488  000D88  EC76  F035         	call	___flneg	;wreg free
  7489  000D8C  C012  F1B4         	movff	?___flneg,powf@z
  7490  000D90  C013  F1B5         	movff	?___flneg+1,powf@z+1
  7491  000D94  C014  F1B6         	movff	?___flneg+2,powf@z+2
  7492  000D98  C015  F1B7         	movff	?___flneg+3,powf@z+3
  7493  000D9C                     l7522:
  7494  000D9C  C1B4  F0A8         	movff	powf@z,?_powf
  7495  000DA0  C1B5  F0A9         	movff	powf@z+1,?_powf+1
  7496  000DA4  C1B6  F0AA         	movff	powf@z+2,?_powf+2
  7497  000DA8  C1B7  F0AB         	movff	powf@z+3,?_powf+3
  7498  000DAC  EF53  F018         	goto	l1252
  7499  000DB0                     l7526:
  7500                           
  7501                           ; BSR set to: 1
  7502  000DB0  0E00               	movlw	0
  7503  000DB2  6F88               	movwf	powf@sn& (0+255),b
  7504  000DB4  0E00               	movlw	0
  7505  000DB6  6F89               	movwf	(powf@sn+1)& (0+255),b
  7506  000DB8  0E80               	movlw	128
  7507  000DBA  6F8A               	movwf	(powf@sn+2)& (0+255),b
  7508  000DBC  0E3F               	movlw	63
  7509  000DBE  6F8B               	movwf	(powf@sn+3)& (0+255),b
  7510  000DC0                     
  7511                           ; BSR set to: 1
  7512  000DC0  BF63               	btfsc	(powf@hx+3)& (0+255),7,b
  7513  000DC2  EFE7  F006         	goto	u9980
  7514  000DC6  EFE5  F006         	goto	u9981
  7515  000DCA                     u9981:
  7516  000DCA  EF45  F007         	goto	l7540
  7517  000DCE                     u9980:
  7518  000DCE                     
  7519                           ; BSR set to: 1
  7520  000DCE  5150               	movf	powf@yisint& (0+255),w,b
  7521  000DD0  1151               	iorwf	(powf@yisint+1)& (0+255),w,b
  7522  000DD2  1152               	iorwf	(powf@yisint+2)& (0+255),w,b
  7523  000DD4  1153               	iorwf	(powf@yisint+3)& (0+255),w,b
  7524  000DD6  A4D8               	btfss	status,2,c
  7525  000DD8  EFF0  F006         	goto	u9991
  7526  000DDC  EFF2  F006         	goto	u9990
  7527  000DE0                     u9991:
  7528  000DE0  EF32  F007         	goto	l7536
  7529  000DE4                     u9990:
  7530  000DE4                     
  7531                           ; BSR set to: 1
  7532  000DE4  C0A8  F043         	movff	powf@x,___flsub@a
  7533  000DE8  C0A9  F044         	movff	powf@x+1,___flsub@a+1
  7534  000DEC  C0AA  F045         	movff	powf@x+2,___flsub@a+2
  7535  000DF0  C0AB  F046         	movff	powf@x+3,___flsub@a+3
  7536  000DF4  C0A8  F03F         	movff	powf@x,___flsub@b
  7537  000DF8  C0A9  F040         	movff	powf@x+1,___flsub@b+1
  7538  000DFC  C0AA  F041         	movff	powf@x+2,___flsub@b+2
  7539  000E00  C0AB  F042         	movff	powf@x+3,___flsub@b+3
  7540  000E04  ECB6  F034         	call	___flsub	;wreg free
  7541  000E08  C03F  F047         	movff	?___flsub,___fldiv@b
  7542  000E0C  C040  F048         	movff	?___flsub+1,___fldiv@b+1
  7543  000E10  C041  F049         	movff	?___flsub+2,___fldiv@b+2
  7544  000E14  C042  F04A         	movff	?___flsub+3,___fldiv@b+3
  7545  000E18  C0A8  F043         	movff	powf@x,___flsub@a
  7546  000E1C  C0A9  F044         	movff	powf@x+1,___flsub@a+1
  7547  000E20  C0AA  F045         	movff	powf@x+2,___flsub@a+2
  7548  000E24  C0AB  F046         	movff	powf@x+3,___flsub@a+3
  7549  000E28  C0A8  F03F         	movff	powf@x,___flsub@b
  7550  000E2C  C0A9  F040         	movff	powf@x+1,___flsub@b+1
  7551  000E30  C0AA  F041         	movff	powf@x+2,___flsub@b+2
  7552  000E34  C0AB  F042         	movff	powf@x+3,___flsub@b+3
  7553  000E38  ECB6  F034         	call	___flsub	;wreg free
  7554  000E3C  C03F  F04B         	movff	?___flsub,___fldiv@a
  7555  000E40  C040  F04C         	movff	?___flsub+1,___fldiv@a+1
  7556  000E44  C041  F04D         	movff	?___flsub+2,___fldiv@a+2
  7557  000E48  C042  F04E         	movff	?___flsub+3,___fldiv@a+3
  7558  000E4C  ECA0  F027         	call	___fldiv	;wreg free
  7559  000E50  C047  F0A8         	movff	?___fldiv,?_powf
  7560  000E54  C048  F0A9         	movff	?___fldiv+1,?_powf+1
  7561  000E58  C049  F0AA         	movff	?___fldiv+2,?_powf+2
  7562  000E5C  C04A  F0AB         	movff	?___fldiv+3,?_powf+3
  7563  000E60  EF53  F018         	goto	l1252
  7564  000E64                     l7536:
  7565                           
  7566                           ; BSR set to: 1
  7567  000E64  0550               	decf	powf@yisint& (0+255),w,b
  7568  000E66  1151               	iorwf	(powf@yisint+1)& (0+255),w,b
  7569  000E68  1152               	iorwf	(powf@yisint+2)& (0+255),w,b
  7570  000E6A  1153               	iorwf	(powf@yisint+3)& (0+255),w,b
  7571  000E6C  A4D8               	btfss	status,2,c
  7572  000E6E  EF3B  F007         	goto	u10001
  7573  000E72  EF3D  F007         	goto	u10000
  7574  000E76                     u10001:
  7575  000E76  EF45  F007         	goto	l7540
  7576  000E7A                     u10000:
  7577  000E7A                     
  7578                           ; BSR set to: 1
  7579  000E7A  0E00               	movlw	0
  7580  000E7C  6F88               	movwf	powf@sn& (0+255),b
  7581  000E7E  0E00               	movlw	0
  7582  000E80  6F89               	movwf	(powf@sn+1)& (0+255),b
  7583  000E82  0E80               	movlw	128
  7584  000E84  6F8A               	movwf	(powf@sn+2)& (0+255),b
  7585  000E86  0EBF               	movlw	191
  7586  000E88  6F8B               	movwf	(powf@sn+3)& (0+255),b
  7587  000E8A                     l7540:
  7588                           
  7589                           ; BSR set to: 1
  7590  000E8A  BF93               	btfsc	(powf@iy+3)& (0+255),7,b
  7591  000E8C  EF54  F007         	goto	u10011
  7592  000E90  0590               	decf	powf@iy& (0+255),w,b
  7593  000E92  0E00               	movlw	0
  7594  000E94  5991               	subwfb	(powf@iy+1)& (0+255),w,b
  7595  000E96  0E00               	movlw	0
  7596  000E98  5992               	subwfb	(powf@iy+2)& (0+255),w,b
  7597  000E9A  0E4D               	movlw	77
  7598  000E9C  5993               	subwfb	(powf@iy+3)& (0+255),w,b
  7599  000E9E  A0D8               	btfss	status,0,c
  7600  000EA0  EF54  F007         	goto	u10011
  7601  000EA4  EF56  F007         	goto	u10010
  7602  000EA8                     u10011:
  7603  000EA8  EFDB  F009         	goto	l7588
  7604  000EAC                     u10010:
  7605  000EAC                     
  7606                           ; BSR set to: 1
  7607  000EAC  BFAB               	btfsc	(powf@ix+3)& (0+255),7,b
  7608  000EAE  EF68  F007         	goto	u10020
  7609  000EB2  0EF8               	movlw	248
  7610  000EB4  5DA8               	subwf	powf@ix& (0+255),w,b
  7611  000EB6  0EFF               	movlw	255
  7612  000EB8  59A9               	subwfb	(powf@ix+1)& (0+255),w,b
  7613  000EBA  0E7F               	movlw	127
  7614  000EBC  59AA               	subwfb	(powf@ix+2)& (0+255),w,b
  7615  000EBE  0E3F               	movlw	63
  7616  000EC0  59AB               	subwfb	(powf@ix+3)& (0+255),w,b
  7617  000EC2  B0D8               	btfsc	status,0,c
  7618  000EC4  EF66  F007         	goto	u10021
  7619  000EC8  EF68  F007         	goto	u10020
  7620  000ECC                     u10021:
  7621  000ECC  EFDB  F007         	goto	l7552
  7622  000ED0                     u10020:
  7623  000ED0                     
  7624                           ; BSR set to: 1
  7625  000ED0  BF7F               	btfsc	(powf@hy+3)& (0+255),7,b
  7626  000ED2  EF6D  F007         	goto	u10031
  7627  000ED6  EF6F  F007         	goto	u10030
  7628  000EDA                     u10031:
  7629  000EDA  EFA5  F007         	goto	l7548
  7630  000EDE                     u10030:
  7631  000EDE                     
  7632                           ; BSR set to: 1
  7633  000EDE  0E60               	movlw	96
  7634  000EE0  6E2A               	movwf	___flmul@a^0,c
  7635  000EE2  0E42               	movlw	66
  7636  000EE4  6E2B               	movwf	(___flmul@a+1)^0,c
  7637  000EE6  0EA2               	movlw	162
  7638  000EE8  6E2C               	movwf	(___flmul@a+2)^0,c
  7639  000EEA  0E0D               	movlw	13
  7640  000EEC  6E2D               	movwf	(___flmul@a+3)^0,c
  7641  000EEE  C188  F026         	movff	powf@sn,___flmul@b
  7642  000EF2  C189  F027         	movff	powf@sn+1,___flmul@b+1
  7643  000EF6  C18A  F028         	movff	powf@sn+2,___flmul@b+2
  7644  000EFA  C18B  F029         	movff	powf@sn+3,___flmul@b+3
  7645  000EFE  EC8B  F025         	call	___flmul	;wreg free
  7646  000F02  C026  F1A4         	movff	?___flmul,_powf$1982
  7647  000F06  C027  F1A5         	movff	?___flmul+1,_powf$1982+1
  7648  000F0A  C028  F1A6         	movff	?___flmul+2,_powf$1982+2
  7649  000F0E  C029  F1A7         	movff	?___flmul+3,_powf$1982+3
  7650  000F12  C1A4  F026         	movff	_powf$1982,___flmul@b
  7651  000F16  C1A5  F027         	movff	_powf$1982+1,___flmul@b+1
  7652  000F1A  C1A6  F028         	movff	_powf$1982+2,___flmul@b+2
  7653  000F1E  C1A7  F029         	movff	_powf$1982+3,___flmul@b+3
  7654  000F22  0E60               	movlw	96
  7655  000F24  6E2A               	movwf	___flmul@a^0,c
  7656  000F26  0E42               	movlw	66
  7657  000F28  6E2B               	movwf	(___flmul@a+1)^0,c
  7658  000F2A  0EA2               	movlw	162
  7659  000F2C  6E2C               	movwf	(___flmul@a+2)^0,c
  7660  000F2E  0E0D               	movlw	13
  7661  000F30  6E2D               	movwf	(___flmul@a+3)^0,c
  7662  000F32  EC8B  F025         	call	___flmul	;wreg free
  7663  000F36  C026  F0A8         	movff	?___flmul,?_powf
  7664  000F3A  C027  F0A9         	movff	?___flmul+1,?_powf+1
  7665  000F3E  C028  F0AA         	movff	?___flmul+2,?_powf+2
  7666  000F42  C029  F0AB         	movff	?___flmul+3,?_powf+3
  7667  000F46  EF53  F018         	goto	l1252
  7668  000F4A                     l7548:
  7669                           
  7670                           ; BSR set to: 1
  7671  000F4A  0ECA               	movlw	202
  7672  000F4C  6E2A               	movwf	___flmul@a^0,c
  7673  000F4E  0EF2               	movlw	242
  7674  000F50  6E2B               	movwf	(___flmul@a+1)^0,c
  7675  000F52  0E49               	movlw	73
  7676  000F54  6E2C               	movwf	(___flmul@a+2)^0,c
  7677  000F56  0E71               	movlw	113
  7678  000F58  6E2D               	movwf	(___flmul@a+3)^0,c
  7679  000F5A  C188  F026         	movff	powf@sn,___flmul@b
  7680  000F5E  C189  F027         	movff	powf@sn+1,___flmul@b+1
  7681  000F62  C18A  F028         	movff	powf@sn+2,___flmul@b+2
  7682  000F66  C18B  F029         	movff	powf@sn+3,___flmul@b+3
  7683  000F6A  EC8B  F025         	call	___flmul	;wreg free
  7684  000F6E  C026  F1A4         	movff	?___flmul,_powf$1982
  7685  000F72  C027  F1A5         	movff	?___flmul+1,_powf$1982+1
  7686  000F76  C028  F1A6         	movff	?___flmul+2,_powf$1982+2
  7687  000F7A  C029  F1A7         	movff	?___flmul+3,_powf$1982+3
  7688  000F7E  C1A4  F026         	movff	_powf$1982,___flmul@b
  7689  000F82  C1A5  F027         	movff	_powf$1982+1,___flmul@b+1
  7690  000F86  C1A6  F028         	movff	_powf$1982+2,___flmul@b+2
  7691  000F8A  C1A7  F029         	movff	_powf$1982+3,___flmul@b+3
  7692  000F8E  0ECA               	movlw	202
  7693  000F90  6E2A               	movwf	___flmul@a^0,c
  7694  000F92  0EF2               	movlw	242
  7695  000F94  6E2B               	movwf	(___flmul@a+1)^0,c
  7696  000F96  0E49               	movlw	73
  7697  000F98  6E2C               	movwf	(___flmul@a+2)^0,c
  7698  000F9A  0E71               	movlw	113
  7699  000F9C  6E2D               	movwf	(___flmul@a+3)^0,c
  7700  000F9E  EC8B  F025         	call	___flmul	;wreg free
  7701  000FA2  C026  F0A8         	movff	?___flmul,?_powf
  7702  000FA6  C027  F0A9         	movff	?___flmul+1,?_powf+1
  7703  000FAA  C028  F0AA         	movff	?___flmul+2,?_powf+2
  7704  000FAE  C029  F0AB         	movff	?___flmul+3,?_powf+3
  7705  000FB2  EF53  F018         	goto	l1252
  7706  000FB6                     l7552:
  7707                           
  7708                           ; BSR set to: 1
  7709  000FB6  BFAB               	btfsc	(powf@ix+3)& (0+255),7,b
  7710  000FB8  EFEB  F007         	goto	u10041
  7711  000FBC  0E08               	movlw	8
  7712  000FBE  5DA8               	subwf	powf@ix& (0+255),w,b
  7713  000FC0  0E00               	movlw	0
  7714  000FC2  59A9               	subwfb	(powf@ix+1)& (0+255),w,b
  7715  000FC4  0E80               	movlw	128
  7716  000FC6  59AA               	subwfb	(powf@ix+2)& (0+255),w,b
  7717  000FC8  0E3F               	movlw	63
  7718  000FCA  59AB               	subwfb	(powf@ix+3)& (0+255),w,b
  7719  000FCC  A0D8               	btfss	status,0,c
  7720  000FCE  EFEB  F007         	goto	u10041
  7721  000FD2  EFED  F007         	goto	u10040
  7722  000FD6                     u10041:
  7723  000FD6  EF68  F008         	goto	l7562
  7724  000FDA                     u10040:
  7725  000FDA                     
  7726                           ; BSR set to: 1
  7727  000FDA  BF7F               	btfsc	(powf@hy+3)& (0+255),7,b
  7728  000FDC  EFFC  F007         	goto	u10050
  7729  000FE0  517F               	movf	(powf@hy+3)& (0+255),w,b
  7730  000FE2  117E               	iorwf	(powf@hy+2)& (0+255),w,b
  7731  000FE4  117D               	iorwf	(powf@hy+1)& (0+255),w,b
  7732  000FE6  E106               	bnz	u10051
  7733  000FE8  057C               	decf	powf@hy& (0+255),w,b
  7734  000FEA  B0D8               	btfsc	status,0,c
  7735  000FEC  EFFA  F007         	goto	u10051
  7736  000FF0  EFFC  F007         	goto	u10050
  7737  000FF4                     u10051:
  7738  000FF4  EF32  F008         	goto	l7558
  7739  000FF8                     u10050:
  7740  000FF8                     
  7741                           ; BSR set to: 1
  7742  000FF8  0E60               	movlw	96
  7743  000FFA  6E2A               	movwf	___flmul@a^0,c
  7744  000FFC  0E42               	movlw	66
  7745  000FFE  6E2B               	movwf	(___flmul@a+1)^0,c
  7746  001000  0EA2               	movlw	162
  7747  001002  6E2C               	movwf	(___flmul@a+2)^0,c
  7748  001004  0E0D               	movlw	13
  7749  001006  6E2D               	movwf	(___flmul@a+3)^0,c
  7750  001008  C188  F026         	movff	powf@sn,___flmul@b
  7751  00100C  C189  F027         	movff	powf@sn+1,___flmul@b+1
  7752  001010  C18A  F028         	movff	powf@sn+2,___flmul@b+2
  7753  001014  C18B  F029         	movff	powf@sn+3,___flmul@b+3
  7754  001018  EC8B  F025         	call	___flmul	;wreg free
  7755  00101C  C026  F1A4         	movff	?___flmul,_powf$1982
  7756  001020  C027  F1A5         	movff	?___flmul+1,_powf$1982+1
  7757  001024  C028  F1A6         	movff	?___flmul+2,_powf$1982+2
  7758  001028  C029  F1A7         	movff	?___flmul+3,_powf$1982+3
  7759  00102C  C1A4  F026         	movff	_powf$1982,___flmul@b
  7760  001030  C1A5  F027         	movff	_powf$1982+1,___flmul@b+1
  7761  001034  C1A6  F028         	movff	_powf$1982+2,___flmul@b+2
  7762  001038  C1A7  F029         	movff	_powf$1982+3,___flmul@b+3
  7763  00103C  0E60               	movlw	96
  7764  00103E  6E2A               	movwf	___flmul@a^0,c
  7765  001040  0E42               	movlw	66
  7766  001042  6E2B               	movwf	(___flmul@a+1)^0,c
  7767  001044  0EA2               	movlw	162
  7768  001046  6E2C               	movwf	(___flmul@a+2)^0,c
  7769  001048  0E0D               	movlw	13
  7770  00104A  6E2D               	movwf	(___flmul@a+3)^0,c
  7771  00104C  EC8B  F025         	call	___flmul	;wreg free
  7772  001050  C026  F0A8         	movff	?___flmul,?_powf
  7773  001054  C027  F0A9         	movff	?___flmul+1,?_powf+1
  7774  001058  C028  F0AA         	movff	?___flmul+2,?_powf+2
  7775  00105C  C029  F0AB         	movff	?___flmul+3,?_powf+3
  7776  001060  EF53  F018         	goto	l1252
  7777  001064                     l7558:
  7778                           
  7779                           ; BSR set to: 1
  7780  001064  0ECA               	movlw	202
  7781  001066  6E2A               	movwf	___flmul@a^0,c
  7782  001068  0EF2               	movlw	242
  7783  00106A  6E2B               	movwf	(___flmul@a+1)^0,c
  7784  00106C  0E49               	movlw	73
  7785  00106E  6E2C               	movwf	(___flmul@a+2)^0,c
  7786  001070  0E71               	movlw	113
  7787  001072  6E2D               	movwf	(___flmul@a+3)^0,c
  7788  001074  C188  F026         	movff	powf@sn,___flmul@b
  7789  001078  C189  F027         	movff	powf@sn+1,___flmul@b+1
  7790  00107C  C18A  F028         	movff	powf@sn+2,___flmul@b+2
  7791  001080  C18B  F029         	movff	powf@sn+3,___flmul@b+3
  7792  001084  EC8B  F025         	call	___flmul	;wreg free
  7793  001088  C026  F1A4         	movff	?___flmul,_powf$1982
  7794  00108C  C027  F1A5         	movff	?___flmul+1,_powf$1982+1
  7795  001090  C028  F1A6         	movff	?___flmul+2,_powf$1982+2
  7796  001094  C029  F1A7         	movff	?___flmul+3,_powf$1982+3
  7797  001098  C1A4  F026         	movff	_powf$1982,___flmul@b
  7798  00109C  C1A5  F027         	movff	_powf$1982+1,___flmul@b+1
  7799  0010A0  C1A6  F028         	movff	_powf$1982+2,___flmul@b+2
  7800  0010A4  C1A7  F029         	movff	_powf$1982+3,___flmul@b+3
  7801  0010A8  0ECA               	movlw	202
  7802  0010AA  6E2A               	movwf	___flmul@a^0,c
  7803  0010AC  0EF2               	movlw	242
  7804  0010AE  6E2B               	movwf	(___flmul@a+1)^0,c
  7805  0010B0  0E49               	movlw	73
  7806  0010B2  6E2C               	movwf	(___flmul@a+2)^0,c
  7807  0010B4  0E71               	movlw	113
  7808  0010B6  6E2D               	movwf	(___flmul@a+3)^0,c
  7809  0010B8  EC8B  F025         	call	___flmul	;wreg free
  7810  0010BC  C026  F0A8         	movff	?___flmul,?_powf
  7811  0010C0  C027  F0A9         	movff	?___flmul+1,?_powf+1
  7812  0010C4  C028  F0AA         	movff	?___flmul+2,?_powf+2
  7813  0010C8  C029  F0AB         	movff	?___flmul+3,?_powf+3
  7814  0010CC  EF53  F018         	goto	l1252
  7815  0010D0                     l7562:
  7816                           
  7817                           ; BSR set to: 1
  7818  0010D0  C170  F012         	movff	powf@ax,___fladd@b
  7819  0010D4  C171  F013         	movff	powf@ax+1,___fladd@b+1
  7820  0010D8  C172  F014         	movff	powf@ax+2,___fladd@b+2
  7821  0010DC  C173  F015         	movff	powf@ax+3,___fladd@b+3
  7822  0010E0  0E00               	movlw	0
  7823  0010E2  6E16               	movwf	___fladd@a^0,c
  7824  0010E4  0E00               	movlw	0
  7825  0010E6  6E17               	movwf	(___fladd@a+1)^0,c
  7826  0010E8  0E80               	movlw	128
  7827  0010EA  6E18               	movwf	(___fladd@a+2)^0,c
  7828  0010EC  0EBF               	movlw	191
  7829  0010EE  6E19               	movwf	(___fladd@a+3)^0,c
  7830  0010F0  ECF5  F020         	call	___fladd	;wreg free
  7831  0010F4  C012  F1B0         	movff	?___fladd,powf@t
  7832  0010F8  C013  F1B1         	movff	?___fladd+1,powf@t+1
  7833  0010FC  C014  F1B2         	movff	?___fladd+2,powf@t+2
  7834  001100  C015  F1B3         	movff	?___fladd+3,powf@t+3
  7835  001104  0E00               	movlw	0
  7836  001106  6E2A               	movwf	___flmul@a^0,c
  7837  001108  0E00               	movlw	0
  7838  00110A  6E2B               	movwf	(___flmul@a+1)^0,c
  7839  00110C  0E80               	movlw	128
  7840  00110E  6E2C               	movwf	(___flmul@a+2)^0,c
  7841  001110  0E3E               	movlw	62
  7842  001112  6E2D               	movwf	(___flmul@a+3)^0,c
  7843  001114  C1B0  F026         	movff	powf@t,___flmul@b
  7844  001118  C1B1  F027         	movff	powf@t+1,___flmul@b+1
  7845  00111C  C1B2  F028         	movff	powf@t+2,___flmul@b+2
  7846  001120  C1B3  F029         	movff	powf@t+3,___flmul@b+3
  7847  001124  EC8B  F025         	call	___flmul	;wreg free
  7848  001128  C026  F043         	movff	?___flmul,___flsub@a
  7849  00112C  C027  F044         	movff	?___flmul+1,___flsub@a+1
  7850  001130  C028  F045         	movff	?___flmul+2,___flsub@a+2
  7851  001134  C029  F046         	movff	?___flmul+3,___flsub@a+3
  7852  001138  0EAB               	movlw	171
  7853  00113A  6E3F               	movwf	___flsub@b^0,c
  7854  00113C  0EAA               	movlw	170
  7855  00113E  6E40               	movwf	(___flsub@b+1)^0,c
  7856  001140  0EAA               	movlw	170
  7857  001142  6E41               	movwf	(___flsub@b+2)^0,c
  7858  001144  0E3E               	movlw	62
  7859  001146  6E42               	movwf	(___flsub@b+3)^0,c
  7860  001148  ECB6  F034         	call	___flsub	;wreg free
  7861  00114C  C03F  F1A4         	movff	?___flsub,_powf$1982
  7862  001150  C040  F1A5         	movff	?___flsub+1,_powf$1982+1
  7863  001154  C041  F1A6         	movff	?___flsub+2,_powf$1982+2
  7864  001158  C042  F1A7         	movff	?___flsub+3,_powf$1982+3
  7865  00115C  C1B0  F02A         	movff	powf@t,___flmul@a
  7866  001160  C1B1  F02B         	movff	powf@t+1,___flmul@a+1
  7867  001164  C1B2  F02C         	movff	powf@t+2,___flmul@a+2
  7868  001168  C1B3  F02D         	movff	powf@t+3,___flmul@a+3
  7869  00116C  C1B0  F026         	movff	powf@t,___flmul@b
  7870  001170  C1B1  F027         	movff	powf@t+1,___flmul@b+1
  7871  001174  C1B2  F028         	movff	powf@t+2,___flmul@b+2
  7872  001178  C1B3  F029         	movff	powf@t+3,___flmul@b+3
  7873  00117C  EC8B  F025         	call	___flmul	;wreg free
  7874  001180  C026  F154         	movff	?___flmul,_powf$1983
  7875  001184  C027  F155         	movff	?___flmul+1,_powf$1983+1
  7876  001188  C028  F156         	movff	?___flmul+2,_powf$1983+2
  7877  00118C  C029  F157         	movff	?___flmul+3,_powf$1983+3
  7878  001190  C1B0  F02A         	movff	powf@t,___flmul@a
  7879  001194  C1B1  F02B         	movff	powf@t+1,___flmul@a+1
  7880  001198  C1B2  F02C         	movff	powf@t+2,___flmul@a+2
  7881  00119C  C1B3  F02D         	movff	powf@t+3,___flmul@a+3
  7882  0011A0  C1A4  F026         	movff	_powf$1982,___flmul@b
  7883  0011A4  C1A5  F027         	movff	_powf$1982+1,___flmul@b+1
  7884  0011A8  C1A6  F028         	movff	_powf$1982+2,___flmul@b+2
  7885  0011AC  C1A7  F029         	movff	_powf$1982+3,___flmul@b+3
  7886  0011B0  EC8B  F025         	call	___flmul	;wreg free
  7887  0011B4  C026  F043         	movff	?___flmul,___flsub@a
  7888  0011B8  C027  F044         	movff	?___flmul+1,___flsub@a+1
  7889  0011BC  C028  F045         	movff	?___flmul+2,___flsub@a+2
  7890  0011C0  C029  F046         	movff	?___flmul+3,___flsub@a+3
  7891  0011C4  0E00               	movlw	0
  7892  0011C6  6E3F               	movwf	___flsub@b^0,c
  7893  0011C8  0E00               	movlw	0
  7894  0011CA  6E40               	movwf	(___flsub@b+1)^0,c
  7895  0011CC  0E00               	movlw	0
  7896  0011CE  6E41               	movwf	(___flsub@b+2)^0,c
  7897  0011D0  0E3F               	movlw	63
  7898  0011D2  6E42               	movwf	(___flsub@b+3)^0,c
  7899  0011D4  ECB6  F034         	call	___flsub	;wreg free
  7900  0011D8  C03F  F148         	movff	?___flsub,_powf$1984
  7901  0011DC  C040  F149         	movff	?___flsub+1,_powf$1984+1
  7902  0011E0  C041  F14A         	movff	?___flsub+2,_powf$1984+2
  7903  0011E4  C042  F14B         	movff	?___flsub+3,_powf$1984+3
  7904  0011E8  C154  F026         	movff	_powf$1983,___flmul@b
  7905  0011EC  C155  F027         	movff	_powf$1983+1,___flmul@b+1
  7906  0011F0  C156  F028         	movff	_powf$1983+2,___flmul@b+2
  7907  0011F4  C157  F029         	movff	_powf$1983+3,___flmul@b+3
  7908  0011F8  C148  F02A         	movff	_powf$1984,___flmul@a
  7909  0011FC  C149  F02B         	movff	_powf$1984+1,___flmul@a+1
  7910  001200  C14A  F02C         	movff	_powf$1984+2,___flmul@a+2
  7911  001204  C14B  F02D         	movff	_powf$1984+3,___flmul@a+3
  7912  001208  EC8B  F025         	call	___flmul	;wreg free
  7913  00120C  C026  F144         	movff	?___flmul,powf@w
  7914  001210  C027  F145         	movff	?___flmul+1,powf@w+1
  7915  001214  C028  F146         	movff	?___flmul+2,powf@w+2
  7916  001218  C029  F147         	movff	?___flmul+3,powf@w+3
  7917  00121C  C1B0  F026         	movff	powf@t,___flmul@b
  7918  001220  C1B1  F027         	movff	powf@t+1,___flmul@b+1
  7919  001224  C1B2  F028         	movff	powf@t+2,___flmul@b+2
  7920  001228  C1B3  F029         	movff	powf@t+3,___flmul@b+3
  7921  00122C  0E00               	movlw	0
  7922  00122E  6E2A               	movwf	___flmul@a^0,c
  7923  001230  0EAA               	movlw	170
  7924  001232  6E2B               	movwf	(___flmul@a+1)^0,c
  7925  001234  0EB8               	movlw	184
  7926  001236  6E2C               	movwf	(___flmul@a+2)^0,c
  7927  001238  0E3F               	movlw	63
  7928  00123A  6E2D               	movwf	(___flmul@a+3)^0,c
  7929  00123C  EC8B  F025         	call	___flmul	;wreg free
  7930  001240  C026  F174         	movff	?___flmul,powf@u
  7931  001244  C027  F175         	movff	?___flmul+1,powf@u+1
  7932  001248  C028  F176         	movff	?___flmul+2,powf@u+2
  7933  00124C  C029  F177         	movff	?___flmul+3,powf@u+3
  7934  001250  0E70               	movlw	112
  7935  001252  6E2A               	movwf	___flmul@a^0,c
  7936  001254  0EA5               	movlw	165
  7937  001256  6E2B               	movwf	(___flmul@a+1)^0,c
  7938  001258  0EEC               	movlw	236
  7939  00125A  6E2C               	movwf	(___flmul@a+2)^0,c
  7940  00125C  0E36               	movlw	54
  7941  00125E  6E2D               	movwf	(___flmul@a+3)^0,c
  7942  001260  C1B0  F026         	movff	powf@t,___flmul@b
  7943  001264  C1B1  F027         	movff	powf@t+1,___flmul@b+1
  7944  001268  C1B2  F028         	movff	powf@t+2,___flmul@b+2
  7945  00126C  C1B3  F029         	movff	powf@t+3,___flmul@b+3
  7946  001270  EC8B  F025         	call	___flmul	;wreg free
  7947  001274  C026  F03F         	movff	?___flmul,___flsub@b
  7948  001278  C027  F040         	movff	?___flmul+1,___flsub@b+1
  7949  00127C  C028  F041         	movff	?___flmul+2,___flsub@b+2
  7950  001280  C029  F042         	movff	?___flmul+3,___flsub@b+3
  7951  001284  0E3B               	movlw	59
  7952  001286  6E2A               	movwf	___flmul@a^0,c
  7953  001288  0EAA               	movlw	170
  7954  00128A  6E2B               	movwf	(___flmul@a+1)^0,c
  7955  00128C  0EB8               	movlw	184
  7956  00128E  6E2C               	movwf	(___flmul@a+2)^0,c
  7957  001290  0E3F               	movlw	63
  7958  001292  6E2D               	movwf	(___flmul@a+3)^0,c
  7959  001294  C144  F026         	movff	powf@w,___flmul@b
  7960  001298  C145  F027         	movff	powf@w+1,___flmul@b+1
  7961  00129C  C146  F028         	movff	powf@w+2,___flmul@b+2
  7962  0012A0  C147  F029         	movff	powf@w+3,___flmul@b+3
  7963  0012A4  EC8B  F025         	call	___flmul	;wreg free
  7964  0012A8  C026  F043         	movff	?___flmul,___flsub@a
  7965  0012AC  C027  F044         	movff	?___flmul+1,___flsub@a+1
  7966  0012B0  C028  F045         	movff	?___flmul+2,___flsub@a+2
  7967  0012B4  C029  F046         	movff	?___flmul+3,___flsub@a+3
  7968  0012B8  ECB6  F034         	call	___flsub	;wreg free
  7969  0012BC  C03F  F178         	movff	?___flsub,powf@v
  7970  0012C0  C040  F179         	movff	?___flsub+1,powf@v+1
  7971  0012C4  C041  F17A         	movff	?___flsub+2,powf@v+2
  7972  0012C8  C042  F17B         	movff	?___flsub+3,powf@v+3
  7973  0012CC  C174  F012         	movff	powf@u,___fladd@b
  7974  0012D0  C175  F013         	movff	powf@u+1,___fladd@b+1
  7975  0012D4  C176  F014         	movff	powf@u+2,___fladd@b+2
  7976  0012D8  C177  F015         	movff	powf@u+3,___fladd@b+3
  7977  0012DC  C178  F016         	movff	powf@v,___fladd@a
  7978  0012E0  C179  F017         	movff	powf@v+1,___fladd@a+1
  7979  0012E4  C17A  F018         	movff	powf@v+2,___fladd@a+2
  7980  0012E8  C17B  F019         	movff	powf@v+3,___fladd@a+3
  7981  0012EC  ECF5  F020         	call	___fladd	;wreg free
  7982  0012F0  C012  F184         	movff	?___fladd,powf@t1
  7983  0012F4  C013  F185         	movff	?___fladd+1,powf@t1+1
  7984  0012F8  C014  F186         	movff	?___fladd+2,powf@t1+2
  7985  0012FC  C015  F187         	movff	?___fladd+3,powf@t1+3
  7986  001300  C184  F1B8         	movff	powf@t1,powf@__xc8_float_word
  7987  001304  C185  F1B9         	movff	powf@t1+1,powf@__xc8_float_word+1
  7988  001308  C186  F1BA         	movff	powf@t1+2,powf@__xc8_float_word+2
  7989  00130C  C187  F1BB         	movff	powf@t1+3,powf@__xc8_float_word+3
  7990  001310  C1B8  F194         	movff	powf@__xc8_float_word,powf@is
  7991  001314  C1B9  F195         	movff	powf@__xc8_float_word+1,powf@is+1
  7992  001318  C1BA  F196         	movff	powf@__xc8_float_word+2,powf@is+2
  7993  00131C  C1BB  F197         	movff	powf@__xc8_float_word+3,powf@is+3
  7994  001320  0E00               	movlw	0
  7995  001322  0101               	movlb	1	; () banked
  7996  001324  1594               	andwf	powf@is& (0+255),w,b
  7997  001326  6FB8               	movwf	powf@__xc8_float_word& (0+255),b
  7998  001328  0EF0               	movlw	240
  7999  00132A  1595               	andwf	(powf@is+1)& (0+255),w,b
  8000  00132C  6FB9               	movwf	(powf@__xc8_float_word+1)& (0+255),b
  8001  00132E  0EFF               	movlw	255
  8002  001330  1596               	andwf	(powf@is+2)& (0+255),w,b
  8003  001332  6FBA               	movwf	(powf@__xc8_float_word+2)& (0+255),b
  8004  001334  0EFF               	movlw	255
  8005  001336  1597               	andwf	(powf@is+3)& (0+255),w,b
  8006  001338  6FBB               	movwf	(powf@__xc8_float_word+3)& (0+255),b
  8007  00133A                     
  8008                           ; BSR set to: 1
  8009  00133A  C1B8  F184         	movff	powf@__xc8_float_word,powf@t1
  8010  00133E  C1B9  F185         	movff	powf@__xc8_float_word+1,powf@t1+1
  8011  001342  C1BA  F186         	movff	powf@__xc8_float_word+2,powf@t1+2
  8012  001346  C1BB  F187         	movff	powf@__xc8_float_word+3,powf@t1+3
  8013  00134A                     
  8014                           ; BSR set to: 1
  8015  00134A  C174  F043         	movff	powf@u,___flsub@a
  8016  00134E  C175  F044         	movff	powf@u+1,___flsub@a+1
  8017  001352  C176  F045         	movff	powf@u+2,___flsub@a+2
  8018  001356  C177  F046         	movff	powf@u+3,___flsub@a+3
  8019  00135A  C184  F03F         	movff	powf@t1,___flsub@b
  8020  00135E  C185  F040         	movff	powf@t1+1,___flsub@b+1
  8021  001362  C186  F041         	movff	powf@t1+2,___flsub@b+2
  8022  001366  C187  F042         	movff	powf@t1+3,___flsub@b+3
  8023  00136A  ECB6  F034         	call	___flsub	;wreg free
  8024  00136E  C03F  F198         	movff	?___flsub,_powf$1985
  8025  001372  C040  F199         	movff	?___flsub+1,_powf$1985+1
  8026  001376  C041  F19A         	movff	?___flsub+2,_powf$1985+2
  8027  00137A  C042  F19B         	movff	?___flsub+3,_powf$1985+3
  8028  00137E  C178  F03F         	movff	powf@v,___flsub@b
  8029  001382  C179  F040         	movff	powf@v+1,___flsub@b+1
  8030  001386  C17A  F041         	movff	powf@v+2,___flsub@b+2
  8031  00138A  C17B  F042         	movff	powf@v+3,___flsub@b+3
  8032  00138E  C198  F043         	movff	_powf$1985,___flsub@a
  8033  001392  C199  F044         	movff	_powf$1985+1,___flsub@a+1
  8034  001396  C19A  F045         	movff	_powf$1985+2,___flsub@a+2
  8035  00139A  C19B  F046         	movff	_powf$1985+3,___flsub@a+3
  8036  00139E  ECB6  F034         	call	___flsub	;wreg free
  8037  0013A2  C03F  F11C         	movff	?___flsub,powf@t2
  8038  0013A6  C040  F11D         	movff	?___flsub+1,powf@t2+1
  8039  0013AA  C041  F11E         	movff	?___flsub+2,powf@t2+2
  8040  0013AE  C042  F11F         	movff	?___flsub+3,powf@t2+3
  8041  0013B2  EF49  F011         	goto	l7744
  8042  0013B6                     l7588:
  8043                           
  8044                           ; BSR set to: 1
  8045  0013B6  0E00               	movlw	0
  8046  0013B8  6F80               	movwf	powf@n& (0+255),b
  8047  0013BA  0E00               	movlw	0
  8048  0013BC  6F81               	movwf	(powf@n+1)& (0+255),b
  8049  0013BE  0E00               	movlw	0
  8050  0013C0  6F82               	movwf	(powf@n+2)& (0+255),b
  8051  0013C2  0E00               	movlw	0
  8052  0013C4  6F83               	movwf	(powf@n+3)& (0+255),b
  8053  0013C6                     
  8054                           ; BSR set to: 1
  8055  0013C6  BFAB               	btfsc	(powf@ix+3)& (0+255),7,b
  8056  0013C8  EFF1  F009         	goto	u10060
  8057  0013CC  51AB               	movf	(powf@ix+3)& (0+255),w,b
  8058  0013CE  E107               	bnz	u10061
  8059  0013D0  0E80               	movlw	128
  8060  0013D2  5DAA               	subwf	(powf@ix+2)& (0+255),w,b
  8061  0013D4  B0D8               	btfsc	status,0,c
  8062  0013D6  EFEF  F009         	goto	u10061
  8063  0013DA  EFF1  F009         	goto	u10060
  8064  0013DE                     u10061:
  8065  0013DE  EF24  F00A         	goto	l7600
  8066  0013E2                     u10060:
  8067  0013E2                     
  8068                           ; BSR set to: 1
  8069  0013E2  C170  F026         	movff	powf@ax,___flmul@b
  8070  0013E6  C171  F027         	movff	powf@ax+1,___flmul@b+1
  8071  0013EA  C172  F028         	movff	powf@ax+2,___flmul@b+2
  8072  0013EE  C173  F029         	movff	powf@ax+3,___flmul@b+3
  8073  0013F2  0E00               	movlw	0
  8074  0013F4  6E2A               	movwf	___flmul@a^0,c
  8075  0013F6  0E00               	movlw	0
  8076  0013F8  6E2B               	movwf	(___flmul@a+1)^0,c
  8077  0013FA  0E80               	movlw	128
  8078  0013FC  6E2C               	movwf	(___flmul@a+2)^0,c
  8079  0013FE  0E4B               	movlw	75
  8080  001400  6E2D               	movwf	(___flmul@a+3)^0,c
  8081  001402  EC8B  F025         	call	___flmul	;wreg free
  8082  001406  C026  F170         	movff	?___flmul,powf@ax
  8083  00140A  C027  F171         	movff	?___flmul+1,powf@ax+1
  8084  00140E  C028  F172         	movff	?___flmul+2,powf@ax+2
  8085  001412  C029  F173         	movff	?___flmul+3,powf@ax+3
  8086  001416  0EE8               	movlw	232
  8087  001418  0101               	movlb	1	; () banked
  8088  00141A  2780               	addwf	powf@n& (0+255),f,b
  8089  00141C  0EFF               	movlw	255
  8090  00141E  2381               	addwfc	(powf@n+1)& (0+255),f,b
  8091  001420  0EFF               	movlw	255
  8092  001422  2382               	addwfc	(powf@n+2)& (0+255),f,b
  8093  001424  0EFF               	movlw	255
  8094  001426  2383               	addwfc	(powf@n+3)& (0+255),f,b
  8095  001428                     
  8096                           ; BSR set to: 1
  8097  001428  C170  F1B8         	movff	powf@ax,powf@__xc8_float_word
  8098  00142C  C171  F1B9         	movff	powf@ax+1,powf@__xc8_float_word+1
  8099  001430  C172  F1BA         	movff	powf@ax+2,powf@__xc8_float_word+2
  8100  001434  C173  F1BB         	movff	powf@ax+3,powf@__xc8_float_word+3
  8101  001438                     
  8102                           ; BSR set to: 1
  8103  001438  C1B8  F1A8         	movff	powf@__xc8_float_word,powf@ix
  8104  00143C  C1B9  F1A9         	movff	powf@__xc8_float_word+1,powf@ix+1
  8105  001440  C1BA  F1AA         	movff	powf@__xc8_float_word+2,powf@ix+2
  8106  001444  C1BB  F1AB         	movff	powf@__xc8_float_word+3,powf@ix+3
  8107  001448                     l7600:
  8108                           
  8109                           ; BSR set to: 1
  8110  001448  0E17               	movlw	23
  8111  00144A  0100               	movlb	0	; () banked
  8112  00144C  6FB0               	movwf	??_powf& (0+255),b
  8113  00144E  C1A8  F0B1         	movff	powf@ix,??_powf+1
  8114  001452  C1A9  F0B2         	movff	powf@ix+1,??_powf+2
  8115  001456  C1AA  F0B3         	movff	powf@ix+2,??_powf+3
  8116  00145A  C1AB  F0B4         	movff	powf@ix+3,??_powf+4
  8117  00145E                     u10075:
  8118  00145E  67B0               	tstfsz	??_powf& (0+255),b
  8119  001460  EF34  F00A         	goto	u10076
  8120  001464  EF3C  F00A         	goto	u10077
  8121  001468                     u10076:
  8122  001468  35B4               	rlcf	(??_powf+4)& (0+255),w,b
  8123  00146A  33B4               	rrcf	(??_powf+4)& (0+255),f,b
  8124  00146C  33B3               	rrcf	(??_powf+3)& (0+255),f,b
  8125  00146E  33B2               	rrcf	(??_powf+2)& (0+255),f,b
  8126  001470  33B1               	rrcf	(??_powf+1)& (0+255),f,b
  8127  001472  2FB0               	decfsz	??_powf& (0+255),f,b
  8128  001474  EF2F  F00A         	goto	u10075
  8129  001478                     u10077:
  8130  001478  0E81               	movlw	129
  8131  00147A  0100               	movlb	0	; () banked
  8132  00147C  25B1               	addwf	(??_powf+1)& (0+255),w,b
  8133  00147E  6FB5               	movwf	(??_powf+5)& (0+255),b
  8134  001480  0EFF               	movlw	255
  8135  001482  21B2               	addwfc	(??_powf+2)& (0+255),w,b
  8136  001484  6FB6               	movwf	(??_powf+6)& (0+255),b
  8137  001486  0EFF               	movlw	255
  8138  001488  21B3               	addwfc	(??_powf+3)& (0+255),w,b
  8139  00148A  6FB7               	movwf	(??_powf+7)& (0+255),b
  8140  00148C  0EFF               	movlw	255
  8141  00148E  21B4               	addwfc	(??_powf+4)& (0+255),w,b
  8142  001490  6FB8               	movwf	(??_powf+8)& (0+255),b
  8143  001492  51B5               	movf	(??_powf+5)& (0+255),w,b
  8144  001494  0101               	movlb	1	; () banked
  8145  001496  2780               	addwf	powf@n& (0+255),f,b
  8146  001498  0100               	movlb	0	; () banked
  8147  00149A  51B6               	movf	(??_powf+6)& (0+255),w,b
  8148  00149C  0101               	movlb	1	; () banked
  8149  00149E  2381               	addwfc	(powf@n+1)& (0+255),f,b
  8150  0014A0  0100               	movlb	0	; () banked
  8151  0014A2  51B7               	movf	(??_powf+7)& (0+255),w,b
  8152  0014A4  0101               	movlb	1	; () banked
  8153  0014A6  2382               	addwfc	(powf@n+2)& (0+255),f,b
  8154  0014A8  0100               	movlb	0	; () banked
  8155  0014AA  51B8               	movf	(??_powf+8)& (0+255),w,b
  8156  0014AC  0101               	movlb	1	; () banked
  8157  0014AE  2383               	addwfc	(powf@n+3)& (0+255),f,b
  8158  0014B0                     
  8159                           ; BSR set to: 1
  8160  0014B0  0EFF               	movlw	255
  8161  0014B2  15A8               	andwf	powf@ix& (0+255),w,b
  8162  0014B4  6FAC               	movwf	powf@j& (0+255),b
  8163  0014B6  0EFF               	movlw	255
  8164  0014B8  15A9               	andwf	(powf@ix+1)& (0+255),w,b
  8165  0014BA  6FAD               	movwf	(powf@j+1)& (0+255),b
  8166  0014BC  0E7F               	movlw	127
  8167  0014BE  15AA               	andwf	(powf@ix+2)& (0+255),w,b
  8168  0014C0  6FAE               	movwf	(powf@j+2)& (0+255),b
  8169  0014C2  0E00               	movlw	0
  8170  0014C4  15AB               	andwf	(powf@ix+3)& (0+255),w,b
  8171  0014C6  6FAF               	movwf	(powf@j+3)& (0+255),b
  8172  0014C8                     
  8173                           ; BSR set to: 1
  8174  0014C8  0E00               	movlw	0
  8175  0014CA  11AC               	iorwf	powf@j& (0+255),w,b
  8176  0014CC  6FA8               	movwf	powf@ix& (0+255),b
  8177  0014CE  0E00               	movlw	0
  8178  0014D0  11AD               	iorwf	(powf@j+1)& (0+255),w,b
  8179  0014D2  6FA9               	movwf	(powf@ix+1)& (0+255),b
  8180  0014D4  0E80               	movlw	128
  8181  0014D6  11AE               	iorwf	(powf@j+2)& (0+255),w,b
  8182  0014D8  6FAA               	movwf	(powf@ix+2)& (0+255),b
  8183  0014DA  0E3F               	movlw	63
  8184  0014DC  11AF               	iorwf	(powf@j+3)& (0+255),w,b
  8185  0014DE  6FAB               	movwf	(powf@ix+3)& (0+255),b
  8186  0014E0                     
  8187                           ; BSR set to: 1
  8188  0014E0  BFAF               	btfsc	(powf@j+3)& (0+255),7,b
  8189  0014E2  EF82  F00A         	goto	u10080
  8190  0014E6  51AF               	movf	(powf@j+3)& (0+255),w,b
  8191  0014E8  E10B               	bnz	u10081
  8192  0014EA  0E72               	movlw	114
  8193  0014EC  5DAC               	subwf	powf@j& (0+255),w,b
  8194  0014EE  0EC4               	movlw	196
  8195  0014F0  59AD               	subwfb	(powf@j+1)& (0+255),w,b
  8196  0014F2  0E1C               	movlw	28
  8197  0014F4  59AE               	subwfb	(powf@j+2)& (0+255),w,b
  8198  0014F6  B0D8               	btfsc	status,0,c
  8199  0014F8  EF80  F00A         	goto	u10081
  8200  0014FC  EF82  F00A         	goto	u10080
  8201  001500                     u10081:
  8202  001500  EF8C  F00A         	goto	l7610
  8203  001504                     u10080:
  8204  001504                     
  8205                           ; BSR set to: 1
  8206  001504  0E00               	movlw	0
  8207  001506  6FA0               	movwf	powf@k& (0+255),b
  8208  001508  0E00               	movlw	0
  8209  00150A  6FA1               	movwf	(powf@k+1)& (0+255),b
  8210  00150C  0E00               	movlw	0
  8211  00150E  6FA2               	movwf	(powf@k+2)& (0+255),b
  8212  001510  0E00               	movlw	0
  8213  001512  6FA3               	movwf	(powf@k+3)& (0+255),b
  8214  001514  EFBE  F00A         	goto	l7620
  8215  001518                     l7610:
  8216                           
  8217                           ; BSR set to: 1
  8218  001518  BFAF               	btfsc	(powf@j+3)& (0+255),7,b
  8219  00151A  EF9E  F00A         	goto	u10090
  8220  00151E  51AF               	movf	(powf@j+3)& (0+255),w,b
  8221  001520  E10B               	bnz	u10091
  8222  001522  0ED7               	movlw	215
  8223  001524  5DAC               	subwf	powf@j& (0+255),w,b
  8224  001526  0EB3               	movlw	179
  8225  001528  59AD               	subwfb	(powf@j+1)& (0+255),w,b
  8226  00152A  0E5D               	movlw	93
  8227  00152C  59AE               	subwfb	(powf@j+2)& (0+255),w,b
  8228  00152E  B0D8               	btfsc	status,0,c
  8229  001530  EF9C  F00A         	goto	u10091
  8230  001534  EF9E  F00A         	goto	u10090
  8231  001538                     u10091:
  8232  001538  EFA8  F00A         	goto	l7614
  8233  00153C                     u10090:
  8234  00153C                     
  8235                           ; BSR set to: 1
  8236  00153C  0E01               	movlw	1
  8237  00153E  6FA0               	movwf	powf@k& (0+255),b
  8238  001540  0E00               	movlw	0
  8239  001542  6FA1               	movwf	(powf@k+1)& (0+255),b
  8240  001544  0E00               	movlw	0
  8241  001546  6FA2               	movwf	(powf@k+2)& (0+255),b
  8242  001548  0E00               	movlw	0
  8243  00154A  6FA3               	movwf	(powf@k+3)& (0+255),b
  8244  00154C  EFBE  F00A         	goto	l7620
  8245  001550                     l7614:
  8246                           
  8247                           ; BSR set to: 1
  8248  001550  0E00               	movlw	0
  8249  001552  6FA0               	movwf	powf@k& (0+255),b
  8250  001554  0E00               	movlw	0
  8251  001556  6FA1               	movwf	(powf@k+1)& (0+255),b
  8252  001558  0E00               	movlw	0
  8253  00155A  6FA2               	movwf	(powf@k+2)& (0+255),b
  8254  00155C  0E00               	movlw	0
  8255  00155E  6FA3               	movwf	(powf@k+3)& (0+255),b
  8256  001560                     
  8257                           ; BSR set to: 1
  8258  001560  0E01               	movlw	1
  8259  001562  2780               	addwf	powf@n& (0+255),f,b
  8260  001564  0E00               	movlw	0
  8261  001566  2381               	addwfc	(powf@n+1)& (0+255),f,b
  8262  001568  2382               	addwfc	(powf@n+2)& (0+255),f,b
  8263  00156A  2383               	addwfc	(powf@n+3)& (0+255),f,b
  8264  00156C                     
  8265                           ; BSR set to: 1
  8266  00156C  0E00               	movlw	0
  8267  00156E  27A8               	addwf	powf@ix& (0+255),f,b
  8268  001570  0E00               	movlw	0
  8269  001572  23A9               	addwfc	(powf@ix+1)& (0+255),f,b
  8270  001574  0E80               	movlw	128
  8271  001576  23AA               	addwfc	(powf@ix+2)& (0+255),f,b
  8272  001578  0EFF               	movlw	255
  8273  00157A  23AB               	addwfc	(powf@ix+3)& (0+255),f,b
  8274  00157C                     l7620:
  8275                           
  8276                           ; BSR set to: 1
  8277  00157C  C1A8  F1B8         	movff	powf@ix,powf@__xc8_float_word
  8278  001580  C1A9  F1B9         	movff	powf@ix+1,powf@__xc8_float_word+1
  8279  001584  C1AA  F1BA         	movff	powf@ix+2,powf@__xc8_float_word+2
  8280  001588  C1AB  F1BB         	movff	powf@ix+3,powf@__xc8_float_word+3
  8281  00158C                     
  8282                           ; BSR set to: 1
  8283  00158C  C1B8  F170         	movff	powf@__xc8_float_word,powf@ax
  8284  001590  C1B9  F171         	movff	powf@__xc8_float_word+1,powf@ax+1
  8285  001594  C1BA  F172         	movff	powf@__xc8_float_word+2,powf@ax+2
  8286  001598  C1BB  F173         	movff	powf@__xc8_float_word+3,powf@ax+3
  8287  00159C                     
  8288                           ; BSR set to: 1
  8289  00159C  C170  F03F         	movff	powf@ax,___flsub@b
  8290  0015A0  C171  F040         	movff	powf@ax+1,___flsub@b+1
  8291  0015A4  C172  F041         	movff	powf@ax+2,___flsub@b+2
  8292  0015A8  C173  F042         	movff	powf@ax+3,___flsub@b+3
  8293  0015AC  C1A0  F0B0         	movff	powf@k,??_powf
  8294  0015B0  C1A1  F0B1         	movff	powf@k+1,??_powf+1
  8295  0015B4  0100               	movlb	0	; () banked
  8296  0015B6  90D8               	bcf	status,0,c
  8297  0015B8  37B0               	rlcf	??_powf& (0+255),f,b
  8298  0015BA  37B1               	rlcf	(??_powf+1)& (0+255),f,b
  8299  0015BC  90D8               	bcf	status,0,c
  8300  0015BE  37B0               	rlcf	??_powf& (0+255),f,b
  8301  0015C0  37B1               	rlcf	(??_powf+1)& (0+255),f,b
  8302  0015C2  0E69               	movlw	low _bp
  8303  0015C4  25B0               	addwf	??_powf& (0+255),w,b
  8304  0015C6  6EF6               	movwf	tblptrl,c
  8305  0015C8  0E06               	movlw	high _bp
  8306  0015CA  21B1               	addwfc	(??_powf+1)& (0+255),w,b
  8307  0015CC  6EF7               	movwf	tblptrh,c
  8308  0015CE                     	if	0	;There are less than 3 active tblptr bytes
  8309  0015CE                     	endif
  8310  0015CE  0009               	tblrd		*+
  8311  0015D0  CFF5 F043          	movff	tablat,___flsub@a
  8312  0015D4  0009               	tblrd		*+
  8313  0015D6  CFF5 F044          	movff	tablat,___flsub@a+1
  8314  0015DA  0009               	tblrd		*+
  8315  0015DC  CFF5 F045          	movff	tablat,___flsub@a+2
  8316  0015E0  000A               	tblrd		*-
  8317  0015E2  CFF5 F046          	movff	tablat,___flsub@a+3
  8318  0015E6  ECB6  F034         	call	___flsub	;wreg free
  8319  0015EA  C03F  F174         	movff	?___flsub,powf@u
  8320  0015EE  C040  F175         	movff	?___flsub+1,powf@u+1
  8321  0015F2  C041  F176         	movff	?___flsub+2,powf@u+2
  8322  0015F6  C042  F177         	movff	?___flsub+3,powf@u+3
  8323  0015FA  0E00               	movlw	0
  8324  0015FC  6E47               	movwf	___fldiv@b^0,c
  8325  0015FE  0E00               	movlw	0
  8326  001600  6E48               	movwf	(___fldiv@b+1)^0,c
  8327  001602  0E80               	movlw	128
  8328  001604  6E49               	movwf	(___fldiv@b+2)^0,c
  8329  001606  0E3F               	movlw	63
  8330  001608  6E4A               	movwf	(___fldiv@b+3)^0,c
  8331  00160A  C170  F016         	movff	powf@ax,___fladd@a
  8332  00160E  C171  F017         	movff	powf@ax+1,___fladd@a+1
  8333  001612  C172  F018         	movff	powf@ax+2,___fladd@a+2
  8334  001616  C173  F019         	movff	powf@ax+3,___fladd@a+3
  8335  00161A  C1A0  F0B0         	movff	powf@k,??_powf
  8336  00161E  C1A1  F0B1         	movff	powf@k+1,??_powf+1
  8337  001622  0100               	movlb	0	; () banked
  8338  001624  90D8               	bcf	status,0,c
  8339  001626  37B0               	rlcf	??_powf& (0+255),f,b
  8340  001628  37B1               	rlcf	(??_powf+1)& (0+255),f,b
  8341  00162A  90D8               	bcf	status,0,c
  8342  00162C  37B0               	rlcf	??_powf& (0+255),f,b
  8343  00162E  37B1               	rlcf	(??_powf+1)& (0+255),f,b
  8344  001630  0E69               	movlw	low _bp
  8345  001632  25B0               	addwf	??_powf& (0+255),w,b
  8346  001634  6EF6               	movwf	tblptrl,c
  8347  001636  0E06               	movlw	high _bp
  8348  001638  21B1               	addwfc	(??_powf+1)& (0+255),w,b
  8349  00163A  6EF7               	movwf	tblptrh,c
  8350  00163C                     	if	0	;There are less than 3 active tblptr bytes
  8351  00163C                     	endif
  8352  00163C  0009               	tblrd		*+
  8353  00163E  CFF5 F012          	movff	tablat,___fladd@b
  8354  001642  0009               	tblrd		*+
  8355  001644  CFF5 F013          	movff	tablat,___fladd@b+1
  8356  001648  0009               	tblrd		*+
  8357  00164A  CFF5 F014          	movff	tablat,___fladd@b+2
  8358  00164E  000A               	tblrd		*-
  8359  001650  CFF5 F015          	movff	tablat,___fladd@b+3
  8360  001654  ECF5  F020         	call	___fladd	;wreg free
  8361  001658  C012  F04B         	movff	?___fladd,___fldiv@a
  8362  00165C  C013  F04C         	movff	?___fladd+1,___fldiv@a+1
  8363  001660  C014  F04D         	movff	?___fladd+2,___fldiv@a+2
  8364  001664  C015  F04E         	movff	?___fladd+3,___fldiv@a+3
  8365  001668  ECA0  F027         	call	___fldiv	;wreg free
  8366  00166C  C047  F178         	movff	?___fldiv,powf@v
  8367  001670  C048  F179         	movff	?___fldiv+1,powf@v+1
  8368  001674  C049  F17A         	movff	?___fldiv+2,powf@v+2
  8369  001678  C04A  F17B         	movff	?___fldiv+3,powf@v+3
  8370  00167C  C174  F026         	movff	powf@u,___flmul@b
  8371  001680  C175  F027         	movff	powf@u+1,___flmul@b+1
  8372  001684  C176  F028         	movff	powf@u+2,___flmul@b+2
  8373  001688  C177  F029         	movff	powf@u+3,___flmul@b+3
  8374  00168C  C178  F02A         	movff	powf@v,___flmul@a
  8375  001690  C179  F02B         	movff	powf@v+1,___flmul@a+1
  8376  001694  C17A  F02C         	movff	powf@v+2,___flmul@a+2
  8377  001698  C17B  F02D         	movff	powf@v+3,___flmul@a+3
  8378  00169C  EC8B  F025         	call	___flmul	;wreg free
  8379  0016A0  C026  F15C         	movff	?___flmul,powf@s
  8380  0016A4  C027  F15D         	movff	?___flmul+1,powf@s+1
  8381  0016A8  C028  F15E         	movff	?___flmul+2,powf@s+2
  8382  0016AC  C029  F15F         	movff	?___flmul+3,powf@s+3
  8383  0016B0  C15C  F16C         	movff	powf@s,powf@s_h
  8384  0016B4  C15D  F16D         	movff	powf@s+1,powf@s_h+1
  8385  0016B8  C15E  F16E         	movff	powf@s+2,powf@s_h+2
  8386  0016BC  C15F  F16F         	movff	powf@s+3,powf@s_h+3
  8387  0016C0  C16C  F1B8         	movff	powf@s_h,powf@__xc8_float_word
  8388  0016C4  C16D  F1B9         	movff	powf@s_h+1,powf@__xc8_float_word+1
  8389  0016C8  C16E  F1BA         	movff	powf@s_h+2,powf@__xc8_float_word+2
  8390  0016CC  C16F  F1BB         	movff	powf@s_h+3,powf@__xc8_float_word+3
  8391  0016D0  C1B8  F194         	movff	powf@__xc8_float_word,powf@is
  8392  0016D4  C1B9  F195         	movff	powf@__xc8_float_word+1,powf@is+1
  8393  0016D8  C1BA  F196         	movff	powf@__xc8_float_word+2,powf@is+2
  8394  0016DC  C1BB  F197         	movff	powf@__xc8_float_word+3,powf@is+3
  8395  0016E0  0E00               	movlw	0
  8396  0016E2  0101               	movlb	1	; () banked
  8397  0016E4  1594               	andwf	powf@is& (0+255),w,b
  8398  0016E6  6FB8               	movwf	powf@__xc8_float_word& (0+255),b
  8399  0016E8  0EF0               	movlw	240
  8400  0016EA  1595               	andwf	(powf@is+1)& (0+255),w,b
  8401  0016EC  6FB9               	movwf	(powf@__xc8_float_word+1)& (0+255),b
  8402  0016EE  0EFF               	movlw	255
  8403  0016F0  1596               	andwf	(powf@is+2)& (0+255),w,b
  8404  0016F2  6FBA               	movwf	(powf@__xc8_float_word+2)& (0+255),b
  8405  0016F4  0EFF               	movlw	255
  8406  0016F6  1597               	andwf	(powf@is+3)& (0+255),w,b
  8407  0016F8  6FBB               	movwf	(powf@__xc8_float_word+3)& (0+255),b
  8408  0016FA                     
  8409                           ; BSR set to: 1
  8410  0016FA  C1B8  F16C         	movff	powf@__xc8_float_word,powf@s_h
  8411  0016FE  C1B9  F16D         	movff	powf@__xc8_float_word+1,powf@s_h+1
  8412  001702  C1BA  F16E         	movff	powf@__xc8_float_word+2,powf@s_h+2
  8413  001706  C1BB  F16F         	movff	powf@__xc8_float_word+3,powf@s_h+3
  8414  00170A                     
  8415                           ; BSR set to: 1
  8416  00170A  C1A8  F0B0         	movff	powf@ix,??_powf
  8417  00170E  C1A9  F0B1         	movff	powf@ix+1,??_powf+1
  8418  001712  C1AA  F0B2         	movff	powf@ix+2,??_powf+2
  8419  001716  C1AB  F0B3         	movff	powf@ix+3,??_powf+3
  8420  00171A  0100               	movlb	0	; () banked
  8421  00171C  35B3               	rlcf	(??_powf+3)& (0+255),w,b
  8422  00171E  33B3               	rrcf	(??_powf+3)& (0+255),f,b
  8423  001720  33B2               	rrcf	(??_powf+2)& (0+255),f,b
  8424  001722  33B1               	rrcf	(??_powf+1)& (0+255),f,b
  8425  001724  33B0               	rrcf	??_powf& (0+255),f,b
  8426  001726  0E00               	movlw	0
  8427  001728  15B0               	andwf	??_powf& (0+255),w,b
  8428  00172A  6FB4               	movwf	(??_powf+4)& (0+255),b
  8429  00172C  0EF0               	movlw	240
  8430  00172E  15B1               	andwf	(??_powf+1)& (0+255),w,b
  8431  001730  6FB5               	movwf	(??_powf+5)& (0+255),b
  8432  001732  0EFF               	movlw	255
  8433  001734  15B2               	andwf	(??_powf+2)& (0+255),w,b
  8434  001736  6FB6               	movwf	(??_powf+6)& (0+255),b
  8435  001738  0EFF               	movlw	255
  8436  00173A  15B3               	andwf	(??_powf+3)& (0+255),w,b
  8437  00173C  6FB7               	movwf	(??_powf+7)& (0+255),b
  8438  00173E  0E00               	movlw	0
  8439  001740  11B4               	iorwf	(??_powf+4)& (0+255),w,b
  8440  001742  0101               	movlb	1	; () banked
  8441  001744  6F94               	movwf	powf@is& (0+255),b
  8442  001746  0E00               	movlw	0
  8443  001748  0100               	movlb	0	; () banked
  8444  00174A  11B5               	iorwf	(??_powf+5)& (0+255),w,b
  8445  00174C  0101               	movlb	1	; () banked
  8446  00174E  6F95               	movwf	(powf@is+1)& (0+255),b
  8447  001750  0E00               	movlw	0
  8448  001752  0100               	movlb	0	; () banked
  8449  001754  11B6               	iorwf	(??_powf+6)& (0+255),w,b
  8450  001756  0101               	movlb	1	; () banked
  8451  001758  6F96               	movwf	(powf@is+2)& (0+255),b
  8452  00175A  0E20               	movlw	32
  8453  00175C  0100               	movlb	0	; () banked
  8454  00175E  11B7               	iorwf	(??_powf+7)& (0+255),w,b
  8455  001760  0101               	movlb	1	; () banked
  8456  001762  6F97               	movwf	(powf@is+3)& (0+255),b
  8457  001764                     
  8458                           ; BSR set to: 1
  8459  001764  C1A0  F0B0         	movff	powf@k,??_powf
  8460  001768  C1A1  F0B1         	movff	powf@k+1,??_powf+1
  8461  00176C  C1A2  F0B2         	movff	powf@k+2,??_powf+2
  8462  001770  C1A3  F0B3         	movff	powf@k+3,??_powf+3
  8463  001774  0E15               	movlw	21
  8464  001776                     u10105:
  8465  001776  90D8               	bcf	status,0,c
  8466  001778  0100               	movlb	0	; () banked
  8467  00177A  37B0               	rlcf	??_powf& (0+255),f,b
  8468  00177C  37B1               	rlcf	(??_powf+1)& (0+255),f,b
  8469  00177E  37B2               	rlcf	(??_powf+2)& (0+255),f,b
  8470  001780  37B3               	rlcf	(??_powf+3)& (0+255),f,b
  8471  001782  2EE8               	decfsz	wreg,f,c
  8472  001784  EFBB  F00B         	goto	u10105
  8473  001788  0101               	movlb	1	; () banked
  8474  00178A  5194               	movf	powf@is& (0+255),w,b
  8475  00178C  0100               	movlb	0	; () banked
  8476  00178E  25B0               	addwf	??_powf& (0+255),w,b
  8477  001790  6FB4               	movwf	(??_powf+4)& (0+255),b
  8478  001792  0101               	movlb	1	; () banked
  8479  001794  5195               	movf	(powf@is+1)& (0+255),w,b
  8480  001796  0100               	movlb	0	; () banked
  8481  001798  21B1               	addwfc	(??_powf+1)& (0+255),w,b
  8482  00179A  6FB5               	movwf	(??_powf+5)& (0+255),b
  8483  00179C  0101               	movlb	1	; () banked
  8484  00179E  5196               	movf	(powf@is+2)& (0+255),w,b
  8485  0017A0  0100               	movlb	0	; () banked
  8486  0017A2  21B2               	addwfc	(??_powf+2)& (0+255),w,b
  8487  0017A4  6FB6               	movwf	(??_powf+6)& (0+255),b
  8488  0017A6  0101               	movlb	1	; () banked
  8489  0017A8  5197               	movf	(powf@is+3)& (0+255),w,b
  8490  0017AA  0100               	movlb	0	; () banked
  8491  0017AC  21B3               	addwfc	(??_powf+3)& (0+255),w,b
  8492  0017AE  6FB7               	movwf	(??_powf+7)& (0+255),b
  8493  0017B0  0E00               	movlw	0
  8494  0017B2  25B4               	addwf	(??_powf+4)& (0+255),w,b
  8495  0017B4  0101               	movlb	1	; () banked
  8496  0017B6  6FB8               	movwf	powf@__xc8_float_word& (0+255),b
  8497  0017B8  0E00               	movlw	0
  8498  0017BA  0100               	movlb	0	; () banked
  8499  0017BC  21B5               	addwfc	(??_powf+5)& (0+255),w,b
  8500  0017BE  0101               	movlb	1	; () banked
  8501  0017C0  6FB9               	movwf	(powf@__xc8_float_word+1)& (0+255),b
  8502  0017C2  0E40               	movlw	64
  8503  0017C4  0100               	movlb	0	; () banked
  8504  0017C6  21B6               	addwfc	(??_powf+6)& (0+255),w,b
  8505  0017C8  0101               	movlb	1	; () banked
  8506  0017CA  6FBA               	movwf	(powf@__xc8_float_word+2)& (0+255),b
  8507  0017CC  0E00               	movlw	0
  8508  0017CE  0100               	movlb	0	; () banked
  8509  0017D0  21B7               	addwfc	(??_powf+7)& (0+255),w,b
  8510  0017D2  0101               	movlb	1	; () banked
  8511  0017D4  6FBB               	movwf	(powf@__xc8_float_word+3)& (0+255),b
  8512  0017D6                     
  8513                           ; BSR set to: 1
  8514  0017D6  C1B8  F168         	movff	powf@__xc8_float_word,powf@t_h
  8515  0017DA  C1B9  F169         	movff	powf@__xc8_float_word+1,powf@t_h+1
  8516  0017DE  C1BA  F16A         	movff	powf@__xc8_float_word+2,powf@t_h+2
  8517  0017E2  C1BB  F16B         	movff	powf@__xc8_float_word+3,powf@t_h+3
  8518  0017E6                     
  8519                           ; BSR set to: 1
  8520  0017E6  C1A0  F0B0         	movff	powf@k,??_powf
  8521  0017EA  C1A1  F0B1         	movff	powf@k+1,??_powf+1
  8522  0017EE  0100               	movlb	0	; () banked
  8523  0017F0  90D8               	bcf	status,0,c
  8524  0017F2  37B0               	rlcf	??_powf& (0+255),f,b
  8525  0017F4  37B1               	rlcf	(??_powf+1)& (0+255),f,b
  8526  0017F6  90D8               	bcf	status,0,c
  8527  0017F8  37B0               	rlcf	??_powf& (0+255),f,b
  8528  0017FA  37B1               	rlcf	(??_powf+1)& (0+255),f,b
  8529  0017FC  0E69               	movlw	low _bp
  8530  0017FE  25B0               	addwf	??_powf& (0+255),w,b
  8531  001800  6EF6               	movwf	tblptrl,c
  8532  001802  0E06               	movlw	high _bp
  8533  001804  21B1               	addwfc	(??_powf+1)& (0+255),w,b
  8534  001806  6EF7               	movwf	tblptrh,c
  8535  001808                     	if	0	;There are less than 3 active tblptr bytes
  8536  001808                     	endif
  8537  001808  0009               	tblrd		*+
  8538  00180A  CFF5 F043          	movff	tablat,___flsub@a
  8539  00180E  0009               	tblrd		*+
  8540  001810  CFF5 F044          	movff	tablat,___flsub@a+1
  8541  001814  0009               	tblrd		*+
  8542  001816  CFF5 F045          	movff	tablat,___flsub@a+2
  8543  00181A  000A               	tblrd		*-
  8544  00181C  CFF5 F046          	movff	tablat,___flsub@a+3
  8545  001820  C168  F03F         	movff	powf@t_h,___flsub@b
  8546  001824  C169  F040         	movff	powf@t_h+1,___flsub@b+1
  8547  001828  C16A  F041         	movff	powf@t_h+2,___flsub@b+2
  8548  00182C  C16B  F042         	movff	powf@t_h+3,___flsub@b+3
  8549  001830  ECB6  F034         	call	___flsub	;wreg free
  8550  001834  C03F  F198         	movff	?___flsub,_powf$1985
  8551  001838  C040  F199         	movff	?___flsub+1,_powf$1985+1
  8552  00183C  C041  F19A         	movff	?___flsub+2,_powf$1985+2
  8553  001840  C042  F19B         	movff	?___flsub+3,_powf$1985+3
  8554  001844  C170  F03F         	movff	powf@ax,___flsub@b
  8555  001848  C171  F040         	movff	powf@ax+1,___flsub@b+1
  8556  00184C  C172  F041         	movff	powf@ax+2,___flsub@b+2
  8557  001850  C173  F042         	movff	powf@ax+3,___flsub@b+3
  8558  001854  C198  F043         	movff	_powf$1985,___flsub@a
  8559  001858  C199  F044         	movff	_powf$1985+1,___flsub@a+1
  8560  00185C  C19A  F045         	movff	_powf$1985+2,___flsub@a+2
  8561  001860  C19B  F046         	movff	_powf$1985+3,___flsub@a+3
  8562  001864  ECB6  F034         	call	___flsub	;wreg free
  8563  001868  C03F  F134         	movff	?___flsub,powf@t_l
  8564  00186C  C040  F135         	movff	?___flsub+1,powf@t_l+1
  8565  001870  C041  F136         	movff	?___flsub+2,powf@t_l+2
  8566  001874  C042  F137         	movff	?___flsub+3,powf@t_l+3
  8567  001878  C168  F02A         	movff	powf@t_h,___flmul@a
  8568  00187C  C169  F02B         	movff	powf@t_h+1,___flmul@a+1
  8569  001880  C16A  F02C         	movff	powf@t_h+2,___flmul@a+2
  8570  001884  C16B  F02D         	movff	powf@t_h+3,___flmul@a+3
  8571  001888  C16C  F026         	movff	powf@s_h,___flmul@b
  8572  00188C  C16D  F027         	movff	powf@s_h+1,___flmul@b+1
  8573  001890  C16E  F028         	movff	powf@s_h+2,___flmul@b+2
  8574  001894  C16F  F029         	movff	powf@s_h+3,___flmul@b+3
  8575  001898  EC8B  F025         	call	___flmul	;wreg free
  8576  00189C  C026  F043         	movff	?___flmul,___flsub@a
  8577  0018A0  C027  F044         	movff	?___flmul+1,___flsub@a+1
  8578  0018A4  C028  F045         	movff	?___flmul+2,___flsub@a+2
  8579  0018A8  C029  F046         	movff	?___flmul+3,___flsub@a+3
  8580  0018AC  C174  F03F         	movff	powf@u,___flsub@b
  8581  0018B0  C175  F040         	movff	powf@u+1,___flsub@b+1
  8582  0018B4  C176  F041         	movff	powf@u+2,___flsub@b+2
  8583  0018B8  C177  F042         	movff	powf@u+3,___flsub@b+3
  8584  0018BC  ECB6  F034         	call	___flsub	;wreg free
  8585  0018C0  C03F  F198         	movff	?___flsub,_powf$1985
  8586  0018C4  C040  F199         	movff	?___flsub+1,_powf$1985+1
  8587  0018C8  C041  F19A         	movff	?___flsub+2,_powf$1985+2
  8588  0018CC  C042  F19B         	movff	?___flsub+3,_powf$1985+3
  8589  0018D0  C134  F02A         	movff	powf@t_l,___flmul@a
  8590  0018D4  C135  F02B         	movff	powf@t_l+1,___flmul@a+1
  8591  0018D8  C136  F02C         	movff	powf@t_l+2,___flmul@a+2
  8592  0018DC  C137  F02D         	movff	powf@t_l+3,___flmul@a+3
  8593  0018E0  C16C  F026         	movff	powf@s_h,___flmul@b
  8594  0018E4  C16D  F027         	movff	powf@s_h+1,___flmul@b+1
  8595  0018E8  C16E  F028         	movff	powf@s_h+2,___flmul@b+2
  8596  0018EC  C16F  F029         	movff	powf@s_h+3,___flmul@b+3
  8597  0018F0  EC8B  F025         	call	___flmul	;wreg free
  8598  0018F4  C026  F043         	movff	?___flmul,___flsub@a
  8599  0018F8  C027  F044         	movff	?___flmul+1,___flsub@a+1
  8600  0018FC  C028  F045         	movff	?___flmul+2,___flsub@a+2
  8601  001900  C029  F046         	movff	?___flmul+3,___flsub@a+3
  8602  001904  C198  F03F         	movff	_powf$1985,___flsub@b
  8603  001908  C199  F040         	movff	_powf$1985+1,___flsub@b+1
  8604  00190C  C19A  F041         	movff	_powf$1985+2,___flsub@b+2
  8605  001910  C19B  F042         	movff	_powf$1985+3,___flsub@b+3
  8606  001914  ECB6  F034         	call	___flsub	;wreg free
  8607  001918  C03F  F154         	movff	?___flsub,_powf$1983
  8608  00191C  C040  F155         	movff	?___flsub+1,_powf$1983+1
  8609  001920  C041  F156         	movff	?___flsub+2,_powf$1983+2
  8610  001924  C042  F157         	movff	?___flsub+3,_powf$1983+3
  8611  001928  C154  F026         	movff	_powf$1983,___flmul@b
  8612  00192C  C155  F027         	movff	_powf$1983+1,___flmul@b+1
  8613  001930  C156  F028         	movff	_powf$1983+2,___flmul@b+2
  8614  001934  C157  F029         	movff	_powf$1983+3,___flmul@b+3
  8615  001938  C178  F02A         	movff	powf@v,___flmul@a
  8616  00193C  C179  F02B         	movff	powf@v+1,___flmul@a+1
  8617  001940  C17A  F02C         	movff	powf@v+2,___flmul@a+2
  8618  001944  C17B  F02D         	movff	powf@v+3,___flmul@a+3
  8619  001948  EC8B  F025         	call	___flmul	;wreg free
  8620  00194C  C026  F130         	movff	?___flmul,powf@s_l
  8621  001950  C027  F131         	movff	?___flmul+1,powf@s_l+1
  8622  001954  C028  F132         	movff	?___flmul+2,powf@s_l+2
  8623  001958  C029  F133         	movff	?___flmul+3,powf@s_l+3
  8624  00195C  C15C  F026         	movff	powf@s,___flmul@b
  8625  001960  C15D  F027         	movff	powf@s+1,___flmul@b+1
  8626  001964  C15E  F028         	movff	powf@s+2,___flmul@b+2
  8627  001968  C15F  F029         	movff	powf@s+3,___flmul@b+3
  8628  00196C  C15C  F02A         	movff	powf@s,___flmul@a
  8629  001970  C15D  F02B         	movff	powf@s+1,___flmul@a+1
  8630  001974  C15E  F02C         	movff	powf@s+2,___flmul@a+2
  8631  001978  C15F  F02D         	movff	powf@s+3,___flmul@a+3
  8632  00197C  EC8B  F025         	call	___flmul	;wreg free
  8633  001980  C026  F18C         	movff	?___flmul,powf@s2
  8634  001984  C027  F18D         	movff	?___flmul+1,powf@s2+1
  8635  001988  C028  F18E         	movff	?___flmul+2,powf@s2+2
  8636  00198C  C029  F18F         	movff	?___flmul+3,powf@s2+3
  8637  001990  0E55               	movlw	85
  8638  001992  6E16               	movwf	___fladd@a^0,c
  8639  001994  0E32               	movlw	50
  8640  001996  6E17               	movwf	(___fladd@a+1)^0,c
  8641  001998  0E6C               	movlw	108
  8642  00199A  6E18               	movwf	(___fladd@a+2)^0,c
  8643  00199C  0E3E               	movlw	62
  8644  00199E  6E19               	movwf	(___fladd@a+3)^0,c
  8645  0019A0  0E42               	movlw	66
  8646  0019A2  6E2A               	movwf	___flmul@a^0,c
  8647  0019A4  0EF1               	movlw	241
  8648  0019A6  6E2B               	movwf	(___flmul@a+1)^0,c
  8649  0019A8  0E53               	movlw	83
  8650  0019AA  6E2C               	movwf	(___flmul@a+2)^0,c
  8651  0019AC  0E3E               	movlw	62
  8652  0019AE  6E2D               	movwf	(___flmul@a+3)^0,c
  8653  0019B0  C18C  F026         	movff	powf@s2,___flmul@b
  8654  0019B4  C18D  F027         	movff	powf@s2+1,___flmul@b+1
  8655  0019B8  C18E  F028         	movff	powf@s2+2,___flmul@b+2
  8656  0019BC  C18F  F029         	movff	powf@s2+3,___flmul@b+3
  8657  0019C0  EC8B  F025         	call	___flmul	;wreg free
  8658  0019C4  C026  F012         	movff	?___flmul,___fladd@b
  8659  0019C8  C027  F013         	movff	?___flmul+1,___fladd@b+1
  8660  0019CC  C028  F014         	movff	?___flmul+2,___fladd@b+2
  8661  0019D0  C029  F015         	movff	?___flmul+3,___fladd@b+3
  8662  0019D4  ECF5  F020         	call	___fladd	;wreg free
  8663  0019D8  C012  F1A4         	movff	?___fladd,_powf$1982
  8664  0019DC  C013  F1A5         	movff	?___fladd+1,_powf$1982+1
  8665  0019E0  C014  F1A6         	movff	?___fladd+2,_powf$1982+2
  8666  0019E4  C015  F1A7         	movff	?___fladd+3,_powf$1982+3
  8667  0019E8  0E05               	movlw	5
  8668  0019EA  6E16               	movwf	___fladd@a^0,c
  8669  0019EC  0EA3               	movlw	163
  8670  0019EE  6E17               	movwf	(___fladd@a+1)^0,c
  8671  0019F0  0E8B               	movlw	139
  8672  0019F2  6E18               	movwf	(___fladd@a+2)^0,c
  8673  0019F4  0E3E               	movlw	62
  8674  0019F6  6E19               	movwf	(___fladd@a+3)^0,c
  8675  0019F8  C18C  F02A         	movff	powf@s2,___flmul@a
  8676  0019FC  C18D  F02B         	movff	powf@s2+1,___flmul@a+1
  8677  001A00  C18E  F02C         	movff	powf@s2+2,___flmul@a+2
  8678  001A04  C18F  F02D         	movff	powf@s2+3,___flmul@a+3
  8679  001A08  C1A4  F026         	movff	_powf$1982,___flmul@b
  8680  001A0C  C1A5  F027         	movff	_powf$1982+1,___flmul@b+1
  8681  001A10  C1A6  F028         	movff	_powf$1982+2,___flmul@b+2
  8682  001A14  C1A7  F029         	movff	_powf$1982+3,___flmul@b+3
  8683  001A18  EC8B  F025         	call	___flmul	;wreg free
  8684  001A1C  C026  F012         	movff	?___flmul,___fladd@b
  8685  001A20  C027  F013         	movff	?___flmul+1,___fladd@b+1
  8686  001A24  C028  F014         	movff	?___flmul+2,___fladd@b+2
  8687  001A28  C029  F015         	movff	?___flmul+3,___fladd@b+3
  8688  001A2C  ECF5  F020         	call	___fladd	;wreg free
  8689  001A30  C012  F154         	movff	?___fladd,_powf$1983
  8690  001A34  C013  F155         	movff	?___fladd+1,_powf$1983+1
  8691  001A38  C014  F156         	movff	?___fladd+2,_powf$1983+2
  8692  001A3C  C015  F157         	movff	?___fladd+3,_powf$1983+3
  8693  001A40  0EAB               	movlw	171
  8694  001A42  6E16               	movwf	___fladd@a^0,c
  8695  001A44  0EAA               	movlw	170
  8696  001A46  6E17               	movwf	(___fladd@a+1)^0,c
  8697  001A48  0EAA               	movlw	170
  8698  001A4A  6E18               	movwf	(___fladd@a+2)^0,c
  8699  001A4C  0E3E               	movlw	62
  8700  001A4E  6E19               	movwf	(___fladd@a+3)^0,c
  8701  001A50  C18C  F02A         	movff	powf@s2,___flmul@a
  8702  001A54  C18D  F02B         	movff	powf@s2+1,___flmul@a+1
  8703  001A58  C18E  F02C         	movff	powf@s2+2,___flmul@a+2
  8704  001A5C  C18F  F02D         	movff	powf@s2+3,___flmul@a+3
  8705  001A60  C154  F026         	movff	_powf$1983,___flmul@b
  8706  001A64  C155  F027         	movff	_powf$1983+1,___flmul@b+1
  8707  001A68  C156  F028         	movff	_powf$1983+2,___flmul@b+2
  8708  001A6C  C157  F029         	movff	_powf$1983+3,___flmul@b+3
  8709  001A70  EC8B  F025         	call	___flmul	;wreg free
  8710  001A74  C026  F012         	movff	?___flmul,___fladd@b
  8711  001A78  C027  F013         	movff	?___flmul+1,___fladd@b+1
  8712  001A7C  C028  F014         	movff	?___flmul+2,___fladd@b+2
  8713  001A80  C029  F015         	movff	?___flmul+3,___fladd@b+3
  8714  001A84  ECF5  F020         	call	___fladd	;wreg free
  8715  001A88  C012  F148         	movff	?___fladd,_powf$1984
  8716  001A8C  C013  F149         	movff	?___fladd+1,_powf$1984+1
  8717  001A90  C014  F14A         	movff	?___fladd+2,_powf$1984+2
  8718  001A94  C015  F14B         	movff	?___fladd+3,_powf$1984+3
  8719  001A98  0EB7               	movlw	183
  8720  001A9A  6E16               	movwf	___fladd@a^0,c
  8721  001A9C  0E6D               	movlw	109
  8722  001A9E  6E17               	movwf	(___fladd@a+1)^0,c
  8723  001AA0  0EDB               	movlw	219
  8724  001AA2  6E18               	movwf	(___fladd@a+2)^0,c
  8725  001AA4  0E3E               	movlw	62
  8726  001AA6  6E19               	movwf	(___fladd@a+3)^0,c
  8727  001AA8  C18C  F02A         	movff	powf@s2,___flmul@a
  8728  001AAC  C18D  F02B         	movff	powf@s2+1,___flmul@a+1
  8729  001AB0  C18E  F02C         	movff	powf@s2+2,___flmul@a+2
  8730  001AB4  C18F  F02D         	movff	powf@s2+3,___flmul@a+3
  8731  001AB8  C148  F026         	movff	_powf$1984,___flmul@b
  8732  001ABC  C149  F027         	movff	_powf$1984+1,___flmul@b+1
  8733  001AC0  C14A  F028         	movff	_powf$1984+2,___flmul@b+2
  8734  001AC4  C14B  F029         	movff	_powf$1984+3,___flmul@b+3
  8735  001AC8  EC8B  F025         	call	___flmul	;wreg free
  8736  001ACC  C026  F012         	movff	?___flmul,___fladd@b
  8737  001AD0  C027  F013         	movff	?___flmul+1,___fladd@b+1
  8738  001AD4  C028  F014         	movff	?___flmul+2,___fladd@b+2
  8739  001AD8  C029  F015         	movff	?___flmul+3,___fladd@b+3
  8740  001ADC  ECF5  F020         	call	___fladd	;wreg free
  8741  001AE0  C012  F138         	movff	?___fladd,_powf$1986
  8742  001AE4  C013  F139         	movff	?___fladd+1,_powf$1986+1
  8743  001AE8  C014  F13A         	movff	?___fladd+2,_powf$1986+2
  8744  001AEC  C015  F13B         	movff	?___fladd+3,_powf$1986+3
  8745  001AF0  0E9A               	movlw	154
  8746  001AF2  6E16               	movwf	___fladd@a^0,c
  8747  001AF4  0E99               	movlw	153
  8748  001AF6  6E17               	movwf	(___fladd@a+1)^0,c
  8749  001AF8  0E19               	movlw	25
  8750  001AFA  6E18               	movwf	(___fladd@a+2)^0,c
  8751  001AFC  0E3F               	movlw	63
  8752  001AFE  6E19               	movwf	(___fladd@a+3)^0,c
  8753  001B00  C18C  F02A         	movff	powf@s2,___flmul@a
  8754  001B04  C18D  F02B         	movff	powf@s2+1,___flmul@a+1
  8755  001B08  C18E  F02C         	movff	powf@s2+2,___flmul@a+2
  8756  001B0C  C18F  F02D         	movff	powf@s2+3,___flmul@a+3
  8757  001B10  C138  F026         	movff	_powf$1986,___flmul@b
  8758  001B14  C139  F027         	movff	_powf$1986+1,___flmul@b+1
  8759  001B18  C13A  F028         	movff	_powf$1986+2,___flmul@b+2
  8760  001B1C  C13B  F029         	movff	_powf$1986+3,___flmul@b+3
  8761  001B20  EC8B  F025         	call	___flmul	;wreg free
  8762  001B24  C026  F012         	movff	?___flmul,___fladd@b
  8763  001B28  C027  F013         	movff	?___flmul+1,___fladd@b+1
  8764  001B2C  C028  F014         	movff	?___flmul+2,___fladd@b+2
  8765  001B30  C029  F015         	movff	?___flmul+3,___fladd@b+3
  8766  001B34  ECF5  F020         	call	___fladd	;wreg free
  8767  001B38  C012  F100         	movff	?___fladd,_powf$1987
  8768  001B3C  C013  F101         	movff	?___fladd+1,_powf$1987+1
  8769  001B40  C014  F102         	movff	?___fladd+2,_powf$1987+2
  8770  001B44  C015  F103         	movff	?___fladd+3,_powf$1987+3
  8771  001B48  C18C  F02A         	movff	powf@s2,___flmul@a
  8772  001B4C  C18D  F02B         	movff	powf@s2+1,___flmul@a+1
  8773  001B50  C18E  F02C         	movff	powf@s2+2,___flmul@a+2
  8774  001B54  C18F  F02D         	movff	powf@s2+3,___flmul@a+3
  8775  001B58  C18C  F026         	movff	powf@s2,___flmul@b
  8776  001B5C  C18D  F027         	movff	powf@s2+1,___flmul@b+1
  8777  001B60  C18E  F028         	movff	powf@s2+2,___flmul@b+2
  8778  001B64  C18F  F029         	movff	powf@s2+3,___flmul@b+3
  8779  001B68  EC8B  F025         	call	___flmul	;wreg free
  8780  001B6C  C026  F104         	movff	?___flmul,_powf$1988
  8781  001B70  C027  F105         	movff	?___flmul+1,_powf$1988+1
  8782  001B74  C028  F106         	movff	?___flmul+2,_powf$1988+2
  8783  001B78  C029  F107         	movff	?___flmul+3,_powf$1988+3
  8784  001B7C  C100  F026         	movff	_powf$1987,___flmul@b
  8785  001B80  C101  F027         	movff	_powf$1987+1,___flmul@b+1
  8786  001B84  C102  F028         	movff	_powf$1987+2,___flmul@b+2
  8787  001B88  C103  F029         	movff	_powf$1987+3,___flmul@b+3
  8788  001B8C  C104  F02A         	movff	_powf$1988,___flmul@a
  8789  001B90  C105  F02B         	movff	_powf$1988+1,___flmul@a+1
  8790  001B94  C106  F02C         	movff	_powf$1988+2,___flmul@a+2
  8791  001B98  C107  F02D         	movff	_powf$1988+3,___flmul@a+3
  8792  001B9C  EC8B  F025         	call	___flmul	;wreg free
  8793  001BA0  C026  F14C         	movff	?___flmul,powf@r
  8794  001BA4  C027  F14D         	movff	?___flmul+1,powf@r+1
  8795  001BA8  C028  F14E         	movff	?___flmul+2,powf@r+2
  8796  001BAC  C029  F14F         	movff	?___flmul+3,powf@r+3
  8797  001BB0  C130  F02A         	movff	powf@s_l,___flmul@a
  8798  001BB4  C131  F02B         	movff	powf@s_l+1,___flmul@a+1
  8799  001BB8  C132  F02C         	movff	powf@s_l+2,___flmul@a+2
  8800  001BBC  C133  F02D         	movff	powf@s_l+3,___flmul@a+3
  8801  001BC0  C15C  F016         	movff	powf@s,___fladd@a
  8802  001BC4  C15D  F017         	movff	powf@s+1,___fladd@a+1
  8803  001BC8  C15E  F018         	movff	powf@s+2,___fladd@a+2
  8804  001BCC  C15F  F019         	movff	powf@s+3,___fladd@a+3
  8805  001BD0  C16C  F012         	movff	powf@s_h,___fladd@b
  8806  001BD4  C16D  F013         	movff	powf@s_h+1,___fladd@b+1
  8807  001BD8  C16E  F014         	movff	powf@s_h+2,___fladd@b+2
  8808  001BDC  C16F  F015         	movff	powf@s_h+3,___fladd@b+3
  8809  001BE0  ECF5  F020         	call	___fladd	;wreg free
  8810  001BE4  C012  F026         	movff	?___fladd,___flmul@b
  8811  001BE8  C013  F027         	movff	?___fladd+1,___flmul@b+1
  8812  001BEC  C014  F028         	movff	?___fladd+2,___flmul@b+2
  8813  001BF0  C015  F029         	movff	?___fladd+3,___flmul@b+3
  8814  001BF4  EC8B  F025         	call	___flmul	;wreg free
  8815  001BF8  C026  F158         	movff	?___flmul,_powf$1989
  8816  001BFC  C027  F159         	movff	?___flmul+1,_powf$1989+1
  8817  001C00  C028  F15A         	movff	?___flmul+2,_powf$1989+2
  8818  001C04  C029  F15B         	movff	?___flmul+3,_powf$1989+3
  8819  001C08  C14C  F012         	movff	powf@r,___fladd@b
  8820  001C0C  C14D  F013         	movff	powf@r+1,___fladd@b+1
  8821  001C10  C14E  F014         	movff	powf@r+2,___fladd@b+2
  8822  001C14  C14F  F015         	movff	powf@r+3,___fladd@b+3
  8823  001C18  C158  F016         	movff	_powf$1989,___fladd@a
  8824  001C1C  C159  F017         	movff	_powf$1989+1,___fladd@a+1
  8825  001C20  C15A  F018         	movff	_powf$1989+2,___fladd@a+2
  8826  001C24  C15B  F019         	movff	_powf$1989+3,___fladd@a+3
  8827  001C28  ECF5  F020         	call	___fladd	;wreg free
  8828  001C2C  C012  F14C         	movff	?___fladd,powf@r
  8829  001C30  C013  F14D         	movff	?___fladd+1,powf@r+1
  8830  001C34  C014  F14E         	movff	?___fladd+2,powf@r+2
  8831  001C38  C015  F14F         	movff	?___fladd+3,powf@r+3
  8832  001C3C  C16C  F026         	movff	powf@s_h,___flmul@b
  8833  001C40  C16D  F027         	movff	powf@s_h+1,___flmul@b+1
  8834  001C44  C16E  F028         	movff	powf@s_h+2,___flmul@b+2
  8835  001C48  C16F  F029         	movff	powf@s_h+3,___flmul@b+3
  8836  001C4C  C16C  F02A         	movff	powf@s_h,___flmul@a
  8837  001C50  C16D  F02B         	movff	powf@s_h+1,___flmul@a+1
  8838  001C54  C16E  F02C         	movff	powf@s_h+2,___flmul@a+2
  8839  001C58  C16F  F02D         	movff	powf@s_h+3,___flmul@a+3
  8840  001C5C  EC8B  F025         	call	___flmul	;wreg free
  8841  001C60  C026  F18C         	movff	?___flmul,powf@s2
  8842  001C64  C027  F18D         	movff	?___flmul+1,powf@s2+1
  8843  001C68  C028  F18E         	movff	?___flmul+2,powf@s2+2
  8844  001C6C  C029  F18F         	movff	?___flmul+3,powf@s2+3
  8845  001C70  0E00               	movlw	0
  8846  001C72  6E16               	movwf	___fladd@a^0,c
  8847  001C74  0E00               	movlw	0
  8848  001C76  6E17               	movwf	(___fladd@a+1)^0,c
  8849  001C78  0E40               	movlw	64
  8850  001C7A  6E18               	movwf	(___fladd@a+2)^0,c
  8851  001C7C  0E40               	movlw	64
  8852  001C7E  6E19               	movwf	(___fladd@a+3)^0,c
  8853  001C80  C18C  F012         	movff	powf@s2,___fladd@b
  8854  001C84  C18D  F013         	movff	powf@s2+1,___fladd@b+1
  8855  001C88  C18E  F014         	movff	powf@s2+2,___fladd@b+2
  8856  001C8C  C18F  F015         	movff	powf@s2+3,___fladd@b+3
  8857  001C90  ECF5  F020         	call	___fladd	;wreg free
  8858  001C94  C012  F158         	movff	?___fladd,_powf$1989
  8859  001C98  C013  F159         	movff	?___fladd+1,_powf$1989+1
  8860  001C9C  C014  F15A         	movff	?___fladd+2,_powf$1989+2
  8861  001CA0  C015  F15B         	movff	?___fladd+3,_powf$1989+3
  8862  001CA4  C158  F012         	movff	_powf$1989,___fladd@b
  8863  001CA8  C159  F013         	movff	_powf$1989+1,___fladd@b+1
  8864  001CAC  C15A  F014         	movff	_powf$1989+2,___fladd@b+2
  8865  001CB0  C15B  F015         	movff	_powf$1989+3,___fladd@b+3
  8866  001CB4  C14C  F016         	movff	powf@r,___fladd@a
  8867  001CB8  C14D  F017         	movff	powf@r+1,___fladd@a+1
  8868  001CBC  C14E  F018         	movff	powf@r+2,___fladd@a+2
  8869  001CC0  C14F  F019         	movff	powf@r+3,___fladd@a+3
  8870  001CC4  ECF5  F020         	call	___fladd	;wreg free
  8871  001CC8  C012  F168         	movff	?___fladd,powf@t_h
  8872  001CCC  C013  F169         	movff	?___fladd+1,powf@t_h+1
  8873  001CD0  C014  F16A         	movff	?___fladd+2,powf@t_h+2
  8874  001CD4  C015  F16B         	movff	?___fladd+3,powf@t_h+3
  8875  001CD8  C168  F1B8         	movff	powf@t_h,powf@__xc8_float_word
  8876  001CDC  C169  F1B9         	movff	powf@t_h+1,powf@__xc8_float_word+1
  8877  001CE0  C16A  F1BA         	movff	powf@t_h+2,powf@__xc8_float_word+2
  8878  001CE4  C16B  F1BB         	movff	powf@t_h+3,powf@__xc8_float_word+3
  8879  001CE8  C1B8  F194         	movff	powf@__xc8_float_word,powf@is
  8880  001CEC  C1B9  F195         	movff	powf@__xc8_float_word+1,powf@is+1
  8881  001CF0  C1BA  F196         	movff	powf@__xc8_float_word+2,powf@is+2
  8882  001CF4  C1BB  F197         	movff	powf@__xc8_float_word+3,powf@is+3
  8883  001CF8  0E00               	movlw	0
  8884  001CFA  0101               	movlb	1	; () banked
  8885  001CFC  1594               	andwf	powf@is& (0+255),w,b
  8886  001CFE  6FB8               	movwf	powf@__xc8_float_word& (0+255),b
  8887  001D00  0EF0               	movlw	240
  8888  001D02  1595               	andwf	(powf@is+1)& (0+255),w,b
  8889  001D04  6FB9               	movwf	(powf@__xc8_float_word+1)& (0+255),b
  8890  001D06  0EFF               	movlw	255
  8891  001D08  1596               	andwf	(powf@is+2)& (0+255),w,b
  8892  001D0A  6FBA               	movwf	(powf@__xc8_float_word+2)& (0+255),b
  8893  001D0C  0EFF               	movlw	255
  8894  001D0E  1597               	andwf	(powf@is+3)& (0+255),w,b
  8895  001D10  6FBB               	movwf	(powf@__xc8_float_word+3)& (0+255),b
  8896  001D12                     
  8897                           ; BSR set to: 1
  8898  001D12  C1B8  F168         	movff	powf@__xc8_float_word,powf@t_h
  8899  001D16  C1B9  F169         	movff	powf@__xc8_float_word+1,powf@t_h+1
  8900  001D1A  C1BA  F16A         	movff	powf@__xc8_float_word+2,powf@t_h+2
  8901  001D1E  C1BB  F16B         	movff	powf@__xc8_float_word+3,powf@t_h+3
  8902  001D22                     
  8903                           ; BSR set to: 1
  8904  001D22  0E00               	movlw	0
  8905  001D24  6E16               	movwf	___fladd@a^0,c
  8906  001D26  0E00               	movlw	0
  8907  001D28  6E17               	movwf	(___fladd@a+1)^0,c
  8908  001D2A  0E40               	movlw	64
  8909  001D2C  6E18               	movwf	(___fladd@a+2)^0,c
  8910  001D2E  0EC0               	movlw	192
  8911  001D30  6E19               	movwf	(___fladd@a+3)^0,c
  8912  001D32  C168  F012         	movff	powf@t_h,___fladd@b
  8913  001D36  C169  F013         	movff	powf@t_h+1,___fladd@b+1
  8914  001D3A  C16A  F014         	movff	powf@t_h+2,___fladd@b+2
  8915  001D3E  C16B  F015         	movff	powf@t_h+3,___fladd@b+3
  8916  001D42  ECF5  F020         	call	___fladd	;wreg free
  8917  001D46  C012  F13C         	movff	?___fladd,_powf$1990
  8918  001D4A  C013  F13D         	movff	?___fladd+1,_powf$1990+1
  8919  001D4E  C014  F13E         	movff	?___fladd+2,_powf$1990+2
  8920  001D52  C015  F13F         	movff	?___fladd+3,_powf$1990+3
  8921  001D56  C18C  F043         	movff	powf@s2,___flsub@a
  8922  001D5A  C18D  F044         	movff	powf@s2+1,___flsub@a+1
  8923  001D5E  C18E  F045         	movff	powf@s2+2,___flsub@a+2
  8924  001D62  C18F  F046         	movff	powf@s2+3,___flsub@a+3
  8925  001D66  C13C  F03F         	movff	_powf$1990,___flsub@b
  8926  001D6A  C13D  F040         	movff	_powf$1990+1,___flsub@b+1
  8927  001D6E  C13E  F041         	movff	_powf$1990+2,___flsub@b+2
  8928  001D72  C13F  F042         	movff	_powf$1990+3,___flsub@b+3
  8929  001D76  ECB6  F034         	call	___flsub	;wreg free
  8930  001D7A  C03F  F140         	movff	?___flsub,_powf$1991
  8931  001D7E  C040  F141         	movff	?___flsub+1,_powf$1991+1
  8932  001D82  C041  F142         	movff	?___flsub+2,_powf$1991+2
  8933  001D86  C042  F143         	movff	?___flsub+3,_powf$1991+3
  8934  001D8A  C14C  F03F         	movff	powf@r,___flsub@b
  8935  001D8E  C14D  F040         	movff	powf@r+1,___flsub@b+1
  8936  001D92  C14E  F041         	movff	powf@r+2,___flsub@b+2
  8937  001D96  C14F  F042         	movff	powf@r+3,___flsub@b+3
  8938  001D9A  C140  F043         	movff	_powf$1991,___flsub@a
  8939  001D9E  C141  F044         	movff	_powf$1991+1,___flsub@a+1
  8940  001DA2  C142  F045         	movff	_powf$1991+2,___flsub@a+2
  8941  001DA6  C143  F046         	movff	_powf$1991+3,___flsub@a+3
  8942  001DAA  ECB6  F034         	call	___flsub	;wreg free
  8943  001DAE  C03F  F134         	movff	?___flsub,powf@t_l
  8944  001DB2  C040  F135         	movff	?___flsub+1,powf@t_l+1
  8945  001DB6  C041  F136         	movff	?___flsub+2,powf@t_l+2
  8946  001DBA  C042  F137         	movff	?___flsub+3,powf@t_l+3
  8947  001DBE  C16C  F026         	movff	powf@s_h,___flmul@b
  8948  001DC2  C16D  F027         	movff	powf@s_h+1,___flmul@b+1
  8949  001DC6  C16E  F028         	movff	powf@s_h+2,___flmul@b+2
  8950  001DCA  C16F  F029         	movff	powf@s_h+3,___flmul@b+3
  8951  001DCE  C168  F02A         	movff	powf@t_h,___flmul@a
  8952  001DD2  C169  F02B         	movff	powf@t_h+1,___flmul@a+1
  8953  001DD6  C16A  F02C         	movff	powf@t_h+2,___flmul@a+2
  8954  001DDA  C16B  F02D         	movff	powf@t_h+3,___flmul@a+3
  8955  001DDE  EC8B  F025         	call	___flmul	;wreg free
  8956  001DE2  C026  F174         	movff	?___flmul,powf@u
  8957  001DE6  C027  F175         	movff	?___flmul+1,powf@u+1
  8958  001DEA  C028  F176         	movff	?___flmul+2,powf@u+2
  8959  001DEE  C029  F177         	movff	?___flmul+3,powf@u+3
  8960  001DF2  C168  F02A         	movff	powf@t_h,___flmul@a
  8961  001DF6  C169  F02B         	movff	powf@t_h+1,___flmul@a+1
  8962  001DFA  C16A  F02C         	movff	powf@t_h+2,___flmul@a+2
  8963  001DFE  C16B  F02D         	movff	powf@t_h+3,___flmul@a+3
  8964  001E02  C130  F026         	movff	powf@s_l,___flmul@b
  8965  001E06  C131  F027         	movff	powf@s_l+1,___flmul@b+1
  8966  001E0A  C132  F028         	movff	powf@s_l+2,___flmul@b+2
  8967  001E0E  C133  F029         	movff	powf@s_l+3,___flmul@b+3
  8968  001E12  EC8B  F025         	call	___flmul	;wreg free
  8969  001E16  C026  F012         	movff	?___flmul,___fladd@b
  8970  001E1A  C027  F013         	movff	?___flmul+1,___fladd@b+1
  8971  001E1E  C028  F014         	movff	?___flmul+2,___fladd@b+2
  8972  001E22  C029  F015         	movff	?___flmul+3,___fladd@b+3
  8973  001E26  C15C  F02A         	movff	powf@s,___flmul@a
  8974  001E2A  C15D  F02B         	movff	powf@s+1,___flmul@a+1
  8975  001E2E  C15E  F02C         	movff	powf@s+2,___flmul@a+2
  8976  001E32  C15F  F02D         	movff	powf@s+3,___flmul@a+3
  8977  001E36  C134  F026         	movff	powf@t_l,___flmul@b
  8978  001E3A  C135  F027         	movff	powf@t_l+1,___flmul@b+1
  8979  001E3E  C136  F028         	movff	powf@t_l+2,___flmul@b+2
  8980  001E42  C137  F029         	movff	powf@t_l+3,___flmul@b+3
  8981  001E46  EC8B  F025         	call	___flmul	;wreg free
  8982  001E4A  C026  F016         	movff	?___flmul,___fladd@a
  8983  001E4E  C027  F017         	movff	?___flmul+1,___fladd@a+1
  8984  001E52  C028  F018         	movff	?___flmul+2,___fladd@a+2
  8985  001E56  C029  F019         	movff	?___flmul+3,___fladd@a+3
  8986  001E5A  ECF5  F020         	call	___fladd	;wreg free
  8987  001E5E  C012  F178         	movff	?___fladd,powf@v
  8988  001E62  C013  F179         	movff	?___fladd+1,powf@v+1
  8989  001E66  C014  F17A         	movff	?___fladd+2,powf@v+2
  8990  001E6A  C015  F17B         	movff	?___fladd+3,powf@v+3
  8991  001E6E  C174  F012         	movff	powf@u,___fladd@b
  8992  001E72  C175  F013         	movff	powf@u+1,___fladd@b+1
  8993  001E76  C176  F014         	movff	powf@u+2,___fladd@b+2
  8994  001E7A  C177  F015         	movff	powf@u+3,___fladd@b+3
  8995  001E7E  C178  F016         	movff	powf@v,___fladd@a
  8996  001E82  C179  F017         	movff	powf@v+1,___fladd@a+1
  8997  001E86  C17A  F018         	movff	powf@v+2,___fladd@a+2
  8998  001E8A  C17B  F019         	movff	powf@v+3,___fladd@a+3
  8999  001E8E  ECF5  F020         	call	___fladd	;wreg free
  9000  001E92  C012  F19C         	movff	?___fladd,powf@p_h
  9001  001E96  C013  F19D         	movff	?___fladd+1,powf@p_h+1
  9002  001E9A  C014  F19E         	movff	?___fladd+2,powf@p_h+2
  9003  001E9E  C015  F19F         	movff	?___fladd+3,powf@p_h+3
  9004  001EA2  C19C  F1B8         	movff	powf@p_h,powf@__xc8_float_word
  9005  001EA6  C19D  F1B9         	movff	powf@p_h+1,powf@__xc8_float_word+1
  9006  001EAA  C19E  F1BA         	movff	powf@p_h+2,powf@__xc8_float_word+2
  9007  001EAE  C19F  F1BB         	movff	powf@p_h+3,powf@__xc8_float_word+3
  9008  001EB2  C1B8  F194         	movff	powf@__xc8_float_word,powf@is
  9009  001EB6  C1B9  F195         	movff	powf@__xc8_float_word+1,powf@is+1
  9010  001EBA  C1BA  F196         	movff	powf@__xc8_float_word+2,powf@is+2
  9011  001EBE  C1BB  F197         	movff	powf@__xc8_float_word+3,powf@is+3
  9012  001EC2  0E00               	movlw	0
  9013  001EC4  0101               	movlb	1	; () banked
  9014  001EC6  1594               	andwf	powf@is& (0+255),w,b
  9015  001EC8  6FB8               	movwf	powf@__xc8_float_word& (0+255),b
  9016  001ECA  0EF0               	movlw	240
  9017  001ECC  1595               	andwf	(powf@is+1)& (0+255),w,b
  9018  001ECE  6FB9               	movwf	(powf@__xc8_float_word+1)& (0+255),b
  9019  001ED0  0EFF               	movlw	255
  9020  001ED2  1596               	andwf	(powf@is+2)& (0+255),w,b
  9021  001ED4  6FBA               	movwf	(powf@__xc8_float_word+2)& (0+255),b
  9022  001ED6  0EFF               	movlw	255
  9023  001ED8  1597               	andwf	(powf@is+3)& (0+255),w,b
  9024  001EDA  6FBB               	movwf	(powf@__xc8_float_word+3)& (0+255),b
  9025  001EDC                     
  9026                           ; BSR set to: 1
  9027  001EDC  C1B8  F19C         	movff	powf@__xc8_float_word,powf@p_h
  9028  001EE0  C1B9  F19D         	movff	powf@__xc8_float_word+1,powf@p_h+1
  9029  001EE4  C1BA  F19E         	movff	powf@__xc8_float_word+2,powf@p_h+2
  9030  001EE8  C1BB  F19F         	movff	powf@__xc8_float_word+3,powf@p_h+3
  9031  001EEC                     
  9032                           ; BSR set to: 1
  9033  001EEC  C174  F043         	movff	powf@u,___flsub@a
  9034  001EF0  C175  F044         	movff	powf@u+1,___flsub@a+1
  9035  001EF4  C176  F045         	movff	powf@u+2,___flsub@a+2
  9036  001EF8  C177  F046         	movff	powf@u+3,___flsub@a+3
  9037  001EFC  C19C  F03F         	movff	powf@p_h,___flsub@b
  9038  001F00  C19D  F040         	movff	powf@p_h+1,___flsub@b+1
  9039  001F04  C19E  F041         	movff	powf@p_h+2,___flsub@b+2
  9040  001F08  C19F  F042         	movff	powf@p_h+3,___flsub@b+3
  9041  001F0C  ECB6  F034         	call	___flsub	;wreg free
  9042  001F10  C03F  F198         	movff	?___flsub,_powf$1985
  9043  001F14  C040  F199         	movff	?___flsub+1,_powf$1985+1
  9044  001F18  C041  F19A         	movff	?___flsub+2,_powf$1985+2
  9045  001F1C  C042  F19B         	movff	?___flsub+3,_powf$1985+3
  9046  001F20  C178  F03F         	movff	powf@v,___flsub@b
  9047  001F24  C179  F040         	movff	powf@v+1,___flsub@b+1
  9048  001F28  C17A  F041         	movff	powf@v+2,___flsub@b+2
  9049  001F2C  C17B  F042         	movff	powf@v+3,___flsub@b+3
  9050  001F30  C198  F043         	movff	_powf$1985,___flsub@a
  9051  001F34  C199  F044         	movff	_powf$1985+1,___flsub@a+1
  9052  001F38  C19A  F045         	movff	_powf$1985+2,___flsub@a+2
  9053  001F3C  C19B  F046         	movff	_powf$1985+3,___flsub@a+3
  9054  001F40  ECB6  F034         	call	___flsub	;wreg free
  9055  001F44  C03F  F164         	movff	?___flsub,powf@p_l
  9056  001F48  C040  F165         	movff	?___flsub+1,powf@p_l+1
  9057  001F4C  C041  F166         	movff	?___flsub+2,powf@p_l+2
  9058  001F50  C042  F167         	movff	?___flsub+3,powf@p_l+3
  9059  001F54  C19C  F026         	movff	powf@p_h,___flmul@b
  9060  001F58  C19D  F027         	movff	powf@p_h+1,___flmul@b+1
  9061  001F5C  C19E  F028         	movff	powf@p_h+2,___flmul@b+2
  9062  001F60  C19F  F029         	movff	powf@p_h+3,___flmul@b+3
  9063  001F64  0E00               	movlw	0
  9064  001F66  6E2A               	movwf	___flmul@a^0,c
  9065  001F68  0E40               	movlw	64
  9066  001F6A  6E2B               	movwf	(___flmul@a+1)^0,c
  9067  001F6C  0E76               	movlw	118
  9068  001F6E  6E2C               	movwf	(___flmul@a+2)^0,c
  9069  001F70  0E3F               	movlw	63
  9070  001F72  6E2D               	movwf	(___flmul@a+3)^0,c
  9071  001F74  EC8B  F025         	call	___flmul	;wreg free
  9072  001F78  C026  F120         	movff	?___flmul,powf@z_h
  9073  001F7C  C027  F121         	movff	?___flmul+1,powf@z_h+1
  9074  001F80  C028  F122         	movff	?___flmul+2,powf@z_h+2
  9075  001F84  C029  F123         	movff	?___flmul+3,powf@z_h+3
  9076  001F88  0E4F               	movlw	79
  9077  001F8A  6E2A               	movwf	___flmul@a^0,c
  9078  001F8C  0E38               	movlw	56
  9079  001F8E  6E2B               	movwf	(___flmul@a+1)^0,c
  9080  001F90  0E76               	movlw	118
  9081  001F92  6E2C               	movwf	(___flmul@a+2)^0,c
  9082  001F94  0E3F               	movlw	63
  9083  001F96  6E2D               	movwf	(___flmul@a+3)^0,c
  9084  001F98  C164  F026         	movff	powf@p_l,___flmul@b
  9085  001F9C  C165  F027         	movff	powf@p_l+1,___flmul@b+1
  9086  001FA0  C166  F028         	movff	powf@p_l+2,___flmul@b+2
  9087  001FA4  C167  F029         	movff	powf@p_l+3,___flmul@b+3
  9088  001FA8  EC8B  F025         	call	___flmul	;wreg free
  9089  001FAC  C026  F016         	movff	?___flmul,___fladd@a
  9090  001FB0  C027  F017         	movff	?___flmul+1,___fladd@a+1
  9091  001FB4  C028  F018         	movff	?___flmul+2,___fladd@a+2
  9092  001FB8  C029  F019         	movff	?___flmul+3,___fladd@a+3
  9093  001FBC  0EC6               	movlw	198
  9094  001FBE  6E2A               	movwf	___flmul@a^0,c
  9095  001FC0  0E23               	movlw	35
  9096  001FC2  6E2B               	movwf	(___flmul@a+1)^0,c
  9097  001FC4  0EF6               	movlw	246
  9098  001FC6  6E2C               	movwf	(___flmul@a+2)^0,c
  9099  001FC8  0EB8               	movlw	184
  9100  001FCA  6E2D               	movwf	(___flmul@a+3)^0,c
  9101  001FCC  C19C  F026         	movff	powf@p_h,___flmul@b
  9102  001FD0  C19D  F027         	movff	powf@p_h+1,___flmul@b+1
  9103  001FD4  C19E  F028         	movff	powf@p_h+2,___flmul@b+2
  9104  001FD8  C19F  F029         	movff	powf@p_h+3,___flmul@b+3
  9105  001FDC  EC8B  F025         	call	___flmul	;wreg free
  9106  001FE0  C026  F012         	movff	?___flmul,___fladd@b
  9107  001FE4  C027  F013         	movff	?___flmul+1,___fladd@b+1
  9108  001FE8  C028  F014         	movff	?___flmul+2,___fladd@b+2
  9109  001FEC  C029  F015         	movff	?___flmul+3,___fladd@b+3
  9110  001FF0  ECF5  F020         	call	___fladd	;wreg free
  9111  001FF4  C012  F158         	movff	?___fladd,_powf$1989
  9112  001FF8  C013  F159         	movff	?___fladd+1,_powf$1989+1
  9113  001FFC  C014  F15A         	movff	?___fladd+2,_powf$1989+2
  9114  002000  C015  F15B         	movff	?___fladd+3,_powf$1989+3
  9115  002004  C158  F012         	movff	_powf$1989,___fladd@b
  9116  002008  C159  F013         	movff	_powf$1989+1,___fladd@b+1
  9117  00200C  C15A  F014         	movff	_powf$1989+2,___fladd@b+2
  9118  002010  C15B  F015         	movff	_powf$1989+3,___fladd@b+3
  9119  002014  C1A0  F0B0         	movff	powf@k,??_powf
  9120  002018  C1A1  F0B1         	movff	powf@k+1,??_powf+1
  9121  00201C  0100               	movlb	0	; () banked
  9122  00201E  90D8               	bcf	status,0,c
  9123  002020  37B0               	rlcf	??_powf& (0+255),f,b
  9124  002022  37B1               	rlcf	(??_powf+1)& (0+255),f,b
  9125  002024  90D8               	bcf	status,0,c
  9126  002026  37B0               	rlcf	??_powf& (0+255),f,b
  9127  002028  37B1               	rlcf	(??_powf+1)& (0+255),f,b
  9128  00202A  0E01               	movlw	low _dp_l
  9129  00202C  25B0               	addwf	??_powf& (0+255),w,b
  9130  00202E  6EF6               	movwf	tblptrl,c
  9131  002030  0E06               	movlw	high _dp_l
  9132  002032  21B1               	addwfc	(??_powf+1)& (0+255),w,b
  9133  002034  6EF7               	movwf	tblptrh,c
  9134  002036                     	if	0	;There are less than 3 active tblptr bytes
  9135  002036                     	endif
  9136  002036  0009               	tblrd		*+
  9137  002038  CFF5 F016          	movff	tablat,___fladd@a
  9138  00203C  0009               	tblrd		*+
  9139  00203E  CFF5 F017          	movff	tablat,___fladd@a+1
  9140  002042  0009               	tblrd		*+
  9141  002044  CFF5 F018          	movff	tablat,___fladd@a+2
  9142  002048  000A               	tblrd		*-
  9143  00204A  CFF5 F019          	movff	tablat,___fladd@a+3
  9144  00204E  ECF5  F020         	call	___fladd	;wreg free
  9145  002052  C012  F124         	movff	?___fladd,powf@z_l
  9146  002056  C013  F125         	movff	?___fladd+1,powf@z_l+1
  9147  00205A  C014  F126         	movff	?___fladd+2,powf@z_l+2
  9148  00205E  C015  F127         	movff	?___fladd+3,powf@z_l+3
  9149  002062  C180  F018         	movff	powf@n,___xxtofl@val
  9150  002066  C181  F019         	movff	powf@n+1,___xxtofl@val+1
  9151  00206A  C182  F01A         	movff	powf@n+2,___xxtofl@val+2
  9152  00206E  C183  F01B         	movff	powf@n+3,___xxtofl@val+3
  9153  002072  0E01               	movlw	1
  9154  002074  EC70  F02D         	call	___xxtofl
  9155  002078  C018  F1B0         	movff	?___xxtofl,powf@t
  9156  00207C  C019  F1B1         	movff	?___xxtofl+1,powf@t+1
  9157  002080  C01A  F1B2         	movff	?___xxtofl+2,powf@t+2
  9158  002084  C01B  F1B3         	movff	?___xxtofl+3,powf@t+3
  9159  002088  C124  F016         	movff	powf@z_l,___fladd@a
  9160  00208C  C125  F017         	movff	powf@z_l+1,___fladd@a+1
  9161  002090  C126  F018         	movff	powf@z_l+2,___fladd@a+2
  9162  002094  C127  F019         	movff	powf@z_l+3,___fladd@a+3
  9163  002098  C120  F012         	movff	powf@z_h,___fladd@b
  9164  00209C  C121  F013         	movff	powf@z_h+1,___fladd@b+1
  9165  0020A0  C122  F014         	movff	powf@z_h+2,___fladd@b+2
  9166  0020A4  C123  F015         	movff	powf@z_h+3,___fladd@b+3
  9167  0020A8  ECF5  F020         	call	___fladd	;wreg free
  9168  0020AC  C012  F158         	movff	?___fladd,_powf$1989
  9169  0020B0  C013  F159         	movff	?___fladd+1,_powf$1989+1
  9170  0020B4  C014  F15A         	movff	?___fladd+2,_powf$1989+2
  9171  0020B8  C015  F15B         	movff	?___fladd+3,_powf$1989+3
  9172  0020BC  C1A0  F0B0         	movff	powf@k,??_powf
  9173  0020C0  C1A1  F0B1         	movff	powf@k+1,??_powf+1
  9174  0020C4  0100               	movlb	0	; () banked
  9175  0020C6  90D8               	bcf	status,0,c
  9176  0020C8  37B0               	rlcf	??_powf& (0+255),f,b
  9177  0020CA  37B1               	rlcf	(??_powf+1)& (0+255),f,b
  9178  0020CC  90D8               	bcf	status,0,c
  9179  0020CE  37B0               	rlcf	??_powf& (0+255),f,b
  9180  0020D0  37B1               	rlcf	(??_powf+1)& (0+255),f,b
  9181  0020D2  0E09               	movlw	low _dp_h
  9182  0020D4  25B0               	addwf	??_powf& (0+255),w,b
  9183  0020D6  6EF6               	movwf	tblptrl,c
  9184  0020D8  0E06               	movlw	high _dp_h
  9185  0020DA  21B1               	addwfc	(??_powf+1)& (0+255),w,b
  9186  0020DC  6EF7               	movwf	tblptrh,c
  9187  0020DE                     	if	0	;There are less than 3 active tblptr bytes
  9188  0020DE                     	endif
  9189  0020DE  0009               	tblrd		*+
  9190  0020E0  CFF5 F016          	movff	tablat,___fladd@a
  9191  0020E4  0009               	tblrd		*+
  9192  0020E6  CFF5 F017          	movff	tablat,___fladd@a+1
  9193  0020EA  0009               	tblrd		*+
  9194  0020EC  CFF5 F018          	movff	tablat,___fladd@a+2
  9195  0020F0  000A               	tblrd		*-
  9196  0020F2  CFF5 F019          	movff	tablat,___fladd@a+3
  9197  0020F6  C158  F012         	movff	_powf$1989,___fladd@b
  9198  0020FA  C159  F013         	movff	_powf$1989+1,___fladd@b+1
  9199  0020FE  C15A  F014         	movff	_powf$1989+2,___fladd@b+2
  9200  002102  C15B  F015         	movff	_powf$1989+3,___fladd@b+3
  9201  002106  ECF5  F020         	call	___fladd	;wreg free
  9202  00210A  C012  F108         	movff	?___fladd,_powf$1992
  9203  00210E  C013  F109         	movff	?___fladd+1,_powf$1992+1
  9204  002112  C014  F10A         	movff	?___fladd+2,_powf$1992+2
  9205  002116  C015  F10B         	movff	?___fladd+3,_powf$1992+3
  9206  00211A  C108  F012         	movff	_powf$1992,___fladd@b
  9207  00211E  C109  F013         	movff	_powf$1992+1,___fladd@b+1
  9208  002122  C10A  F014         	movff	_powf$1992+2,___fladd@b+2
  9209  002126  C10B  F015         	movff	_powf$1992+3,___fladd@b+3
  9210  00212A  C1B0  F016         	movff	powf@t,___fladd@a
  9211  00212E  C1B1  F017         	movff	powf@t+1,___fladd@a+1
  9212  002132  C1B2  F018         	movff	powf@t+2,___fladd@a+2
  9213  002136  C1B3  F019         	movff	powf@t+3,___fladd@a+3
  9214  00213A  ECF5  F020         	call	___fladd	;wreg free
  9215  00213E  C012  F184         	movff	?___fladd,powf@t1
  9216  002142  C013  F185         	movff	?___fladd+1,powf@t1+1
  9217  002146  C014  F186         	movff	?___fladd+2,powf@t1+2
  9218  00214A  C015  F187         	movff	?___fladd+3,powf@t1+3
  9219  00214E  C184  F1B8         	movff	powf@t1,powf@__xc8_float_word
  9220  002152  C185  F1B9         	movff	powf@t1+1,powf@__xc8_float_word+1
  9221  002156  C186  F1BA         	movff	powf@t1+2,powf@__xc8_float_word+2
  9222  00215A  C187  F1BB         	movff	powf@t1+3,powf@__xc8_float_word+3
  9223  00215E  C1B8  F194         	movff	powf@__xc8_float_word,powf@is
  9224  002162  C1B9  F195         	movff	powf@__xc8_float_word+1,powf@is+1
  9225  002166  C1BA  F196         	movff	powf@__xc8_float_word+2,powf@is+2
  9226  00216A  C1BB  F197         	movff	powf@__xc8_float_word+3,powf@is+3
  9227  00216E  0E00               	movlw	0
  9228  002170  0101               	movlb	1	; () banked
  9229  002172  1594               	andwf	powf@is& (0+255),w,b
  9230  002174  6FB8               	movwf	powf@__xc8_float_word& (0+255),b
  9231  002176  0EF0               	movlw	240
  9232  002178  1595               	andwf	(powf@is+1)& (0+255),w,b
  9233  00217A  6FB9               	movwf	(powf@__xc8_float_word+1)& (0+255),b
  9234  00217C  0EFF               	movlw	255
  9235  00217E  1596               	andwf	(powf@is+2)& (0+255),w,b
  9236  002180  6FBA               	movwf	(powf@__xc8_float_word+2)& (0+255),b
  9237  002182  0EFF               	movlw	255
  9238  002184  1597               	andwf	(powf@is+3)& (0+255),w,b
  9239  002186  6FBB               	movwf	(powf@__xc8_float_word+3)& (0+255),b
  9240  002188                     
  9241                           ; BSR set to: 1
  9242  002188  C1B8  F184         	movff	powf@__xc8_float_word,powf@t1
  9243  00218C  C1B9  F185         	movff	powf@__xc8_float_word+1,powf@t1+1
  9244  002190  C1BA  F186         	movff	powf@__xc8_float_word+2,powf@t1+2
  9245  002194  C1BB  F187         	movff	powf@__xc8_float_word+3,powf@t1+3
  9246  002198                     
  9247                           ; BSR set to: 1
  9248  002198  C1B0  F043         	movff	powf@t,___flsub@a
  9249  00219C  C1B1  F044         	movff	powf@t+1,___flsub@a+1
  9250  0021A0  C1B2  F045         	movff	powf@t+2,___flsub@a+2
  9251  0021A4  C1B3  F046         	movff	powf@t+3,___flsub@a+3
  9252  0021A8  C184  F03F         	movff	powf@t1,___flsub@b
  9253  0021AC  C185  F040         	movff	powf@t1+1,___flsub@b+1
  9254  0021B0  C186  F041         	movff	powf@t1+2,___flsub@b+2
  9255  0021B4  C187  F042         	movff	powf@t1+3,___flsub@b+3
  9256  0021B8  ECB6  F034         	call	___flsub	;wreg free
  9257  0021BC  C03F  F198         	movff	?___flsub,_powf$1985
  9258  0021C0  C040  F199         	movff	?___flsub+1,_powf$1985+1
  9259  0021C4  C041  F19A         	movff	?___flsub+2,_powf$1985+2
  9260  0021C8  C042  F19B         	movff	?___flsub+3,_powf$1985+3
  9261  0021CC  C1A0  F0B0         	movff	powf@k,??_powf
  9262  0021D0  C1A1  F0B1         	movff	powf@k+1,??_powf+1
  9263  0021D4  0100               	movlb	0	; () banked
  9264  0021D6  90D8               	bcf	status,0,c
  9265  0021D8  37B0               	rlcf	??_powf& (0+255),f,b
  9266  0021DA  37B1               	rlcf	(??_powf+1)& (0+255),f,b
  9267  0021DC  90D8               	bcf	status,0,c
  9268  0021DE  37B0               	rlcf	??_powf& (0+255),f,b
  9269  0021E0  37B1               	rlcf	(??_powf+1)& (0+255),f,b
  9270  0021E2  0E09               	movlw	low _dp_h
  9271  0021E4  25B0               	addwf	??_powf& (0+255),w,b
  9272  0021E6  6EF6               	movwf	tblptrl,c
  9273  0021E8  0E06               	movlw	high _dp_h
  9274  0021EA  21B1               	addwfc	(??_powf+1)& (0+255),w,b
  9275  0021EC  6EF7               	movwf	tblptrh,c
  9276  0021EE                     	if	0	;There are less than 3 active tblptr bytes
  9277  0021EE                     	endif
  9278  0021EE  0009               	tblrd		*+
  9279  0021F0  CFF5 F043          	movff	tablat,___flsub@a
  9280  0021F4  0009               	tblrd		*+
  9281  0021F6  CFF5 F044          	movff	tablat,___flsub@a+1
  9282  0021FA  0009               	tblrd		*+
  9283  0021FC  CFF5 F045          	movff	tablat,___flsub@a+2
  9284  002200  000A               	tblrd		*-
  9285  002202  CFF5 F046          	movff	tablat,___flsub@a+3
  9286  002206  C198  F03F         	movff	_powf$1985,___flsub@b
  9287  00220A  C199  F040         	movff	_powf$1985+1,___flsub@b+1
  9288  00220E  C19A  F041         	movff	_powf$1985+2,___flsub@b+2
  9289  002212  C19B  F042         	movff	_powf$1985+3,___flsub@b+3
  9290  002216  ECB6  F034         	call	___flsub	;wreg free
  9291  00221A  C03F  F140         	movff	?___flsub,_powf$1991
  9292  00221E  C040  F141         	movff	?___flsub+1,_powf$1991+1
  9293  002222  C041  F142         	movff	?___flsub+2,_powf$1991+2
  9294  002226  C042  F143         	movff	?___flsub+3,_powf$1991+3
  9295  00222A  C120  F043         	movff	powf@z_h,___flsub@a
  9296  00222E  C121  F044         	movff	powf@z_h+1,___flsub@a+1
  9297  002232  C122  F045         	movff	powf@z_h+2,___flsub@a+2
  9298  002236  C123  F046         	movff	powf@z_h+3,___flsub@a+3
  9299  00223A  C140  F03F         	movff	_powf$1991,___flsub@b
  9300  00223E  C141  F040         	movff	_powf$1991+1,___flsub@b+1
  9301  002242  C142  F041         	movff	_powf$1991+2,___flsub@b+2
  9302  002246  C143  F042         	movff	_powf$1991+3,___flsub@b+3
  9303  00224A  ECB6  F034         	call	___flsub	;wreg free
  9304  00224E  C03F  F10C         	movff	?___flsub,_powf$1993
  9305  002252  C040  F10D         	movff	?___flsub+1,_powf$1993+1
  9306  002256  C041  F10E         	movff	?___flsub+2,_powf$1993+2
  9307  00225A  C042  F10F         	movff	?___flsub+3,_powf$1993+3
  9308  00225E  C124  F03F         	movff	powf@z_l,___flsub@b
  9309  002262  C125  F040         	movff	powf@z_l+1,___flsub@b+1
  9310  002266  C126  F041         	movff	powf@z_l+2,___flsub@b+2
  9311  00226A  C127  F042         	movff	powf@z_l+3,___flsub@b+3
  9312  00226E  C10C  F043         	movff	_powf$1993,___flsub@a
  9313  002272  C10D  F044         	movff	_powf$1993+1,___flsub@a+1
  9314  002276  C10E  F045         	movff	_powf$1993+2,___flsub@a+2
  9315  00227A  C10F  F046         	movff	_powf$1993+3,___flsub@a+3
  9316  00227E  ECB6  F034         	call	___flsub	;wreg free
  9317  002282  C03F  F11C         	movff	?___flsub,powf@t2
  9318  002286  C040  F11D         	movff	?___flsub+1,powf@t2+1
  9319  00228A  C041  F11E         	movff	?___flsub+2,powf@t2+2
  9320  00228E  C042  F11F         	movff	?___flsub+3,powf@t2+3
  9321  002292                     l7744:
  9322  002292  C0AC  F1B8         	movff	powf@y,powf@__xc8_float_word
  9323  002296  C0AD  F1B9         	movff	powf@y+1,powf@__xc8_float_word+1
  9324  00229A  C0AE  F1BA         	movff	powf@y+2,powf@__xc8_float_word+2
  9325  00229E  C0AF  F1BB         	movff	powf@y+3,powf@__xc8_float_word+3
  9326  0022A2  C1B8  F194         	movff	powf@__xc8_float_word,powf@is
  9327  0022A6  C1B9  F195         	movff	powf@__xc8_float_word+1,powf@is+1
  9328  0022AA  C1BA  F196         	movff	powf@__xc8_float_word+2,powf@is+2
  9329  0022AE  C1BB  F197         	movff	powf@__xc8_float_word+3,powf@is+3
  9330  0022B2  0E00               	movlw	0
  9331  0022B4  0101               	movlb	1	; () banked
  9332  0022B6  1594               	andwf	powf@is& (0+255),w,b
  9333  0022B8  6FB8               	movwf	powf@__xc8_float_word& (0+255),b
  9334  0022BA  0EF0               	movlw	240
  9335  0022BC  1595               	andwf	(powf@is+1)& (0+255),w,b
  9336  0022BE  6FB9               	movwf	(powf@__xc8_float_word+1)& (0+255),b
  9337  0022C0  0EFF               	movlw	255
  9338  0022C2  1596               	andwf	(powf@is+2)& (0+255),w,b
  9339  0022C4  6FBA               	movwf	(powf@__xc8_float_word+2)& (0+255),b
  9340  0022C6  0EFF               	movlw	255
  9341  0022C8  1597               	andwf	(powf@is+3)& (0+255),w,b
  9342  0022CA  6FBB               	movwf	(powf@__xc8_float_word+3)& (0+255),b
  9343  0022CC                     
  9344                           ; BSR set to: 1
  9345  0022CC  C1B8  F128         	movff	powf@__xc8_float_word,powf@y1
  9346  0022D0  C1B9  F129         	movff	powf@__xc8_float_word+1,powf@y1+1
  9347  0022D4  C1BA  F12A         	movff	powf@__xc8_float_word+2,powf@y1+2
  9348  0022D8  C1BB  F12B         	movff	powf@__xc8_float_word+3,powf@y1+3
  9349  0022DC                     
  9350                           ; BSR set to: 1
  9351  0022DC  C184  F02A         	movff	powf@t1,___flmul@a
  9352  0022E0  C185  F02B         	movff	powf@t1+1,___flmul@a+1
  9353  0022E4  C186  F02C         	movff	powf@t1+2,___flmul@a+2
  9354  0022E8  C187  F02D         	movff	powf@t1+3,___flmul@a+3
  9355  0022EC  C128  F043         	movff	powf@y1,___flsub@a
  9356  0022F0  C129  F044         	movff	powf@y1+1,___flsub@a+1
  9357  0022F4  C12A  F045         	movff	powf@y1+2,___flsub@a+2
  9358  0022F8  C12B  F046         	movff	powf@y1+3,___flsub@a+3
  9359  0022FC  C0AC  F03F         	movff	powf@y,___flsub@b
  9360  002300  C0AD  F040         	movff	powf@y+1,___flsub@b+1
  9361  002304  C0AE  F041         	movff	powf@y+2,___flsub@b+2
  9362  002308  C0AF  F042         	movff	powf@y+3,___flsub@b+3
  9363  00230C  ECB6  F034         	call	___flsub	;wreg free
  9364  002310  C03F  F026         	movff	?___flsub,___flmul@b
  9365  002314  C040  F027         	movff	?___flsub+1,___flmul@b+1
  9366  002318  C041  F028         	movff	?___flsub+2,___flmul@b+2
  9367  00231C  C042  F029         	movff	?___flsub+3,___flmul@b+3
  9368  002320  EC8B  F025         	call	___flmul	;wreg free
  9369  002324  C026  F110         	movff	?___flmul,_powf$1994
  9370  002328  C027  F111         	movff	?___flmul+1,_powf$1994+1
  9371  00232C  C028  F112         	movff	?___flmul+2,_powf$1994+2
  9372  002330  C029  F113         	movff	?___flmul+3,_powf$1994+3
  9373  002334  C110  F012         	movff	_powf$1994,___fladd@b
  9374  002338  C111  F013         	movff	_powf$1994+1,___fladd@b+1
  9375  00233C  C112  F014         	movff	_powf$1994+2,___fladd@b+2
  9376  002340  C113  F015         	movff	_powf$1994+3,___fladd@b+3
  9377  002344  C11C  F02A         	movff	powf@t2,___flmul@a
  9378  002348  C11D  F02B         	movff	powf@t2+1,___flmul@a+1
  9379  00234C  C11E  F02C         	movff	powf@t2+2,___flmul@a+2
  9380  002350  C11F  F02D         	movff	powf@t2+3,___flmul@a+3
  9381  002354  C0AC  F026         	movff	powf@y,___flmul@b
  9382  002358  C0AD  F027         	movff	powf@y+1,___flmul@b+1
  9383  00235C  C0AE  F028         	movff	powf@y+2,___flmul@b+2
  9384  002360  C0AF  F029         	movff	powf@y+3,___flmul@b+3
  9385  002364  EC8B  F025         	call	___flmul	;wreg free
  9386  002368  C026  F016         	movff	?___flmul,___fladd@a
  9387  00236C  C027  F017         	movff	?___flmul+1,___fladd@a+1
  9388  002370  C028  F018         	movff	?___flmul+2,___fladd@a+2
  9389  002374  C029  F019         	movff	?___flmul+3,___fladd@a+3
  9390  002378  ECF5  F020         	call	___fladd	;wreg free
  9391  00237C  C012  F164         	movff	?___fladd,powf@p_l
  9392  002380  C013  F165         	movff	?___fladd+1,powf@p_l+1
  9393  002384  C014  F166         	movff	?___fladd+2,powf@p_l+2
  9394  002388  C015  F167         	movff	?___fladd+3,powf@p_l+3
  9395  00238C  C128  F026         	movff	powf@y1,___flmul@b
  9396  002390  C129  F027         	movff	powf@y1+1,___flmul@b+1
  9397  002394  C12A  F028         	movff	powf@y1+2,___flmul@b+2
  9398  002398  C12B  F029         	movff	powf@y1+3,___flmul@b+3
  9399  00239C  C184  F02A         	movff	powf@t1,___flmul@a
  9400  0023A0  C185  F02B         	movff	powf@t1+1,___flmul@a+1
  9401  0023A4  C186  F02C         	movff	powf@t1+2,___flmul@a+2
  9402  0023A8  C187  F02D         	movff	powf@t1+3,___flmul@a+3
  9403  0023AC  EC8B  F025         	call	___flmul	;wreg free
  9404  0023B0  C026  F19C         	movff	?___flmul,powf@p_h
  9405  0023B4  C027  F19D         	movff	?___flmul+1,powf@p_h+1
  9406  0023B8  C028  F19E         	movff	?___flmul+2,powf@p_h+2
  9407  0023BC  C029  F19F         	movff	?___flmul+3,powf@p_h+3
  9408  0023C0  C164  F012         	movff	powf@p_l,___fladd@b
  9409  0023C4  C165  F013         	movff	powf@p_l+1,___fladd@b+1
  9410  0023C8  C166  F014         	movff	powf@p_l+2,___fladd@b+2
  9411  0023CC  C167  F015         	movff	powf@p_l+3,___fladd@b+3
  9412  0023D0  C19C  F016         	movff	powf@p_h,___fladd@a
  9413  0023D4  C19D  F017         	movff	powf@p_h+1,___fladd@a+1
  9414  0023D8  C19E  F018         	movff	powf@p_h+2,___fladd@a+2
  9415  0023DC  C19F  F019         	movff	powf@p_h+3,___fladd@a+3
  9416  0023E0  ECF5  F020         	call	___fladd	;wreg free
  9417  0023E4  C012  F1B4         	movff	?___fladd,powf@z
  9418  0023E8  C013  F1B5         	movff	?___fladd+1,powf@z+1
  9419  0023EC  C014  F1B6         	movff	?___fladd+2,powf@z+2
  9420  0023F0  C015  F1B7         	movff	?___fladd+3,powf@z+3
  9421  0023F4  C1B4  F1B8         	movff	powf@z,powf@__xc8_float_word
  9422  0023F8  C1B5  F1B9         	movff	powf@z+1,powf@__xc8_float_word+1
  9423  0023FC  C1B6  F1BA         	movff	powf@z+2,powf@__xc8_float_word+2
  9424  002400  C1B7  F1BB         	movff	powf@z+3,powf@__xc8_float_word+3
  9425  002404  C1B8  F1AC         	movff	powf@__xc8_float_word,powf@j
  9426  002408  C1B9  F1AD         	movff	powf@__xc8_float_word+1,powf@j+1
  9427  00240C  C1BA  F1AE         	movff	powf@__xc8_float_word+2,powf@j+2
  9428  002410  C1BB  F1AF         	movff	powf@__xc8_float_word+3,powf@j+3
  9429  002414  0101               	movlb	1	; () banked
  9430  002416  BFAF               	btfsc	(powf@j+3)& (0+255),7,b
  9431  002418  EF1A  F012         	goto	u10111
  9432  00241C  05AC               	decf	powf@j& (0+255),w,b
  9433  00241E  0E00               	movlw	0
  9434  002420  59AD               	subwfb	(powf@j+1)& (0+255),w,b
  9435  002422  0E00               	movlw	0
  9436  002424  59AE               	subwfb	(powf@j+2)& (0+255),w,b
  9437  002426  0E43               	movlw	67
  9438  002428  59AF               	subwfb	(powf@j+3)& (0+255),w,b
  9439  00242A  A0D8               	btfss	status,0,c
  9440  00242C  EF1A  F012         	goto	u10111
  9441  002430  EF1C  F012         	goto	u10110
  9442  002434                     u10111:
  9443  002434  EF52  F012         	goto	l7772
  9444  002438                     u10110:
  9445  002438                     
  9446                           ; BSR set to: 1
  9447  002438  0ECA               	movlw	202
  9448  00243A  6E2A               	movwf	___flmul@a^0,c
  9449  00243C  0EF2               	movlw	242
  9450  00243E  6E2B               	movwf	(___flmul@a+1)^0,c
  9451  002440  0E49               	movlw	73
  9452  002442  6E2C               	movwf	(___flmul@a+2)^0,c
  9453  002444  0E71               	movlw	113
  9454  002446  6E2D               	movwf	(___flmul@a+3)^0,c
  9455  002448  C188  F026         	movff	powf@sn,___flmul@b
  9456  00244C  C189  F027         	movff	powf@sn+1,___flmul@b+1
  9457  002450  C18A  F028         	movff	powf@sn+2,___flmul@b+2
  9458  002454  C18B  F029         	movff	powf@sn+3,___flmul@b+3
  9459  002458  EC8B  F025         	call	___flmul	;wreg free
  9460  00245C  C026  F1A4         	movff	?___flmul,_powf$1982
  9461  002460  C027  F1A5         	movff	?___flmul+1,_powf$1982+1
  9462  002464  C028  F1A6         	movff	?___flmul+2,_powf$1982+2
  9463  002468  C029  F1A7         	movff	?___flmul+3,_powf$1982+3
  9464  00246C  C1A4  F026         	movff	_powf$1982,___flmul@b
  9465  002470  C1A5  F027         	movff	_powf$1982+1,___flmul@b+1
  9466  002474  C1A6  F028         	movff	_powf$1982+2,___flmul@b+2
  9467  002478  C1A7  F029         	movff	_powf$1982+3,___flmul@b+3
  9468  00247C  0ECA               	movlw	202
  9469  00247E  6E2A               	movwf	___flmul@a^0,c
  9470  002480  0EF2               	movlw	242
  9471  002482  6E2B               	movwf	(___flmul@a+1)^0,c
  9472  002484  0E49               	movlw	73
  9473  002486  6E2C               	movwf	(___flmul@a+2)^0,c
  9474  002488  0E71               	movlw	113
  9475  00248A  6E2D               	movwf	(___flmul@a+3)^0,c
  9476  00248C  EC8B  F025         	call	___flmul	;wreg free
  9477  002490  C026  F0A8         	movff	?___flmul,?_powf
  9478  002494  C027  F0A9         	movff	?___flmul+1,?_powf+1
  9479  002498  C028  F0AA         	movff	?___flmul+2,?_powf+2
  9480  00249C  C029  F0AB         	movff	?___flmul+3,?_powf+3
  9481  0024A0  EF53  F018         	goto	l1252
  9482  0024A4                     l7772:
  9483                           
  9484                           ; BSR set to: 1
  9485  0024A4  0E43               	movlw	67
  9486  0024A6  19AF               	xorwf	(powf@j+3)& (0+255),w,b
  9487  0024A8  11AC               	iorwf	powf@j& (0+255),w,b
  9488  0024AA  11AD               	iorwf	(powf@j+1)& (0+255),w,b
  9489  0024AC  11AE               	iorwf	(powf@j+2)& (0+255),w,b
  9490  0024AE  A4D8               	btfss	status,2,c
  9491  0024B0  EF5C  F012         	goto	u10121
  9492  0024B4  EF5E  F012         	goto	u10120
  9493  0024B8                     u10121:
  9494  0024B8  EFD1  F012         	goto	l7780
  9495  0024BC                     u10120:
  9496  0024BC                     
  9497                           ; BSR set to: 1
  9498  0024BC  C19C  F043         	movff	powf@p_h,___flsub@a
  9499  0024C0  C19D  F044         	movff	powf@p_h+1,___flsub@a+1
  9500  0024C4  C19E  F045         	movff	powf@p_h+2,___flsub@a+2
  9501  0024C8  C19F  F046         	movff	powf@p_h+3,___flsub@a+3
  9502  0024CC  C1B4  F03F         	movff	powf@z,___flsub@b
  9503  0024D0  C1B5  F040         	movff	powf@z+1,___flsub@b+1
  9504  0024D4  C1B6  F041         	movff	powf@z+2,___flsub@b+2
  9505  0024D8  C1B7  F042         	movff	powf@z+3,___flsub@b+3
  9506  0024DC  ECB6  F034         	call	___flsub	;wreg free
  9507  0024E0  C03F  F047         	movff	?___flsub,___flge@ff1
  9508  0024E4  C040  F048         	movff	?___flsub+1,___flge@ff1+1
  9509  0024E8  C041  F049         	movff	?___flsub+2,___flge@ff1+2
  9510  0024EC  C042  F04A         	movff	?___flsub+3,___flge@ff1+3
  9511  0024F0  0E3C               	movlw	60
  9512  0024F2  6E16               	movwf	___fladd@a^0,c
  9513  0024F4  0EAA               	movlw	170
  9514  0024F6  6E17               	movwf	(___fladd@a+1)^0,c
  9515  0024F8  0E38               	movlw	56
  9516  0024FA  6E18               	movwf	(___fladd@a+2)^0,c
  9517  0024FC  0E33               	movlw	51
  9518  0024FE  6E19               	movwf	(___fladd@a+3)^0,c
  9519  002500  C164  F012         	movff	powf@p_l,___fladd@b
  9520  002504  C165  F013         	movff	powf@p_l+1,___fladd@b+1
  9521  002508  C166  F014         	movff	powf@p_l+2,___fladd@b+2
  9522  00250C  C167  F015         	movff	powf@p_l+3,___fladd@b+3
  9523  002510  ECF5  F020         	call	___fladd	;wreg free
  9524  002514  C012  F04B         	movff	?___fladd,___flge@ff2
  9525  002518  C013  F04C         	movff	?___fladd+1,___flge@ff2+1
  9526  00251C  C014  F04D         	movff	?___fladd+2,___flge@ff2+2
  9527  002520  C015  F04E         	movff	?___fladd+3,___flge@ff2+3
  9528  002524  EC96  F02F         	call	___flge	;wreg free
  9529  002528  B0D8               	btfsc	status,0,c
  9530  00252A  EF99  F012         	goto	u10131
  9531  00252E  EF9B  F012         	goto	u10130
  9532  002532                     u10131:
  9533  002532  EF9B  F013         	goto	l7796
  9534  002536                     u10130:
  9535  002536  0ECA               	movlw	202
  9536  002538  6E2A               	movwf	___flmul@a^0,c
  9537  00253A  0EF2               	movlw	242
  9538  00253C  6E2B               	movwf	(___flmul@a+1)^0,c
  9539  00253E  0E49               	movlw	73
  9540  002540  6E2C               	movwf	(___flmul@a+2)^0,c
  9541  002542  0E71               	movlw	113
  9542  002544  6E2D               	movwf	(___flmul@a+3)^0,c
  9543  002546  C188  F026         	movff	powf@sn,___flmul@b
  9544  00254A  C189  F027         	movff	powf@sn+1,___flmul@b+1
  9545  00254E  C18A  F028         	movff	powf@sn+2,___flmul@b+2
  9546  002552  C18B  F029         	movff	powf@sn+3,___flmul@b+3
  9547  002556  EC8B  F025         	call	___flmul	;wreg free
  9548  00255A  C026  F1A4         	movff	?___flmul,_powf$1982
  9549  00255E  C027  F1A5         	movff	?___flmul+1,_powf$1982+1
  9550  002562  C028  F1A6         	movff	?___flmul+2,_powf$1982+2
  9551  002566  C029  F1A7         	movff	?___flmul+3,_powf$1982+3
  9552  00256A  C1A4  F026         	movff	_powf$1982,___flmul@b
  9553  00256E  C1A5  F027         	movff	_powf$1982+1,___flmul@b+1
  9554  002572  C1A6  F028         	movff	_powf$1982+2,___flmul@b+2
  9555  002576  C1A7  F029         	movff	_powf$1982+3,___flmul@b+3
  9556  00257A  0ECA               	movlw	202
  9557  00257C  6E2A               	movwf	___flmul@a^0,c
  9558  00257E  0EF2               	movlw	242
  9559  002580  6E2B               	movwf	(___flmul@a+1)^0,c
  9560  002582  0E49               	movlw	73
  9561  002584  6E2C               	movwf	(___flmul@a+2)^0,c
  9562  002586  0E71               	movlw	113
  9563  002588  6E2D               	movwf	(___flmul@a+3)^0,c
  9564  00258A  EC8B  F025         	call	___flmul	;wreg free
  9565  00258E  C026  F0A8         	movff	?___flmul,?_powf
  9566  002592  C027  F0A9         	movff	?___flmul+1,?_powf+1
  9567  002596  C028  F0AA         	movff	?___flmul+2,?_powf+2
  9568  00259A  C029  F0AB         	movff	?___flmul+3,?_powf+3
  9569  00259E  EF53  F018         	goto	l1252
  9570  0025A2                     l7780:
  9571                           
  9572                           ; BSR set to: 1
  9573  0025A2  0EFF               	movlw	255
  9574  0025A4  15AC               	andwf	powf@j& (0+255),w,b
  9575  0025A6  0100               	movlb	0	; () banked
  9576  0025A8  6FB0               	movwf	??_powf& (0+255),b
  9577  0025AA  0EFF               	movlw	255
  9578  0025AC  0101               	movlb	1	; () banked
  9579  0025AE  15AD               	andwf	(powf@j+1)& (0+255),w,b
  9580  0025B0  0100               	movlb	0	; () banked
  9581  0025B2  6FB1               	movwf	(??_powf+1)& (0+255),b
  9582  0025B4  0EFF               	movlw	255
  9583  0025B6  0101               	movlb	1	; () banked
  9584  0025B8  15AE               	andwf	(powf@j+2)& (0+255),w,b
  9585  0025BA  0100               	movlb	0	; () banked
  9586  0025BC  6FB2               	movwf	(??_powf+2)& (0+255),b
  9587  0025BE  0E7F               	movlw	127
  9588  0025C0  0101               	movlb	1	; () banked
  9589  0025C2  15AF               	andwf	(powf@j+3)& (0+255),w,b
  9590  0025C4  0100               	movlb	0	; () banked
  9591  0025C6  6FB3               	movwf	(??_powf+3)& (0+255),b
  9592  0025C8  BFB3               	btfsc	(??_powf+3)& (0+255),7,b
  9593  0025CA  EFF3  F012         	goto	u10141
  9594  0025CE  05B0               	decf	??_powf& (0+255),w,b
  9595  0025D0  0E00               	movlw	0
  9596  0025D2  59B1               	subwfb	(??_powf+1)& (0+255),w,b
  9597  0025D4  0E16               	movlw	22
  9598  0025D6  59B2               	subwfb	(??_powf+2)& (0+255),w,b
  9599  0025D8  0E43               	movlw	67
  9600  0025DA  59B3               	subwfb	(??_powf+3)& (0+255),w,b
  9601  0025DC  A0D8               	btfss	status,0,c
  9602  0025DE  EFF3  F012         	goto	u10141
  9603  0025E2  EFF5  F012         	goto	u10140
  9604  0025E6                     u10141:
  9605  0025E6  EF2B  F013         	goto	l7788
  9606  0025EA                     u10140:
  9607  0025EA                     
  9608                           ; BSR set to: 0
  9609  0025EA  0E60               	movlw	96
  9610  0025EC  6E2A               	movwf	___flmul@a^0,c
  9611  0025EE  0E42               	movlw	66
  9612  0025F0  6E2B               	movwf	(___flmul@a+1)^0,c
  9613  0025F2  0EA2               	movlw	162
  9614  0025F4  6E2C               	movwf	(___flmul@a+2)^0,c
  9615  0025F6  0E0D               	movlw	13
  9616  0025F8  6E2D               	movwf	(___flmul@a+3)^0,c
  9617  0025FA  C188  F026         	movff	powf@sn,___flmul@b
  9618  0025FE  C189  F027         	movff	powf@sn+1,___flmul@b+1
  9619  002602  C18A  F028         	movff	powf@sn+2,___flmul@b+2
  9620  002606  C18B  F029         	movff	powf@sn+3,___flmul@b+3
  9621  00260A  EC8B  F025         	call	___flmul	;wreg free
  9622  00260E  C026  F1A4         	movff	?___flmul,_powf$1982
  9623  002612  C027  F1A5         	movff	?___flmul+1,_powf$1982+1
  9624  002616  C028  F1A6         	movff	?___flmul+2,_powf$1982+2
  9625  00261A  C029  F1A7         	movff	?___flmul+3,_powf$1982+3
  9626  00261E  C1A4  F026         	movff	_powf$1982,___flmul@b
  9627  002622  C1A5  F027         	movff	_powf$1982+1,___flmul@b+1
  9628  002626  C1A6  F028         	movff	_powf$1982+2,___flmul@b+2
  9629  00262A  C1A7  F029         	movff	_powf$1982+3,___flmul@b+3
  9630  00262E  0E60               	movlw	96
  9631  002630  6E2A               	movwf	___flmul@a^0,c
  9632  002632  0E42               	movlw	66
  9633  002634  6E2B               	movwf	(___flmul@a+1)^0,c
  9634  002636  0EA2               	movlw	162
  9635  002638  6E2C               	movwf	(___flmul@a+2)^0,c
  9636  00263A  0E0D               	movlw	13
  9637  00263C  6E2D               	movwf	(___flmul@a+3)^0,c
  9638  00263E  EC8B  F025         	call	___flmul	;wreg free
  9639  002642  C026  F0A8         	movff	?___flmul,?_powf
  9640  002646  C027  F0A9         	movff	?___flmul+1,?_powf+1
  9641  00264A  C028  F0AA         	movff	?___flmul+2,?_powf+2
  9642  00264E  C029  F0AB         	movff	?___flmul+3,?_powf+3
  9643  002652  EF53  F018         	goto	l1252
  9644  002656                     l7788:
  9645                           
  9646                           ; BSR set to: 0
  9647  002656  0E16               	movlw	22
  9648  002658  0101               	movlb	1	; () banked
  9649  00265A  19AE               	xorwf	(powf@j+2)& (0+255),w,b
  9650  00265C  E109               	bnz	u10151
  9651  00265E  0EC3               	movlw	195
  9652  002660  19AF               	xorwf	(powf@j+3)& (0+255),w,b
  9653  002662  11AC               	iorwf	powf@j& (0+255),w,b
  9654  002664  11AD               	iorwf	(powf@j+1)& (0+255),w,b
  9655  002666  A4D8               	btfss	status,2,c
  9656  002668  EF38  F013         	goto	u10151
  9657  00266C  EF3A  F013         	goto	u10150
  9658  002670                     u10151:
  9659  002670  EF9B  F013         	goto	l7796
  9660  002674                     u10150:
  9661  002674                     
  9662                           ; BSR set to: 1
  9663  002674  C19C  F043         	movff	powf@p_h,___flsub@a
  9664  002678  C19D  F044         	movff	powf@p_h+1,___flsub@a+1
  9665  00267C  C19E  F045         	movff	powf@p_h+2,___flsub@a+2
  9666  002680  C19F  F046         	movff	powf@p_h+3,___flsub@a+3
  9667  002684  C1B4  F03F         	movff	powf@z,___flsub@b
  9668  002688  C1B5  F040         	movff	powf@z+1,___flsub@b+1
  9669  00268C  C1B6  F041         	movff	powf@z+2,___flsub@b+2
  9670  002690  C1B7  F042         	movff	powf@z+3,___flsub@b+3
  9671  002694  ECB6  F034         	call	___flsub	;wreg free
  9672  002698  C03F  F047         	movff	?___flsub,___flge@ff1
  9673  00269C  C040  F048         	movff	?___flsub+1,___flge@ff1+1
  9674  0026A0  C041  F049         	movff	?___flsub+2,___flge@ff1+2
  9675  0026A4  C042  F04A         	movff	?___flsub+3,___flge@ff1+3
  9676  0026A8  C164  F04B         	movff	powf@p_l,___flge@ff2
  9677  0026AC  C165  F04C         	movff	powf@p_l+1,___flge@ff2+1
  9678  0026B0  C166  F04D         	movff	powf@p_l+2,___flge@ff2+2
  9679  0026B4  C167  F04E         	movff	powf@p_l+3,___flge@ff2+3
  9680  0026B8  EC96  F02F         	call	___flge	;wreg free
  9681  0026BC  A0D8               	btfss	status,0,c
  9682  0026BE  EF63  F013         	goto	u10161
  9683  0026C2  EF65  F013         	goto	u10160
  9684  0026C6                     u10161:
  9685  0026C6  EF9B  F013         	goto	l7796
  9686  0026CA                     u10160:
  9687  0026CA  0E60               	movlw	96
  9688  0026CC  6E2A               	movwf	___flmul@a^0,c
  9689  0026CE  0E42               	movlw	66
  9690  0026D0  6E2B               	movwf	(___flmul@a+1)^0,c
  9691  0026D2  0EA2               	movlw	162
  9692  0026D4  6E2C               	movwf	(___flmul@a+2)^0,c
  9693  0026D6  0E0D               	movlw	13
  9694  0026D8  6E2D               	movwf	(___flmul@a+3)^0,c
  9695  0026DA  C188  F026         	movff	powf@sn,___flmul@b
  9696  0026DE  C189  F027         	movff	powf@sn+1,___flmul@b+1
  9697  0026E2  C18A  F028         	movff	powf@sn+2,___flmul@b+2
  9698  0026E6  C18B  F029         	movff	powf@sn+3,___flmul@b+3
  9699  0026EA  EC8B  F025         	call	___flmul	;wreg free
  9700  0026EE  C026  F1A4         	movff	?___flmul,_powf$1982
  9701  0026F2  C027  F1A5         	movff	?___flmul+1,_powf$1982+1
  9702  0026F6  C028  F1A6         	movff	?___flmul+2,_powf$1982+2
  9703  0026FA  C029  F1A7         	movff	?___flmul+3,_powf$1982+3
  9704  0026FE  C1A4  F026         	movff	_powf$1982,___flmul@b
  9705  002702  C1A5  F027         	movff	_powf$1982+1,___flmul@b+1
  9706  002706  C1A6  F028         	movff	_powf$1982+2,___flmul@b+2
  9707  00270A  C1A7  F029         	movff	_powf$1982+3,___flmul@b+3
  9708  00270E  0E60               	movlw	96
  9709  002710  6E2A               	movwf	___flmul@a^0,c
  9710  002712  0E42               	movlw	66
  9711  002714  6E2B               	movwf	(___flmul@a+1)^0,c
  9712  002716  0EA2               	movlw	162
  9713  002718  6E2C               	movwf	(___flmul@a+2)^0,c
  9714  00271A  0E0D               	movlw	13
  9715  00271C  6E2D               	movwf	(___flmul@a+3)^0,c
  9716  00271E  EC8B  F025         	call	___flmul	;wreg free
  9717  002722  C026  F0A8         	movff	?___flmul,?_powf
  9718  002726  C027  F0A9         	movff	?___flmul+1,?_powf+1
  9719  00272A  C028  F0AA         	movff	?___flmul+2,?_powf+2
  9720  00272E  C029  F0AB         	movff	?___flmul+3,?_powf+3
  9721  002732  EF53  F018         	goto	l1252
  9722  002736                     l7796:
  9723  002736  0EFF               	movlw	255
  9724  002738  0101               	movlb	1	; () banked
  9725  00273A  15AC               	andwf	powf@j& (0+255),w,b
  9726  00273C  6F2C               	movwf	powf@i& (0+255),b
  9727  00273E  0EFF               	movlw	255
  9728  002740  15AD               	andwf	(powf@j+1)& (0+255),w,b
  9729  002742  6F2D               	movwf	(powf@i+1)& (0+255),b
  9730  002744  0EFF               	movlw	255
  9731  002746  15AE               	andwf	(powf@j+2)& (0+255),w,b
  9732  002748  6F2E               	movwf	(powf@i+2)& (0+255),b
  9733  00274A  0E7F               	movlw	127
  9734  00274C  15AF               	andwf	(powf@j+3)& (0+255),w,b
  9735  00274E  6F2F               	movwf	(powf@i+3)& (0+255),b
  9736  002750  0E17               	movlw	23
  9737  002752  0100               	movlb	0	; () banked
  9738  002754  6FB0               	movwf	??_powf& (0+255),b
  9739  002756  C12C  F0B1         	movff	powf@i,??_powf+1
  9740  00275A  C12D  F0B2         	movff	powf@i+1,??_powf+2
  9741  00275E  C12E  F0B3         	movff	powf@i+2,??_powf+3
  9742  002762  C12F  F0B4         	movff	powf@i+3,??_powf+4
  9743  002766                     u10175:
  9744  002766  67B0               	tstfsz	??_powf& (0+255),b
  9745  002768  EFB8  F013         	goto	u10176
  9746  00276C  EFC0  F013         	goto	u10177
  9747  002770                     u10176:
  9748  002770  35B4               	rlcf	(??_powf+4)& (0+255),w,b
  9749  002772  33B4               	rrcf	(??_powf+4)& (0+255),f,b
  9750  002774  33B3               	rrcf	(??_powf+3)& (0+255),f,b
  9751  002776  33B2               	rrcf	(??_powf+2)& (0+255),f,b
  9752  002778  33B1               	rrcf	(??_powf+1)& (0+255),f,b
  9753  00277A  2FB0               	decfsz	??_powf& (0+255),f,b
  9754  00277C  EFB3  F013         	goto	u10175
  9755  002780                     u10177:
  9756  002780  0E81               	movlw	129
  9757  002782  0100               	movlb	0	; () banked
  9758  002784  25B1               	addwf	(??_powf+1)& (0+255),w,b
  9759  002786  0101               	movlb	1	; () banked
  9760  002788  6FA0               	movwf	powf@k& (0+255),b
  9761  00278A  0EFF               	movlw	255
  9762  00278C  0100               	movlb	0	; () banked
  9763  00278E  21B2               	addwfc	(??_powf+2)& (0+255),w,b
  9764  002790  0101               	movlb	1	; () banked
  9765  002792  6FA1               	movwf	(powf@k+1)& (0+255),b
  9766  002794  0EFF               	movlw	255
  9767  002796  0100               	movlb	0	; () banked
  9768  002798  21B3               	addwfc	(??_powf+3)& (0+255),w,b
  9769  00279A  0101               	movlb	1	; () banked
  9770  00279C  6FA2               	movwf	(powf@k+2)& (0+255),b
  9771  00279E  0EFF               	movlw	255
  9772  0027A0  0100               	movlb	0	; () banked
  9773  0027A2  21B4               	addwfc	(??_powf+4)& (0+255),w,b
  9774  0027A4  0101               	movlb	1	; () banked
  9775  0027A6  6FA3               	movwf	(powf@k+3)& (0+255),b
  9776  0027A8                     
  9777                           ; BSR set to: 1
  9778  0027A8  0E00               	movlw	0
  9779  0027AA  6F80               	movwf	powf@n& (0+255),b
  9780  0027AC  0E00               	movlw	0
  9781  0027AE  6F81               	movwf	(powf@n+1)& (0+255),b
  9782  0027B0  0E00               	movlw	0
  9783  0027B2  6F82               	movwf	(powf@n+2)& (0+255),b
  9784  0027B4  0E00               	movlw	0
  9785  0027B6  6F83               	movwf	(powf@n+3)& (0+255),b
  9786  0027B8                     
  9787                           ; BSR set to: 1
  9788  0027B8  BF2F               	btfsc	(powf@i+3)& (0+255),7,b
  9789  0027BA  EFEB  F013         	goto	u10181
  9790  0027BE  052C               	decf	powf@i& (0+255),w,b
  9791  0027C0  0E00               	movlw	0
  9792  0027C2  592D               	subwfb	(powf@i+1)& (0+255),w,b
  9793  0027C4  0E00               	movlw	0
  9794  0027C6  592E               	subwfb	(powf@i+2)& (0+255),w,b
  9795  0027C8  0E3F               	movlw	63
  9796  0027CA  592F               	subwfb	(powf@i+3)& (0+255),w,b
  9797  0027CC  A0D8               	btfss	status,0,c
  9798  0027CE  EFEB  F013         	goto	u10181
  9799  0027D2  EFED  F013         	goto	u10180
  9800  0027D6                     u10181:
  9801  0027D6  EFF1  F014         	goto	l7810
  9802  0027DA                     u10180:
  9803  0027DA                     
  9804                           ; BSR set to: 1
  9805  0027DA  C1A0  F0B0         	movff	powf@k,??_powf
  9806  0027DE  0E01               	movlw	1
  9807  0027E0  0100               	movlb	0	; () banked
  9808  0027E2  27B0               	addwf	??_powf& (0+255),f,b
  9809  0027E4  0E00               	movlw	0
  9810  0027E6  6FB1               	movwf	(??_powf+1)& (0+255),b
  9811  0027E8  0E00               	movlw	0
  9812  0027EA  6FB2               	movwf	(??_powf+2)& (0+255),b
  9813  0027EC  0E80               	movlw	128
  9814  0027EE  6FB3               	movwf	(??_powf+3)& (0+255),b
  9815  0027F0  0E00               	movlw	0
  9816  0027F2  6FB4               	movwf	(??_powf+4)& (0+255),b
  9817  0027F4                     u10195:
  9818  0027F4  67B0               	tstfsz	??_powf& (0+255),b
  9819  0027F6  EFFF  F013         	goto	u10196
  9820  0027FA  EF07  F014         	goto	u10197
  9821  0027FE                     u10196:
  9822  0027FE  35B4               	rlcf	(??_powf+4)& (0+255),w,b
  9823  002800  33B4               	rrcf	(??_powf+4)& (0+255),f,b
  9824  002802  33B3               	rrcf	(??_powf+3)& (0+255),f,b
  9825  002804  33B2               	rrcf	(??_powf+2)& (0+255),f,b
  9826  002806  33B1               	rrcf	(??_powf+1)& (0+255),f,b
  9827  002808  2FB0               	decfsz	??_powf& (0+255),f,b
  9828  00280A  EFFA  F013         	goto	u10195
  9829  00280E                     u10197:
  9830  00280E  0101               	movlb	1	; () banked
  9831  002810  51AC               	movf	powf@j& (0+255),w,b
  9832  002812  0100               	movlb	0	; () banked
  9833  002814  25B1               	addwf	(??_powf+1)& (0+255),w,b
  9834  002816  0101               	movlb	1	; () banked
  9835  002818  6F80               	movwf	powf@n& (0+255),b
  9836  00281A  51AD               	movf	(powf@j+1)& (0+255),w,b
  9837  00281C  0100               	movlb	0	; () banked
  9838  00281E  21B2               	addwfc	(??_powf+2)& (0+255),w,b
  9839  002820  0101               	movlb	1	; () banked
  9840  002822  6F81               	movwf	(powf@n+1)& (0+255),b
  9841  002824  51AE               	movf	(powf@j+2)& (0+255),w,b
  9842  002826  0100               	movlb	0	; () banked
  9843  002828  21B3               	addwfc	(??_powf+3)& (0+255),w,b
  9844  00282A  0101               	movlb	1	; () banked
  9845  00282C  6F82               	movwf	(powf@n+2)& (0+255),b
  9846  00282E  51AF               	movf	(powf@j+3)& (0+255),w,b
  9847  002830  0100               	movlb	0	; () banked
  9848  002832  21B4               	addwfc	(??_powf+4)& (0+255),w,b
  9849  002834  0101               	movlb	1	; () banked
  9850  002836  6F83               	movwf	(powf@n+3)& (0+255),b
  9851  002838  0E81               	movlw	129
  9852  00283A  0100               	movlb	0	; () banked
  9853  00283C  6FB0               	movwf	??_powf& (0+255),b
  9854  00283E  0EFF               	movlw	255
  9855  002840  6FB1               	movwf	(??_powf+1)& (0+255),b
  9856  002842  0EFF               	movlw	255
  9857  002844  6FB2               	movwf	(??_powf+2)& (0+255),b
  9858  002846  0EFF               	movlw	255
  9859  002848  6FB3               	movwf	(??_powf+3)& (0+255),b
  9860  00284A  0E17               	movlw	23
  9861  00284C  6FB4               	movwf	(??_powf+4)& (0+255),b
  9862  00284E  C180  F0B5         	movff	powf@n,??_powf+5
  9863  002852  C181  F0B6         	movff	powf@n+1,??_powf+6
  9864  002856  C182  F0B7         	movff	powf@n+2,??_powf+7
  9865  00285A  C183  F0B8         	movff	powf@n+3,??_powf+8
  9866  00285E                     u10205:
  9867  00285E  67B4               	tstfsz	(??_powf+4)& (0+255),b
  9868  002860  EF34  F014         	goto	u10206
  9869  002864  EF3C  F014         	goto	u10207
  9870  002868                     u10206:
  9871  002868  35B8               	rlcf	(??_powf+8)& (0+255),w,b
  9872  00286A  33B8               	rrcf	(??_powf+8)& (0+255),f,b
  9873  00286C  33B7               	rrcf	(??_powf+7)& (0+255),f,b
  9874  00286E  33B6               	rrcf	(??_powf+6)& (0+255),f,b
  9875  002870  33B5               	rrcf	(??_powf+5)& (0+255),f,b
  9876  002872  2FB4               	decfsz	(??_powf+4)& (0+255),f,b
  9877  002874  EF2F  F014         	goto	u10205
  9878  002878                     u10207:
  9879  002878  0100               	movlb	0	; () banked
  9880  00287A  51B5               	movf	(??_powf+5)& (0+255),w,b
  9881  00287C  25B0               	addwf	??_powf& (0+255),w,b
  9882  00287E  0101               	movlb	1	; () banked
  9883  002880  6FA0               	movwf	powf@k& (0+255),b
  9884  002882  0E00               	movlw	0
  9885  002884  0100               	movlb	0	; () banked
  9886  002886  21B1               	addwfc	(??_powf+1)& (0+255),w,b
  9887  002888  0101               	movlb	1	; () banked
  9888  00288A  6FA1               	movwf	(powf@k+1)& (0+255),b
  9889  00288C  0E00               	movlw	0
  9890  00288E  0100               	movlb	0	; () banked
  9891  002890  21B2               	addwfc	(??_powf+2)& (0+255),w,b
  9892  002892  0101               	movlb	1	; () banked
  9893  002894  6FA2               	movwf	(powf@k+2)& (0+255),b
  9894  002896  0E00               	movlw	0
  9895  002898  0100               	movlb	0	; () banked
  9896  00289A  21B3               	addwfc	(??_powf+3)& (0+255),w,b
  9897  00289C  0101               	movlb	1	; () banked
  9898  00289E  6FA3               	movwf	(powf@k+3)& (0+255),b
  9899  0028A0                     
  9900                           ; BSR set to: 1
  9901  0028A0  C1A0  F0B0         	movff	powf@k,??_powf
  9902  0028A4  0EFF               	movlw	255
  9903  0028A6  0100               	movlb	0	; () banked
  9904  0028A8  6FB1               	movwf	(??_powf+1)& (0+255),b
  9905  0028AA  0EFF               	movlw	255
  9906  0028AC  6FB2               	movwf	(??_powf+2)& (0+255),b
  9907  0028AE  0E7F               	movlw	127
  9908  0028B0  6FB3               	movwf	(??_powf+3)& (0+255),b
  9909  0028B2  0E00               	movlw	0
  9910  0028B4  6FB4               	movwf	(??_powf+4)& (0+255),b
  9911  0028B6                     u10215:
  9912  0028B6  67B0               	tstfsz	??_powf& (0+255),b
  9913  0028B8  EF60  F014         	goto	u10216
  9914  0028BC  EF68  F014         	goto	u10217
  9915  0028C0                     u10216:
  9916  0028C0  35B4               	rlcf	(??_powf+4)& (0+255),w,b
  9917  0028C2  33B4               	rrcf	(??_powf+4)& (0+255),f,b
  9918  0028C4  33B3               	rrcf	(??_powf+3)& (0+255),f,b
  9919  0028C6  33B2               	rrcf	(??_powf+2)& (0+255),f,b
  9920  0028C8  33B1               	rrcf	(??_powf+1)& (0+255),f,b
  9921  0028CA  2FB0               	decfsz	??_powf& (0+255),f,b
  9922  0028CC  EF5B  F014         	goto	u10215
  9923  0028D0                     u10217:
  9924  0028D0  0100               	movlb	0	; () banked
  9925  0028D2  1DB1               	comf	(??_powf+1)& (0+255),w,b
  9926  0028D4  6FB5               	movwf	(??_powf+5)& (0+255),b
  9927  0028D6  1DB2               	comf	(??_powf+2)& (0+255),w,b
  9928  0028D8  6FB6               	movwf	(??_powf+6)& (0+255),b
  9929  0028DA  1DB3               	comf	(??_powf+3)& (0+255),w,b
  9930  0028DC  6FB7               	movwf	(??_powf+7)& (0+255),b
  9931  0028DE  1DB4               	comf	(??_powf+4)& (0+255),w,b
  9932  0028E0  6FB8               	movwf	(??_powf+8)& (0+255),b
  9933  0028E2  0101               	movlb	1	; () banked
  9934  0028E4  5180               	movf	powf@n& (0+255),w,b
  9935  0028E6  0100               	movlb	0	; () banked
  9936  0028E8  15B5               	andwf	(??_powf+5)& (0+255),w,b
  9937  0028EA  0101               	movlb	1	; () banked
  9938  0028EC  6FB8               	movwf	powf@__xc8_float_word& (0+255),b
  9939  0028EE  5181               	movf	(powf@n+1)& (0+255),w,b
  9940  0028F0  0100               	movlb	0	; () banked
  9941  0028F2  15B6               	andwf	(??_powf+6)& (0+255),w,b
  9942  0028F4  0101               	movlb	1	; () banked
  9943  0028F6  6FB9               	movwf	(powf@__xc8_float_word+1)& (0+255),b
  9944  0028F8  5182               	movf	(powf@n+2)& (0+255),w,b
  9945  0028FA  0100               	movlb	0	; () banked
  9946  0028FC  15B7               	andwf	(??_powf+7)& (0+255),w,b
  9947  0028FE  0101               	movlb	1	; () banked
  9948  002900  6FBA               	movwf	(powf@__xc8_float_word+2)& (0+255),b
  9949  002902  5183               	movf	(powf@n+3)& (0+255),w,b
  9950  002904  0100               	movlb	0	; () banked
  9951  002906  15B8               	andwf	(??_powf+8)& (0+255),w,b
  9952  002908  0101               	movlb	1	; () banked
  9953  00290A  6FBB               	movwf	(powf@__xc8_float_word+3)& (0+255),b
  9954  00290C                     
  9955                           ; BSR set to: 1
  9956  00290C  C1B8  F1B0         	movff	powf@__xc8_float_word,powf@t
  9957  002910  C1B9  F1B1         	movff	powf@__xc8_float_word+1,powf@t+1
  9958  002914  C1BA  F1B2         	movff	powf@__xc8_float_word+2,powf@t+2
  9959  002918  C1BB  F1B3         	movff	powf@__xc8_float_word+3,powf@t+3
  9960  00291C                     
  9961                           ; BSR set to: 1
  9962  00291C  51A0               	movf	powf@k& (0+255),w,b
  9963  00291E  0817               	sublw	23
  9964  002920  0100               	movlb	0	; () banked
  9965  002922  6FB0               	movwf	??_powf& (0+255),b
  9966  002924  0EFF               	movlw	255
  9967  002926  0101               	movlb	1	; () banked
  9968  002928  1580               	andwf	powf@n& (0+255),w,b
  9969  00292A  0100               	movlb	0	; () banked
  9970  00292C  6FB1               	movwf	(??_powf+1)& (0+255),b
  9971  00292E  0EFF               	movlw	255
  9972  002930  0101               	movlb	1	; () banked
  9973  002932  1581               	andwf	(powf@n+1)& (0+255),w,b
  9974  002934  0100               	movlb	0	; () banked
  9975  002936  6FB2               	movwf	(??_powf+2)& (0+255),b
  9976  002938  0E7F               	movlw	127
  9977  00293A  0101               	movlb	1	; () banked
  9978  00293C  1582               	andwf	(powf@n+2)& (0+255),w,b
  9979  00293E  0100               	movlb	0	; () banked
  9980  002940  6FB3               	movwf	(??_powf+3)& (0+255),b
  9981  002942  0E00               	movlw	0
  9982  002944  0101               	movlb	1	; () banked
  9983  002946  1583               	andwf	(powf@n+3)& (0+255),w,b
  9984  002948  0100               	movlb	0	; () banked
  9985  00294A  6FB4               	movwf	(??_powf+4)& (0+255),b
  9986  00294C  0E00               	movlw	0
  9987  00294E  11B1               	iorwf	(??_powf+1)& (0+255),w,b
  9988  002950  6FB5               	movwf	(??_powf+5)& (0+255),b
  9989  002952  0E00               	movlw	0
  9990  002954  11B2               	iorwf	(??_powf+2)& (0+255),w,b
  9991  002956  6FB6               	movwf	(??_powf+6)& (0+255),b
  9992  002958  0E80               	movlw	128
  9993  00295A  11B3               	iorwf	(??_powf+3)& (0+255),w,b
  9994  00295C  6FB7               	movwf	(??_powf+7)& (0+255),b
  9995  00295E  0E00               	movlw	0
  9996  002960  11B4               	iorwf	(??_powf+4)& (0+255),w,b
  9997  002962  6FB8               	movwf	(??_powf+8)& (0+255),b
  9998  002964                     u10225:
  9999  002964  67B0               	tstfsz	??_powf& (0+255),b
 10000  002966  EFB7  F014         	goto	u10226
 10001  00296A  EFBF  F014         	goto	u10227
 10002  00296E                     u10226:
 10003  00296E  35B8               	rlcf	(??_powf+8)& (0+255),w,b
 10004  002970  33B8               	rrcf	(??_powf+8)& (0+255),f,b
 10005  002972  33B7               	rrcf	(??_powf+7)& (0+255),f,b
 10006  002974  33B6               	rrcf	(??_powf+6)& (0+255),f,b
 10007  002976  33B5               	rrcf	(??_powf+5)& (0+255),f,b
 10008  002978  2FB0               	decfsz	??_powf& (0+255),f,b
 10009  00297A  EFB2  F014         	goto	u10225
 10010  00297E                     u10227:
 10011  00297E  C0B5  F180         	movff	??_powf+5,powf@n
 10012  002982  C0B6  F181         	movff	??_powf+6,powf@n+1
 10013  002986  C0B7  F182         	movff	??_powf+7,powf@n+2
 10014  00298A  C0B8  F183         	movff	??_powf+8,powf@n+3
 10015  00298E  0101               	movlb	1	; () banked
 10016  002990  BFAF               	btfsc	(powf@j+3)& (0+255),7,b
 10017  002992  EFCF  F014         	goto	u10230
 10018  002996  EFCD  F014         	goto	u10231
 10019  00299A                     u10231:
 10020  00299A  EFD7  F014         	goto	l7808
 10021  00299E                     u10230:
 10022  00299E                     
 10023                           ; BSR set to: 1
 10024  00299E  1F83               	comf	(powf@n+3)& (0+255),f,b
 10025  0029A0  1F82               	comf	(powf@n+2)& (0+255),f,b
 10026  0029A2  1F81               	comf	(powf@n+1)& (0+255),f,b
 10027  0029A4  6D80               	negf	powf@n& (0+255),b
 10028  0029A6  0E00               	movlw	0
 10029  0029A8  2381               	addwfc	(powf@n+1)& (0+255),f,b
 10030  0029AA  2382               	addwfc	(powf@n+2)& (0+255),f,b
 10031  0029AC  2383               	addwfc	(powf@n+3)& (0+255),f,b
 10032  0029AE                     l7808:
 10033                           
 10034                           ; BSR set to: 1
 10035  0029AE  C19C  F03F         	movff	powf@p_h,___flsub@b
 10036  0029B2  C19D  F040         	movff	powf@p_h+1,___flsub@b+1
 10037  0029B6  C19E  F041         	movff	powf@p_h+2,___flsub@b+2
 10038  0029BA  C19F  F042         	movff	powf@p_h+3,___flsub@b+3
 10039  0029BE  C1B0  F043         	movff	powf@t,___flsub@a
 10040  0029C2  C1B1  F044         	movff	powf@t+1,___flsub@a+1
 10041  0029C6  C1B2  F045         	movff	powf@t+2,___flsub@a+2
 10042  0029CA  C1B3  F046         	movff	powf@t+3,___flsub@a+3
 10043  0029CE  ECB6  F034         	call	___flsub	;wreg free
 10044  0029D2  C03F  F19C         	movff	?___flsub,powf@p_h
 10045  0029D6  C040  F19D         	movff	?___flsub+1,powf@p_h+1
 10046  0029DA  C041  F19E         	movff	?___flsub+2,powf@p_h+2
 10047  0029DE  C042  F19F         	movff	?___flsub+3,powf@p_h+3
 10048  0029E2                     l7810:
 10049  0029E2  C164  F012         	movff	powf@p_l,___fladd@b
 10050  0029E6  C165  F013         	movff	powf@p_l+1,___fladd@b+1
 10051  0029EA  C166  F014         	movff	powf@p_l+2,___fladd@b+2
 10052  0029EE  C167  F015         	movff	powf@p_l+3,___fladd@b+3
 10053  0029F2  C19C  F016         	movff	powf@p_h,___fladd@a
 10054  0029F6  C19D  F017         	movff	powf@p_h+1,___fladd@a+1
 10055  0029FA  C19E  F018         	movff	powf@p_h+2,___fladd@a+2
 10056  0029FE  C19F  F019         	movff	powf@p_h+3,___fladd@a+3
 10057  002A02  ECF5  F020         	call	___fladd	;wreg free
 10058  002A06  C012  F1B0         	movff	?___fladd,powf@t
 10059  002A0A  C013  F1B1         	movff	?___fladd+1,powf@t+1
 10060  002A0E  C014  F1B2         	movff	?___fladd+2,powf@t+2
 10061  002A12  C015  F1B3         	movff	?___fladd+3,powf@t+3
 10062  002A16  C1B0  F1B8         	movff	powf@t,powf@__xc8_float_word
 10063  002A1A  C1B1  F1B9         	movff	powf@t+1,powf@__xc8_float_word+1
 10064  002A1E  C1B2  F1BA         	movff	powf@t+2,powf@__xc8_float_word+2
 10065  002A22  C1B3  F1BB         	movff	powf@t+3,powf@__xc8_float_word+3
 10066  002A26  C1B8  F194         	movff	powf@__xc8_float_word,powf@is
 10067  002A2A  C1B9  F195         	movff	powf@__xc8_float_word+1,powf@is+1
 10068  002A2E  C1BA  F196         	movff	powf@__xc8_float_word+2,powf@is+2
 10069  002A32  C1BB  F197         	movff	powf@__xc8_float_word+3,powf@is+3
 10070  002A36  0E00               	movlw	0
 10071  002A38  0101               	movlb	1	; () banked
 10072  002A3A  1594               	andwf	powf@is& (0+255),w,b
 10073  002A3C  6FB8               	movwf	powf@__xc8_float_word& (0+255),b
 10074  002A3E  0E80               	movlw	128
 10075  002A40  1595               	andwf	(powf@is+1)& (0+255),w,b
 10076  002A42  6FB9               	movwf	(powf@__xc8_float_word+1)& (0+255),b
 10077  002A44  0EFF               	movlw	255
 10078  002A46  1596               	andwf	(powf@is+2)& (0+255),w,b
 10079  002A48  6FBA               	movwf	(powf@__xc8_float_word+2)& (0+255),b
 10080  002A4A  0EFF               	movlw	255
 10081  002A4C  1597               	andwf	(powf@is+3)& (0+255),w,b
 10082  002A4E  6FBB               	movwf	(powf@__xc8_float_word+3)& (0+255),b
 10083  002A50                     
 10084                           ; BSR set to: 1
 10085  002A50  C1B8  F1B0         	movff	powf@__xc8_float_word,powf@t
 10086  002A54  C1B9  F1B1         	movff	powf@__xc8_float_word+1,powf@t+1
 10087  002A58  C1BA  F1B2         	movff	powf@__xc8_float_word+2,powf@t+2
 10088  002A5C  C1BB  F1B3         	movff	powf@__xc8_float_word+3,powf@t+3
 10089  002A60                     
 10090                           ; BSR set to: 1
 10091  002A60  C1B0  F026         	movff	powf@t,___flmul@b
 10092  002A64  C1B1  F027         	movff	powf@t+1,___flmul@b+1
 10093  002A68  C1B2  F028         	movff	powf@t+2,___flmul@b+2
 10094  002A6C  C1B3  F029         	movff	powf@t+3,___flmul@b+3
 10095  002A70  0E00               	movlw	0
 10096  002A72  6E2A               	movwf	___flmul@a^0,c
 10097  002A74  0E72               	movlw	114
 10098  002A76  6E2B               	movwf	(___flmul@a+1)^0,c
 10099  002A78  0E31               	movlw	49
 10100  002A7A  6E2C               	movwf	(___flmul@a+2)^0,c
 10101  002A7C  0E3F               	movlw	63
 10102  002A7E  6E2D               	movwf	(___flmul@a+3)^0,c
 10103  002A80  EC8B  F025         	call	___flmul	;wreg free
 10104  002A84  C026  F174         	movff	?___flmul,powf@u
 10105  002A88  C027  F175         	movff	?___flmul+1,powf@u+1
 10106  002A8C  C028  F176         	movff	?___flmul+2,powf@u+2
 10107  002A90  C029  F177         	movff	?___flmul+3,powf@u+3
 10108  002A94  C19C  F043         	movff	powf@p_h,___flsub@a
 10109  002A98  C19D  F044         	movff	powf@p_h+1,___flsub@a+1
 10110  002A9C  C19E  F045         	movff	powf@p_h+2,___flsub@a+2
 10111  002AA0  C19F  F046         	movff	powf@p_h+3,___flsub@a+3
 10112  002AA4  C1B0  F03F         	movff	powf@t,___flsub@b
 10113  002AA8  C1B1  F040         	movff	powf@t+1,___flsub@b+1
 10114  002AAC  C1B2  F041         	movff	powf@t+2,___flsub@b+2
 10115  002AB0  C1B3  F042         	movff	powf@t+3,___flsub@b+3
 10116  002AB4  ECB6  F034         	call	___flsub	;wreg free
 10117  002AB8  C03F  F198         	movff	?___flsub,_powf$1985
 10118  002ABC  C040  F199         	movff	?___flsub+1,_powf$1985+1
 10119  002AC0  C041  F19A         	movff	?___flsub+2,_powf$1985+2
 10120  002AC4  C042  F19B         	movff	?___flsub+3,_powf$1985+3
 10121  002AC8  0E18               	movlw	24
 10122  002ACA  6E2A               	movwf	___flmul@a^0,c
 10123  002ACC  0E72               	movlw	114
 10124  002ACE  6E2B               	movwf	(___flmul@a+1)^0,c
 10125  002AD0  0E31               	movlw	49
 10126  002AD2  6E2C               	movwf	(___flmul@a+2)^0,c
 10127  002AD4  0E3F               	movlw	63
 10128  002AD6  6E2D               	movwf	(___flmul@a+3)^0,c
 10129  002AD8  C198  F043         	movff	_powf$1985,___flsub@a
 10130  002ADC  C199  F044         	movff	_powf$1985+1,___flsub@a+1
 10131  002AE0  C19A  F045         	movff	_powf$1985+2,___flsub@a+2
 10132  002AE4  C19B  F046         	movff	_powf$1985+3,___flsub@a+3
 10133  002AE8  C164  F03F         	movff	powf@p_l,___flsub@b
 10134  002AEC  C165  F040         	movff	powf@p_l+1,___flsub@b+1
 10135  002AF0  C166  F041         	movff	powf@p_l+2,___flsub@b+2
 10136  002AF4  C167  F042         	movff	powf@p_l+3,___flsub@b+3
 10137  002AF8  ECB6  F034         	call	___flsub	;wreg free
 10138  002AFC  C03F  F026         	movff	?___flsub,___flmul@b
 10139  002B00  C040  F027         	movff	?___flsub+1,___flmul@b+1
 10140  002B04  C041  F028         	movff	?___flsub+2,___flmul@b+2
 10141  002B08  C042  F029         	movff	?___flsub+3,___flmul@b+3
 10142  002B0C  EC8B  F025         	call	___flmul	;wreg free
 10143  002B10  C026  F114         	movff	?___flmul,_powf$1995
 10144  002B14  C027  F115         	movff	?___flmul+1,_powf$1995+1
 10145  002B18  C028  F116         	movff	?___flmul+2,_powf$1995+2
 10146  002B1C  C029  F117         	movff	?___flmul+3,_powf$1995+3
 10147  002B20  C114  F012         	movff	_powf$1995,___fladd@b
 10148  002B24  C115  F013         	movff	_powf$1995+1,___fladd@b+1
 10149  002B28  C116  F014         	movff	_powf$1995+2,___fladd@b+2
 10150  002B2C  C117  F015         	movff	_powf$1995+3,___fladd@b+3
 10151  002B30  0E8C               	movlw	140
 10152  002B32  6E2A               	movwf	___flmul@a^0,c
 10153  002B34  0EBE               	movlw	190
 10154  002B36  6E2B               	movwf	(___flmul@a+1)^0,c
 10155  002B38  0EBF               	movlw	191
 10156  002B3A  6E2C               	movwf	(___flmul@a+2)^0,c
 10157  002B3C  0E35               	movlw	53
 10158  002B3E  6E2D               	movwf	(___flmul@a+3)^0,c
 10159  002B40  C1B0  F026         	movff	powf@t,___flmul@b
 10160  002B44  C1B1  F027         	movff	powf@t+1,___flmul@b+1
 10161  002B48  C1B2  F028         	movff	powf@t+2,___flmul@b+2
 10162  002B4C  C1B3  F029         	movff	powf@t+3,___flmul@b+3
 10163  002B50  EC8B  F025         	call	___flmul	;wreg free
 10164  002B54  C026  F016         	movff	?___flmul,___fladd@a
 10165  002B58  C027  F017         	movff	?___flmul+1,___fladd@a+1
 10166  002B5C  C028  F018         	movff	?___flmul+2,___fladd@a+2
 10167  002B60  C029  F019         	movff	?___flmul+3,___fladd@a+3
 10168  002B64  ECF5  F020         	call	___fladd	;wreg free
 10169  002B68  C012  F178         	movff	?___fladd,powf@v
 10170  002B6C  C013  F179         	movff	?___fladd+1,powf@v+1
 10171  002B70  C014  F17A         	movff	?___fladd+2,powf@v+2
 10172  002B74  C015  F17B         	movff	?___fladd+3,powf@v+3
 10173  002B78  C174  F012         	movff	powf@u,___fladd@b
 10174  002B7C  C175  F013         	movff	powf@u+1,___fladd@b+1
 10175  002B80  C176  F014         	movff	powf@u+2,___fladd@b+2
 10176  002B84  C177  F015         	movff	powf@u+3,___fladd@b+3
 10177  002B88  C178  F016         	movff	powf@v,___fladd@a
 10178  002B8C  C179  F017         	movff	powf@v+1,___fladd@a+1
 10179  002B90  C17A  F018         	movff	powf@v+2,___fladd@a+2
 10180  002B94  C17B  F019         	movff	powf@v+3,___fladd@a+3
 10181  002B98  ECF5  F020         	call	___fladd	;wreg free
 10182  002B9C  C012  F1B4         	movff	?___fladd,powf@z
 10183  002BA0  C013  F1B5         	movff	?___fladd+1,powf@z+1
 10184  002BA4  C014  F1B6         	movff	?___fladd+2,powf@z+2
 10185  002BA8  C015  F1B7         	movff	?___fladd+3,powf@z+3
 10186  002BAC  C174  F043         	movff	powf@u,___flsub@a
 10187  002BB0  C175  F044         	movff	powf@u+1,___flsub@a+1
 10188  002BB4  C176  F045         	movff	powf@u+2,___flsub@a+2
 10189  002BB8  C177  F046         	movff	powf@u+3,___flsub@a+3
 10190  002BBC  C1B4  F03F         	movff	powf@z,___flsub@b
 10191  002BC0  C1B5  F040         	movff	powf@z+1,___flsub@b+1
 10192  002BC4  C1B6  F041         	movff	powf@z+2,___flsub@b+2
 10193  002BC8  C1B7  F042         	movff	powf@z+3,___flsub@b+3
 10194  002BCC  ECB6  F034         	call	___flsub	;wreg free
 10195  002BD0  C03F  F198         	movff	?___flsub,_powf$1985
 10196  002BD4  C040  F199         	movff	?___flsub+1,_powf$1985+1
 10197  002BD8  C041  F19A         	movff	?___flsub+2,_powf$1985+2
 10198  002BDC  C042  F19B         	movff	?___flsub+3,_powf$1985+3
 10199  002BE0  C178  F03F         	movff	powf@v,___flsub@b
 10200  002BE4  C179  F040         	movff	powf@v+1,___flsub@b+1
 10201  002BE8  C17A  F041         	movff	powf@v+2,___flsub@b+2
 10202  002BEC  C17B  F042         	movff	powf@v+3,___flsub@b+3
 10203  002BF0  C198  F043         	movff	_powf$1985,___flsub@a
 10204  002BF4  C199  F044         	movff	_powf$1985+1,___flsub@a+1
 10205  002BF8  C19A  F045         	movff	_powf$1985+2,___flsub@a+2
 10206  002BFC  C19B  F046         	movff	_powf$1985+3,___flsub@a+3
 10207  002C00  ECB6  F034         	call	___flsub	;wreg free
 10208  002C04  C03F  F144         	movff	?___flsub,powf@w
 10209  002C08  C040  F145         	movff	?___flsub+1,powf@w+1
 10210  002C0C  C041  F146         	movff	?___flsub+2,powf@w+2
 10211  002C10  C042  F147         	movff	?___flsub+3,powf@w+3
 10212  002C14  C1B4  F026         	movff	powf@z,___flmul@b
 10213  002C18  C1B5  F027         	movff	powf@z+1,___flmul@b+1
 10214  002C1C  C1B6  F028         	movff	powf@z+2,___flmul@b+2
 10215  002C20  C1B7  F029         	movff	powf@z+3,___flmul@b+3
 10216  002C24  C1B4  F02A         	movff	powf@z,___flmul@a
 10217  002C28  C1B5  F02B         	movff	powf@z+1,___flmul@a+1
 10218  002C2C  C1B6  F02C         	movff	powf@z+2,___flmul@a+2
 10219  002C30  C1B7  F02D         	movff	powf@z+3,___flmul@a+3
 10220  002C34  EC8B  F025         	call	___flmul	;wreg free
 10221  002C38  C026  F1B0         	movff	?___flmul,powf@t
 10222  002C3C  C027  F1B1         	movff	?___flmul+1,powf@t+1
 10223  002C40  C028  F1B2         	movff	?___flmul+2,powf@t+2
 10224  002C44  C029  F1B3         	movff	?___flmul+3,powf@t+3
 10225  002C48  0E0E               	movlw	14
 10226  002C4A  6E16               	movwf	___fladd@a^0,c
 10227  002C4C  0EEA               	movlw	234
 10228  002C4E  6E17               	movwf	(___fladd@a+1)^0,c
 10229  002C50  0EDD               	movlw	221
 10230  002C52  6E18               	movwf	(___fladd@a+2)^0,c
 10231  002C54  0EB5               	movlw	181
 10232  002C56  6E19               	movwf	(___fladd@a+3)^0,c
 10233  002C58  0E4C               	movlw	76
 10234  002C5A  6E2A               	movwf	___flmul@a^0,c
 10235  002C5C  0EBB               	movlw	187
 10236  002C5E  6E2B               	movwf	(___flmul@a+1)^0,c
 10237  002C60  0E31               	movlw	49
 10238  002C62  6E2C               	movwf	(___flmul@a+2)^0,c
 10239  002C64  0E33               	movlw	51
 10240  002C66  6E2D               	movwf	(___flmul@a+3)^0,c
 10241  002C68  C1B0  F026         	movff	powf@t,___flmul@b
 10242  002C6C  C1B1  F027         	movff	powf@t+1,___flmul@b+1
 10243  002C70  C1B2  F028         	movff	powf@t+2,___flmul@b+2
 10244  002C74  C1B3  F029         	movff	powf@t+3,___flmul@b+3
 10245  002C78  EC8B  F025         	call	___flmul	;wreg free
 10246  002C7C  C026  F012         	movff	?___flmul,___fladd@b
 10247  002C80  C027  F013         	movff	?___flmul+1,___fladd@b+1
 10248  002C84  C028  F014         	movff	?___flmul+2,___fladd@b+2
 10249  002C88  C029  F015         	movff	?___flmul+3,___fladd@b+3
 10250  002C8C  ECF5  F020         	call	___fladd	;wreg free
 10251  002C90  C012  F1A4         	movff	?___fladd,_powf$1982
 10252  002C94  C013  F1A5         	movff	?___fladd+1,_powf$1982+1
 10253  002C98  C014  F1A6         	movff	?___fladd+2,_powf$1982+2
 10254  002C9C  C015  F1A7         	movff	?___fladd+3,_powf$1982+3
 10255  002CA0  0E55               	movlw	85
 10256  002CA2  6E16               	movwf	___fladd@a^0,c
 10257  002CA4  0EB3               	movlw	179
 10258  002CA6  6E17               	movwf	(___fladd@a+1)^0,c
 10259  002CA8  0E8A               	movlw	138
 10260  002CAA  6E18               	movwf	(___fladd@a+2)^0,c
 10261  002CAC  0E38               	movlw	56
 10262  002CAE  6E19               	movwf	(___fladd@a+3)^0,c
 10263  002CB0  C1B0  F02A         	movff	powf@t,___flmul@a
 10264  002CB4  C1B1  F02B         	movff	powf@t+1,___flmul@a+1
 10265  002CB8  C1B2  F02C         	movff	powf@t+2,___flmul@a+2
 10266  002CBC  C1B3  F02D         	movff	powf@t+3,___flmul@a+3
 10267  002CC0  C1A4  F026         	movff	_powf$1982,___flmul@b
 10268  002CC4  C1A5  F027         	movff	_powf$1982+1,___flmul@b+1
 10269  002CC8  C1A6  F028         	movff	_powf$1982+2,___flmul@b+2
 10270  002CCC  C1A7  F029         	movff	_powf$1982+3,___flmul@b+3
 10271  002CD0  EC8B  F025         	call	___flmul	;wreg free
 10272  002CD4  C026  F012         	movff	?___flmul,___fladd@b
 10273  002CD8  C027  F013         	movff	?___flmul+1,___fladd@b+1
 10274  002CDC  C028  F014         	movff	?___flmul+2,___fladd@b+2
 10275  002CE0  C029  F015         	movff	?___flmul+3,___fladd@b+3
 10276  002CE4  ECF5  F020         	call	___fladd	;wreg free
 10277  002CE8  C012  F154         	movff	?___fladd,_powf$1983
 10278  002CEC  C013  F155         	movff	?___fladd+1,_powf$1983+1
 10279  002CF0  C014  F156         	movff	?___fladd+2,_powf$1983+2
 10280  002CF4  C015  F157         	movff	?___fladd+3,_powf$1983+3
 10281  002CF8  0E61               	movlw	97
 10282  002CFA  6E16               	movwf	___fladd@a^0,c
 10283  002CFC  0E0B               	movlw	11
 10284  002CFE  6E17               	movwf	(___fladd@a+1)^0,c
 10285  002D00  0E36               	movlw	54
 10286  002D02  6E18               	movwf	(___fladd@a+2)^0,c
 10287  002D04  0EBB               	movlw	187
 10288  002D06  6E19               	movwf	(___fladd@a+3)^0,c
 10289  002D08  C1B0  F02A         	movff	powf@t,___flmul@a
 10290  002D0C  C1B1  F02B         	movff	powf@t+1,___flmul@a+1
 10291  002D10  C1B2  F02C         	movff	powf@t+2,___flmul@a+2
 10292  002D14  C1B3  F02D         	movff	powf@t+3,___flmul@a+3
 10293  002D18  C154  F026         	movff	_powf$1983,___flmul@b
 10294  002D1C  C155  F027         	movff	_powf$1983+1,___flmul@b+1
 10295  002D20  C156  F028         	movff	_powf$1983+2,___flmul@b+2
 10296  002D24  C157  F029         	movff	_powf$1983+3,___flmul@b+3
 10297  002D28  EC8B  F025         	call	___flmul	;wreg free
 10298  002D2C  C026  F012         	movff	?___flmul,___fladd@b
 10299  002D30  C027  F013         	movff	?___flmul+1,___fladd@b+1
 10300  002D34  C028  F014         	movff	?___flmul+2,___fladd@b+2
 10301  002D38  C029  F015         	movff	?___flmul+3,___fladd@b+3
 10302  002D3C  ECF5  F020         	call	___fladd	;wreg free
 10303  002D40  C012  F148         	movff	?___fladd,_powf$1984
 10304  002D44  C013  F149         	movff	?___fladd+1,_powf$1984+1
 10305  002D48  C014  F14A         	movff	?___fladd+2,_powf$1984+2
 10306  002D4C  C015  F14B         	movff	?___fladd+3,_powf$1984+3
 10307  002D50  0EAB               	movlw	171
 10308  002D52  6E16               	movwf	___fladd@a^0,c
 10309  002D54  0EAA               	movlw	170
 10310  002D56  6E17               	movwf	(___fladd@a+1)^0,c
 10311  002D58  0E2A               	movlw	42
 10312  002D5A  6E18               	movwf	(___fladd@a+2)^0,c
 10313  002D5C  0E3E               	movlw	62
 10314  002D5E  6E19               	movwf	(___fladd@a+3)^0,c
 10315  002D60  C1B0  F02A         	movff	powf@t,___flmul@a
 10316  002D64  C1B1  F02B         	movff	powf@t+1,___flmul@a+1
 10317  002D68  C1B2  F02C         	movff	powf@t+2,___flmul@a+2
 10318  002D6C  C1B3  F02D         	movff	powf@t+3,___flmul@a+3
 10319  002D70  C148  F026         	movff	_powf$1984,___flmul@b
 10320  002D74  C149  F027         	movff	_powf$1984+1,___flmul@b+1
 10321  002D78  C14A  F028         	movff	_powf$1984+2,___flmul@b+2
 10322  002D7C  C14B  F029         	movff	_powf$1984+3,___flmul@b+3
 10323  002D80  EC8B  F025         	call	___flmul	;wreg free
 10324  002D84  C026  F012         	movff	?___flmul,___fladd@b
 10325  002D88  C027  F013         	movff	?___flmul+1,___fladd@b+1
 10326  002D8C  C028  F014         	movff	?___flmul+2,___fladd@b+2
 10327  002D90  C029  F015         	movff	?___flmul+3,___fladd@b+3
 10328  002D94  ECF5  F020         	call	___fladd	;wreg free
 10329  002D98  C012  F138         	movff	?___fladd,_powf$1986
 10330  002D9C  C013  F139         	movff	?___fladd+1,_powf$1986+1
 10331  002DA0  C014  F13A         	movff	?___fladd+2,_powf$1986+2
 10332  002DA4  C015  F13B         	movff	?___fladd+3,_powf$1986+3
 10333  002DA8  C1B4  F03F         	movff	powf@z,___flsub@b
 10334  002DAC  C1B5  F040         	movff	powf@z+1,___flsub@b+1
 10335  002DB0  C1B6  F041         	movff	powf@z+2,___flsub@b+2
 10336  002DB4  C1B7  F042         	movff	powf@z+3,___flsub@b+3
 10337  002DB8  C1B0  F02A         	movff	powf@t,___flmul@a
 10338  002DBC  C1B1  F02B         	movff	powf@t+1,___flmul@a+1
 10339  002DC0  C1B2  F02C         	movff	powf@t+2,___flmul@a+2
 10340  002DC4  C1B3  F02D         	movff	powf@t+3,___flmul@a+3
 10341  002DC8  C138  F026         	movff	_powf$1986,___flmul@b
 10342  002DCC  C139  F027         	movff	_powf$1986+1,___flmul@b+1
 10343  002DD0  C13A  F028         	movff	_powf$1986+2,___flmul@b+2
 10344  002DD4  C13B  F029         	movff	_powf$1986+3,___flmul@b+3
 10345  002DD8  EC8B  F025         	call	___flmul	;wreg free
 10346  002DDC  C026  F043         	movff	?___flmul,___flsub@a
 10347  002DE0  C027  F044         	movff	?___flmul+1,___flsub@a+1
 10348  002DE4  C028  F045         	movff	?___flmul+2,___flsub@a+2
 10349  002DE8  C029  F046         	movff	?___flmul+3,___flsub@a+3
 10350  002DEC  ECB6  F034         	call	___flsub	;wreg free
 10351  002DF0  C03F  F184         	movff	?___flsub,powf@t1
 10352  002DF4  C040  F185         	movff	?___flsub+1,powf@t1+1
 10353  002DF8  C041  F186         	movff	?___flsub+2,powf@t1+2
 10354  002DFC  C042  F187         	movff	?___flsub+3,powf@t1+3
 10355  002E00  0E00               	movlw	0
 10356  002E02  6E16               	movwf	___fladd@a^0,c
 10357  002E04  0E00               	movlw	0
 10358  002E06  6E17               	movwf	(___fladd@a+1)^0,c
 10359  002E08  0E00               	movlw	0
 10360  002E0A  6E18               	movwf	(___fladd@a+2)^0,c
 10361  002E0C  0EC0               	movlw	192
 10362  002E0E  6E19               	movwf	(___fladd@a+3)^0,c
 10363  002E10  C184  F012         	movff	powf@t1,___fladd@b
 10364  002E14  C185  F013         	movff	powf@t1+1,___fladd@b+1
 10365  002E18  C186  F014         	movff	powf@t1+2,___fladd@b+2
 10366  002E1C  C187  F015         	movff	powf@t1+3,___fladd@b+3
 10367  002E20  ECF5  F020         	call	___fladd	;wreg free
 10368  002E24  C012  F04B         	movff	?___fladd,___fldiv@a
 10369  002E28  C013  F04C         	movff	?___fladd+1,___fldiv@a+1
 10370  002E2C  C014  F04D         	movff	?___fladd+2,___fldiv@a+2
 10371  002E30  C015  F04E         	movff	?___fladd+3,___fldiv@a+3
 10372  002E34  C184  F02A         	movff	powf@t1,___flmul@a
 10373  002E38  C185  F02B         	movff	powf@t1+1,___flmul@a+1
 10374  002E3C  C186  F02C         	movff	powf@t1+2,___flmul@a+2
 10375  002E40  C187  F02D         	movff	powf@t1+3,___flmul@a+3
 10376  002E44  C1B4  F026         	movff	powf@z,___flmul@b
 10377  002E48  C1B5  F027         	movff	powf@z+1,___flmul@b+1
 10378  002E4C  C1B6  F028         	movff	powf@z+2,___flmul@b+2
 10379  002E50  C1B7  F029         	movff	powf@z+3,___flmul@b+3
 10380  002E54  EC8B  F025         	call	___flmul	;wreg free
 10381  002E58  C026  F047         	movff	?___flmul,___fldiv@b
 10382  002E5C  C027  F048         	movff	?___flmul+1,___fldiv@b+1
 10383  002E60  C028  F049         	movff	?___flmul+2,___fldiv@b+2
 10384  002E64  C029  F04A         	movff	?___flmul+3,___fldiv@b+3
 10385  002E68  ECA0  F027         	call	___fldiv	;wreg free
 10386  002E6C  C047  F13C         	movff	?___fldiv,_powf$1990
 10387  002E70  C048  F13D         	movff	?___fldiv+1,_powf$1990+1
 10388  002E74  C049  F13E         	movff	?___fldiv+2,_powf$1990+2
 10389  002E78  C04A  F13F         	movff	?___fldiv+3,_powf$1990+3
 10390  002E7C  C144  F016         	movff	powf@w,___fladd@a
 10391  002E80  C145  F017         	movff	powf@w+1,___fladd@a+1
 10392  002E84  C146  F018         	movff	powf@w+2,___fladd@a+2
 10393  002E88  C147  F019         	movff	powf@w+3,___fladd@a+3
 10394  002E8C  C144  F02A         	movff	powf@w,___flmul@a
 10395  002E90  C145  F02B         	movff	powf@w+1,___flmul@a+1
 10396  002E94  C146  F02C         	movff	powf@w+2,___flmul@a+2
 10397  002E98  C147  F02D         	movff	powf@w+3,___flmul@a+3
 10398  002E9C  C1B4  F026         	movff	powf@z,___flmul@b
 10399  002EA0  C1B5  F027         	movff	powf@z+1,___flmul@b+1
 10400  002EA4  C1B6  F028         	movff	powf@z+2,___flmul@b+2
 10401  002EA8  C1B7  F029         	movff	powf@z+3,___flmul@b+3
 10402  002EAC  EC8B  F025         	call	___flmul	;wreg free
 10403  002EB0  C026  F012         	movff	?___flmul,___fladd@b
 10404  002EB4  C027  F013         	movff	?___flmul+1,___fladd@b+1
 10405  002EB8  C028  F014         	movff	?___flmul+2,___fladd@b+2
 10406  002EBC  C029  F015         	movff	?___flmul+3,___fladd@b+3
 10407  002EC0  ECF5  F020         	call	___fladd	;wreg free
 10408  002EC4  C012  F118         	movff	?___fladd,_powf$1996
 10409  002EC8  C013  F119         	movff	?___fladd+1,_powf$1996+1
 10410  002ECC  C014  F11A         	movff	?___fladd+2,_powf$1996+2
 10411  002ED0  C015  F11B         	movff	?___fladd+3,_powf$1996+3
 10412  002ED4  C13C  F03F         	movff	_powf$1990,___flsub@b
 10413  002ED8  C13D  F040         	movff	_powf$1990+1,___flsub@b+1
 10414  002EDC  C13E  F041         	movff	_powf$1990+2,___flsub@b+2
 10415  002EE0  C13F  F042         	movff	_powf$1990+3,___flsub@b+3
 10416  002EE4  C118  F043         	movff	_powf$1996,___flsub@a
 10417  002EE8  C119  F044         	movff	_powf$1996+1,___flsub@a+1
 10418  002EEC  C11A  F045         	movff	_powf$1996+2,___flsub@a+2
 10419  002EF0  C11B  F046         	movff	_powf$1996+3,___flsub@a+3
 10420  002EF4  ECB6  F034         	call	___flsub	;wreg free
 10421  002EF8  C03F  F14C         	movff	?___flsub,powf@r
 10422  002EFC  C040  F14D         	movff	?___flsub+1,powf@r+1
 10423  002F00  C041  F14E         	movff	?___flsub+2,powf@r+2
 10424  002F04  C042  F14F         	movff	?___flsub+3,powf@r+3
 10425  002F08  C1B4  F043         	movff	powf@z,___flsub@a
 10426  002F0C  C1B5  F044         	movff	powf@z+1,___flsub@a+1
 10427  002F10  C1B6  F045         	movff	powf@z+2,___flsub@a+2
 10428  002F14  C1B7  F046         	movff	powf@z+3,___flsub@a+3
 10429  002F18  C14C  F03F         	movff	powf@r,___flsub@b
 10430  002F1C  C14D  F040         	movff	powf@r+1,___flsub@b+1
 10431  002F20  C14E  F041         	movff	powf@r+2,___flsub@b+2
 10432  002F24  C14F  F042         	movff	powf@r+3,___flsub@b+3
 10433  002F28  ECB6  F034         	call	___flsub	;wreg free
 10434  002F2C  C03F  F198         	movff	?___flsub,_powf$1985
 10435  002F30  C040  F199         	movff	?___flsub+1,_powf$1985+1
 10436  002F34  C041  F19A         	movff	?___flsub+2,_powf$1985+2
 10437  002F38  C042  F19B         	movff	?___flsub+3,_powf$1985+3
 10438  002F3C  0E00               	movlw	0
 10439  002F3E  6E3F               	movwf	___flsub@b^0,c
 10440  002F40  0E00               	movlw	0
 10441  002F42  6E40               	movwf	(___flsub@b+1)^0,c
 10442  002F44  0E80               	movlw	128
 10443  002F46  6E41               	movwf	(___flsub@b+2)^0,c
 10444  002F48  0E3F               	movlw	63
 10445  002F4A  6E42               	movwf	(___flsub@b+3)^0,c
 10446  002F4C  C198  F043         	movff	_powf$1985,___flsub@a
 10447  002F50  C199  F044         	movff	_powf$1985+1,___flsub@a+1
 10448  002F54  C19A  F045         	movff	_powf$1985+2,___flsub@a+2
 10449  002F58  C19B  F046         	movff	_powf$1985+3,___flsub@a+3
 10450  002F5C  ECB6  F034         	call	___flsub	;wreg free
 10451  002F60  C03F  F1B4         	movff	?___flsub,powf@z
 10452  002F64  C040  F1B5         	movff	?___flsub+1,powf@z+1
 10453  002F68  C041  F1B6         	movff	?___flsub+2,powf@z+2
 10454  002F6C  C042  F1B7         	movff	?___flsub+3,powf@z+3
 10455  002F70  C1B4  F1B8         	movff	powf@z,powf@__xc8_float_word
 10456  002F74  C1B5  F1B9         	movff	powf@z+1,powf@__xc8_float_word+1
 10457  002F78  C1B6  F1BA         	movff	powf@z+2,powf@__xc8_float_word+2
 10458  002F7C  C1B7  F1BB         	movff	powf@z+3,powf@__xc8_float_word+3
 10459  002F80  C1B8  F1AC         	movff	powf@__xc8_float_word,powf@j
 10460  002F84  C1B9  F1AD         	movff	powf@__xc8_float_word+1,powf@j+1
 10461  002F88  C1BA  F1AE         	movff	powf@__xc8_float_word+2,powf@j+2
 10462  002F8C  C1BB  F1AF         	movff	powf@__xc8_float_word+3,powf@j+3
 10463  002F90  C180  F0B0         	movff	powf@n,??_powf
 10464  002F94  C181  F0B1         	movff	powf@n+1,??_powf+1
 10465  002F98  C182  F0B2         	movff	powf@n+2,??_powf+2
 10466  002F9C  C183  F0B3         	movff	powf@n+3,??_powf+3
 10467  002FA0  0E17               	movlw	23
 10468  002FA2                     u10245:
 10469  002FA2  90D8               	bcf	status,0,c
 10470  002FA4  0100               	movlb	0	; () banked
 10471  002FA6  37B0               	rlcf	??_powf& (0+255),f,b
 10472  002FA8  37B1               	rlcf	(??_powf+1)& (0+255),f,b
 10473  002FAA  37B2               	rlcf	(??_powf+2)& (0+255),f,b
 10474  002FAC  37B3               	rlcf	(??_powf+3)& (0+255),f,b
 10475  002FAE  2EE8               	decfsz	wreg,f,c
 10476  002FB0  EFD1  F017         	goto	u10245
 10477  002FB4  51B0               	movf	??_powf& (0+255),w,b
 10478  002FB6  0101               	movlb	1	; () banked
 10479  002FB8  27AC               	addwf	powf@j& (0+255),f,b
 10480  002FBA  0100               	movlb	0	; () banked
 10481  002FBC  51B1               	movf	(??_powf+1)& (0+255),w,b
 10482  002FBE  0101               	movlb	1	; () banked
 10483  002FC0  23AD               	addwfc	(powf@j+1)& (0+255),f,b
 10484  002FC2  0100               	movlb	0	; () banked
 10485  002FC4  51B2               	movf	(??_powf+2)& (0+255),w,b
 10486  002FC6  0101               	movlb	1	; () banked
 10487  002FC8  23AE               	addwfc	(powf@j+2)& (0+255),f,b
 10488  002FCA  0100               	movlb	0	; () banked
 10489  002FCC  51B3               	movf	(??_powf+3)& (0+255),w,b
 10490  002FCE  0101               	movlb	1	; () banked
 10491  002FD0  23AF               	addwfc	(powf@j+3)& (0+255),f,b
 10492  002FD2                     
 10493                           ; BSR set to: 1
 10494  002FD2  0E17               	movlw	23
 10495  002FD4  0100               	movlb	0	; () banked
 10496  002FD6  6FB0               	movwf	??_powf& (0+255),b
 10497  002FD8  C1AC  F0B1         	movff	powf@j,??_powf+1
 10498  002FDC  C1AD  F0B2         	movff	powf@j+1,??_powf+2
 10499  002FE0  C1AE  F0B3         	movff	powf@j+2,??_powf+3
 10500  002FE4  C1AF  F0B4         	movff	powf@j+3,??_powf+4
 10501  002FE8                     u10255:
 10502  002FE8  67B0               	tstfsz	??_powf& (0+255),b
 10503  002FEA  EFF9  F017         	goto	u10256
 10504  002FEE  EF01  F018         	goto	u10257
 10505  002FF2                     u10256:
 10506  002FF2  35B4               	rlcf	(??_powf+4)& (0+255),w,b
 10507  002FF4  33B4               	rrcf	(??_powf+4)& (0+255),f,b
 10508  002FF6  33B3               	rrcf	(??_powf+3)& (0+255),f,b
 10509  002FF8  33B2               	rrcf	(??_powf+2)& (0+255),f,b
 10510  002FFA  33B1               	rrcf	(??_powf+1)& (0+255),f,b
 10511  002FFC  2FB0               	decfsz	??_powf& (0+255),f,b
 10512  002FFE  EFF4  F017         	goto	u10255
 10513  003002                     u10257:
 10514  003002  0100               	movlb	0	; () banked
 10515  003004  BFB4               	btfsc	(??_powf+4)& (0+255),7,b
 10516  003006  EF11  F018         	goto	u10260
 10517  00300A  51B4               	movf	(??_powf+4)& (0+255),w,b
 10518  00300C  11B3               	iorwf	(??_powf+3)& (0+255),w,b
 10519  00300E  11B2               	iorwf	(??_powf+2)& (0+255),w,b
 10520  003010  E106               	bnz	u10261
 10521  003012  05B1               	decf	(??_powf+1)& (0+255),w,b
 10522  003014  B0D8               	btfsc	status,0,c
 10523  003016  EF0F  F018         	goto	u10261
 10524  00301A  EF11  F018         	goto	u10260
 10525  00301E                     u10261:
 10526  00301E  EF29  F018         	goto	l1364
 10527  003022                     u10260:
 10528  003022                     
 10529                           ; BSR set to: 0
 10530  003022  C1B4  F03F         	movff	powf@z,scalbnf@x
 10531  003026  C1B5  F040         	movff	powf@z+1,scalbnf@x+1
 10532  00302A  C1B6  F041         	movff	powf@z+2,scalbnf@x+2
 10533  00302E  C1B7  F042         	movff	powf@z+3,scalbnf@x+3
 10534  003032  C180  F043         	movff	powf@n,scalbnf@n
 10535  003036  C181  F044         	movff	powf@n+1,scalbnf@n+1
 10536  00303A  EC6E  F029         	call	_scalbnf	;wreg free
 10537  00303E  C03F  F1B4         	movff	?_scalbnf,powf@z
 10538  003042  C040  F1B5         	movff	?_scalbnf+1,powf@z+1
 10539  003046  C041  F1B6         	movff	?_scalbnf+2,powf@z+2
 10540  00304A  C042  F1B7         	movff	?_scalbnf+3,powf@z+3
 10541  00304E  EF39  F018         	goto	l7866
 10542  003052                     l1364:
 10543                           
 10544                           ; BSR set to: 0
 10545  003052  C1AC  F1B8         	movff	powf@j,powf@__xc8_float_word
 10546  003056  C1AD  F1B9         	movff	powf@j+1,powf@__xc8_float_word+1
 10547  00305A  C1AE  F1BA         	movff	powf@j+2,powf@__xc8_float_word+2
 10548  00305E  C1AF  F1BB         	movff	powf@j+3,powf@__xc8_float_word+3
 10549  003062  C1B8  F1B4         	movff	powf@__xc8_float_word,powf@z
 10550  003066  C1B9  F1B5         	movff	powf@__xc8_float_word+1,powf@z+1
 10551  00306A  C1BA  F1B6         	movff	powf@__xc8_float_word+2,powf@z+2
 10552  00306E  C1BB  F1B7         	movff	powf@__xc8_float_word+3,powf@z+3
 10553  003072                     l7866:
 10554  003072  C188  F026         	movff	powf@sn,___flmul@b
 10555  003076  C189  F027         	movff	powf@sn+1,___flmul@b+1
 10556  00307A  C18A  F028         	movff	powf@sn+2,___flmul@b+2
 10557  00307E  C18B  F029         	movff	powf@sn+3,___flmul@b+3
 10558  003082  C1B4  F02A         	movff	powf@z,___flmul@a
 10559  003086  C1B5  F02B         	movff	powf@z+1,___flmul@a+1
 10560  00308A  C1B6  F02C         	movff	powf@z+2,___flmul@a+2
 10561  00308E  C1B7  F02D         	movff	powf@z+3,___flmul@a+3
 10562  003092  EC8B  F025         	call	___flmul	;wreg free
 10563  003096  C026  F0A8         	movff	?___flmul,?_powf
 10564  00309A  C027  F0A9         	movff	?___flmul+1,?_powf+1
 10565  00309E  C028  F0AA         	movff	?___flmul+2,?_powf+2
 10566  0030A2  C029  F0AB         	movff	?___flmul+3,?_powf+3
 10567  0030A6                     l1252:
 10568  0030A6  0012               	return		;funcret
 10569  0030A8                     __end_of_powf:
 10570                           	callstack 0
 10571                           
 10572 ;; *************** function _sqrtf *****************
 10573 ;; Defined at:
 10574 ;;		line 22 in file "C:\Program Files\Microchip\xc8\v2.30\pic\sources\c99\common\sqrtf.c"
 10575 ;; Parameters:    Size  Location     Type
 10576 ;;  x               4   82[COMRAM] float 
 10577 ;; Auto vars:     Size  Location     Type
 10578 ;;  ix              4   36[BANK0 ] long 
 10579 ;;  r               4   32[BANK0 ] unsigned long 
 10580 ;;  m               4   28[BANK0 ] long 
 10581 ;;  z               4   24[BANK0 ] float 
 10582 ;;  t               4   20[BANK0 ] long 
 10583 ;;  q               4   16[BANK0 ] long 
 10584 ;;  __xc8_float_    4   12[BANK0 ] struct .
 10585 ;;  i               4    8[BANK0 ] long 
 10586 ;;  s               4    4[BANK0 ] long 
 10587 ;;  sign            4    0        long 
 10588 ;; Return value:  Size  Location     Type
 10589 ;;                  4   82[COMRAM] float 
 10590 ;; Registers used:
 10591 ;;		wreg, status,2, status,0, prodl, prodh, cstack
 10592 ;; Tracked objects:
 10593 ;;		On entry : 0/0
 10594 ;;		On exit  : 0/0
 10595 ;;		Unchanged: 0/0
 10596 ;; Data sizes:     COMRAM   BANK0   BANK1   BANK2   BANK3   BANK4   BANK5
 10597 ;;      Params:         4       0       0       0       0       0       0
 10598 ;;      Locals:         0      40       0       0       0       0       0
 10599 ;;      Temps:          5       0       0       0       0       0       0
 10600 ;;      Totals:         9      40       0       0       0       0       0
 10601 ;;Total ram usage:       49 bytes
 10602 ;; Hardware stack levels used:    1
 10603 ;; Hardware stack levels required when called:    5
 10604 ;; This function calls:
 10605 ;;		___fladd
 10606 ;;		___flge
 10607 ;;		___flmul
 10608 ;;		_nanf
 10609 ;; This function is called by:
 10610 ;;		_powf
 10611 ;; This function uses a non-reentrant model
 10612 ;;
 10613                           
 10614                           	psect	text24
 10615  003D28                     __ptext24:
 10616                           	callstack 0
 10617  003D28                     _sqrtf:
 10618                           	callstack 23
 10619  003D28  C053  F08C         	movff	sqrtf@x,sqrtf@__xc8_float_word
 10620  003D2C  C054  F08D         	movff	sqrtf@x+1,sqrtf@__xc8_float_word+1
 10621  003D30  C055  F08E         	movff	sqrtf@x+2,sqrtf@__xc8_float_word+2
 10622  003D34  C056  F08F         	movff	sqrtf@x+3,sqrtf@__xc8_float_word+3
 10623  003D38  C08C  F0A4         	movff	sqrtf@__xc8_float_word,sqrtf@ix
 10624  003D3C  C08D  F0A5         	movff	sqrtf@__xc8_float_word+1,sqrtf@ix+1
 10625  003D40  C08E  F0A6         	movff	sqrtf@__xc8_float_word+2,sqrtf@ix+2
 10626  003D44  C08F  F0A7         	movff	sqrtf@__xc8_float_word+3,sqrtf@ix+3
 10627  003D48  0E00               	movlw	0
 10628  003D4A  0100               	movlb	0	; () banked
 10629  003D4C  15A4               	andwf	sqrtf@ix& (0+255),w,b
 10630  003D4E  6E57               	movwf	??_sqrtf^0,c
 10631  003D50  0E00               	movlw	0
 10632  003D52  15A5               	andwf	(sqrtf@ix+1)& (0+255),w,b
 10633  003D54  6E58               	movwf	(??_sqrtf+1)^0,c
 10634  003D56  0E80               	movlw	128
 10635  003D58  15A6               	andwf	(sqrtf@ix+2)& (0+255),w,b
 10636  003D5A  6E59               	movwf	(??_sqrtf+2)^0,c
 10637  003D5C  0E7F               	movlw	127
 10638  003D5E  15A7               	andwf	(sqrtf@ix+3)& (0+255),w,b
 10639  003D60  6E5A               	movwf	(??_sqrtf+3)^0,c
 10640  003D62  0E80               	movlw	128
 10641  003D64  1859               	xorwf	(??_sqrtf+2)^0,w,c
 10642  003D66  E109               	bnz	u9481
 10643  003D68  0E7F               	movlw	127
 10644  003D6A  185A               	xorwf	(??_sqrtf+3)^0,w,c
 10645  003D6C  1057               	iorwf	??_sqrtf^0,w,c
 10646  003D6E  1058               	iorwf	(??_sqrtf+1)^0,w,c
 10647  003D70  A4D8               	btfss	status,2,c
 10648  003D72  EFBD  F01E         	goto	u9481
 10649  003D76  EFBF  F01E         	goto	u9480
 10650  003D7A                     u9481:
 10651  003D7A  EFED  F01E         	goto	l7258
 10652  003D7E                     u9480:
 10653  003D7E                     
 10654                           ; BSR set to: 0
 10655  003D7E  C053  F02A         	movff	sqrtf@x,___flmul@a
 10656  003D82  C054  F02B         	movff	sqrtf@x+1,___flmul@a+1
 10657  003D86  C055  F02C         	movff	sqrtf@x+2,___flmul@a+2
 10658  003D8A  C056  F02D         	movff	sqrtf@x+3,___flmul@a+3
 10659  003D8E  C053  F026         	movff	sqrtf@x,___flmul@b
 10660  003D92  C054  F027         	movff	sqrtf@x+1,___flmul@b+1
 10661  003D96  C055  F028         	movff	sqrtf@x+2,___flmul@b+2
 10662  003D9A  C056  F029         	movff	sqrtf@x+3,___flmul@b+3
 10663  003D9E  EC8B  F025         	call	___flmul	;wreg free
 10664  003DA2  C026  F012         	movff	?___flmul,___fladd@b
 10665  003DA6  C027  F013         	movff	?___flmul+1,___fladd@b+1
 10666  003DAA  C028  F014         	movff	?___flmul+2,___fladd@b+2
 10667  003DAE  C029  F015         	movff	?___flmul+3,___fladd@b+3
 10668  003DB2  C053  F016         	movff	sqrtf@x,___fladd@a
 10669  003DB6  C054  F017         	movff	sqrtf@x+1,___fladd@a+1
 10670  003DBA  C055  F018         	movff	sqrtf@x+2,___fladd@a+2
 10671  003DBE  C056  F019         	movff	sqrtf@x+3,___fladd@a+3
 10672  003DC2  ECF5  F020         	call	___fladd	;wreg free
 10673  003DC6  C012  F053         	movff	?___fladd,?_sqrtf
 10674  003DCA  C013  F054         	movff	?___fladd+1,?_sqrtf+1
 10675  003DCE  C014  F055         	movff	?___fladd+2,?_sqrtf+2
 10676  003DD2  C015  F056         	movff	?___fladd+3,?_sqrtf+3
 10677  003DD6  EFF4  F020         	goto	l1395
 10678  003DDA                     l7258:
 10679                           
 10680                           ; BSR set to: 0
 10681  003DDA  BFA7               	btfsc	(sqrtf@ix+3)& (0+255),7,b
 10682  003DDC  EFFC  F01E         	goto	u9490
 10683  003DE0  51A7               	movf	(sqrtf@ix+3)& (0+255),w,b
 10684  003DE2  11A6               	iorwf	(sqrtf@ix+2)& (0+255),w,b
 10685  003DE4  11A5               	iorwf	(sqrtf@ix+1)& (0+255),w,b
 10686  003DE6  E106               	bnz	u9491
 10687  003DE8  05A4               	decf	sqrtf@ix& (0+255),w,b
 10688  003DEA  B0D8               	btfsc	status,0,c
 10689  003DEC  EFFA  F01E         	goto	u9491
 10690  003DF0  EFFC  F01E         	goto	u9490
 10691  003DF4                     u9491:
 10692  003DF4  EF39  F01F         	goto	l7272
 10693  003DF8                     u9490:
 10694  003DF8                     
 10695                           ; BSR set to: 0
 10696  003DF8  0EFF               	movlw	255
 10697  003DFA  15A4               	andwf	sqrtf@ix& (0+255),w,b
 10698  003DFC  6E57               	movwf	??_sqrtf^0,c
 10699  003DFE  0EFF               	movlw	255
 10700  003E00  15A5               	andwf	(sqrtf@ix+1)& (0+255),w,b
 10701  003E02  6E58               	movwf	(??_sqrtf+1)^0,c
 10702  003E04  0EFF               	movlw	255
 10703  003E06  15A6               	andwf	(sqrtf@ix+2)& (0+255),w,b
 10704  003E08  6E59               	movwf	(??_sqrtf+2)^0,c
 10705  003E0A  0E7F               	movlw	127
 10706  003E0C  15A7               	andwf	(sqrtf@ix+3)& (0+255),w,b
 10707  003E0E  6E5A               	movwf	(??_sqrtf+3)^0,c
 10708  003E10  5057               	movf	??_sqrtf^0,w,c
 10709  003E12  1058               	iorwf	(??_sqrtf+1)^0,w,c
 10710  003E14  1059               	iorwf	(??_sqrtf+2)^0,w,c
 10711  003E16  105A               	iorwf	(??_sqrtf+3)^0,w,c
 10712  003E18  A4D8               	btfss	status,2,c
 10713  003E1A  EF11  F01F         	goto	u9501
 10714  003E1E  EF13  F01F         	goto	u9500
 10715  003E22                     u9501:
 10716  003E22  EF1D  F01F         	goto	l7264
 10717  003E26                     u9500:
 10718  003E26                     
 10719                           ; BSR set to: 0
 10720  003E26  C053  F053         	movff	sqrtf@x,?_sqrtf
 10721  003E2A  C054  F054         	movff	sqrtf@x+1,?_sqrtf+1
 10722  003E2E  C055  F055         	movff	sqrtf@x+2,?_sqrtf+2
 10723  003E32  C056  F056         	movff	sqrtf@x+3,?_sqrtf+3
 10724  003E36  EFF4  F020         	goto	l1395
 10725  003E3A                     l7264:
 10726                           
 10727                           ; BSR set to: 0
 10728  003E3A  BFA7               	btfsc	(sqrtf@ix+3)& (0+255),7,b
 10729  003E3C  EF24  F01F         	goto	u9510
 10730  003E40  EF22  F01F         	goto	u9511
 10731  003E44                     u9511:
 10732  003E44  EF39  F01F         	goto	l7272
 10733  003E48                     u9510:
 10734  003E48                     
 10735                           ; BSR set to: 0
 10736  003E48  0E00               	movlw	0
 10737  003E4A  0101               	movlb	1	; () banked
 10738  003E4C  6FF9               	movwf	(_errno+1)& (0+255),b
 10739  003E4E  0E21               	movlw	33
 10740  003E50  6FF8               	movwf	_errno& (0+255),b
 10741  003E52                     
 10742                           ; BSR set to: 1
 10743  003E52  0E97               	movlw	low (STR_2+2)
 10744  003E54  6E12               	movwf	nanf@s^0,c
 10745  003E56  0E06               	movlw	high (STR_2+2)
 10746  003E58  6E13               	movwf	(nanf@s+1)^0,c
 10747  003E5A  EC0E  F036         	call	_nanf	;wreg free
 10748  003E5E  C012  F053         	movff	?_nanf,?_sqrtf
 10749  003E62  C013  F054         	movff	?_nanf+1,?_sqrtf+1
 10750  003E66  C014  F055         	movff	?_nanf+2,?_sqrtf+2
 10751  003E6A  C015  F056         	movff	?_nanf+3,?_sqrtf+3
 10752  003E6E  EFF4  F020         	goto	l1395
 10753  003E72                     l7272:
 10754                           
 10755                           ; BSR set to: 0
 10756  003E72  0E17               	movlw	23
 10757  003E74  6E57               	movwf	??_sqrtf^0,c
 10758  003E76  C0A4  F058         	movff	sqrtf@ix,??_sqrtf+1
 10759  003E7A  C0A5  F059         	movff	sqrtf@ix+1,??_sqrtf+2
 10760  003E7E  C0A6  F05A         	movff	sqrtf@ix+2,??_sqrtf+3
 10761  003E82  C0A7  F05B         	movff	sqrtf@ix+3,??_sqrtf+4
 10762  003E86                     u9525:
 10763  003E86  6657               	tstfsz	??_sqrtf^0,c
 10764  003E88  EF48  F01F         	goto	u9526
 10765  003E8C  EF50  F01F         	goto	u9527
 10766  003E90                     u9526:
 10767  003E90  345B               	rlcf	(??_sqrtf+4)^0,w,c
 10768  003E92  325B               	rrcf	(??_sqrtf+4)^0,f,c
 10769  003E94  325A               	rrcf	(??_sqrtf+3)^0,f,c
 10770  003E96  3259               	rrcf	(??_sqrtf+2)^0,f,c
 10771  003E98  3258               	rrcf	(??_sqrtf+1)^0,f,c
 10772  003E9A  2E57               	decfsz	??_sqrtf^0,f,c
 10773  003E9C  EF43  F01F         	goto	u9525
 10774  003EA0                     u9527:
 10775  003EA0  C058  F09C         	movff	??_sqrtf+1,sqrtf@m
 10776  003EA4  C059  F09D         	movff	??_sqrtf+2,sqrtf@m+1
 10777  003EA8  C05A  F09E         	movff	??_sqrtf+3,sqrtf@m+2
 10778  003EAC  C05B  F09F         	movff	??_sqrtf+4,sqrtf@m+3
 10779  003EB0  0100               	movlb	0	; () banked
 10780  003EB2  519C               	movf	sqrtf@m& (0+255),w,b
 10781  003EB4  119D               	iorwf	(sqrtf@m+1)& (0+255),w,b
 10782  003EB6  119E               	iorwf	(sqrtf@m+2)& (0+255),w,b
 10783  003EB8  119F               	iorwf	(sqrtf@m+3)& (0+255),w,b
 10784  003EBA  A4D8               	btfss	status,2,c
 10785  003EBC  EF62  F01F         	goto	u9531
 10786  003EC0  EF64  F01F         	goto	u9530
 10787  003EC4                     u9531:
 10788  003EC4  EF94  F01F         	goto	l1399
 10789  003EC8                     u9530:
 10790  003EC8                     
 10791                           ; BSR set to: 0
 10792  003EC8  0E00               	movlw	0
 10793  003ECA  6F88               	movwf	sqrtf@i& (0+255),b
 10794  003ECC  0E00               	movlw	0
 10795  003ECE  6F89               	movwf	(sqrtf@i+1)& (0+255),b
 10796  003ED0  0E00               	movlw	0
 10797  003ED2  6F8A               	movwf	(sqrtf@i+2)& (0+255),b
 10798  003ED4  0E00               	movlw	0
 10799  003ED6  6F8B               	movwf	(sqrtf@i+3)& (0+255),b
 10800  003ED8  EF79  F01F         	goto	l7280
 10801  003EDC                     l7276:
 10802                           
 10803                           ; BSR set to: 0
 10804  003EDC  90D8               	bcf	status,0,c
 10805  003EDE  37A4               	rlcf	sqrtf@ix& (0+255),f,b
 10806  003EE0  37A5               	rlcf	(sqrtf@ix+1)& (0+255),f,b
 10807  003EE2  37A6               	rlcf	(sqrtf@ix+2)& (0+255),f,b
 10808  003EE4  37A7               	rlcf	(sqrtf@ix+3)& (0+255),f,b
 10809  003EE6                     
 10810                           ; BSR set to: 0
 10811  003EE6  0E01               	movlw	1
 10812  003EE8  2788               	addwf	sqrtf@i& (0+255),f,b
 10813  003EEA  0E00               	movlw	0
 10814  003EEC  2389               	addwfc	(sqrtf@i+1)& (0+255),f,b
 10815  003EEE  238A               	addwfc	(sqrtf@i+2)& (0+255),f,b
 10816  003EF0  238B               	addwfc	(sqrtf@i+3)& (0+255),f,b
 10817  003EF2                     l7280:
 10818                           
 10819                           ; BSR set to: 0
 10820  003EF2  AFA6               	btfss	(sqrtf@ix+2)& (0+255),7,b
 10821  003EF4  EF7E  F01F         	goto	u9541
 10822  003EF8  EF80  F01F         	goto	u9540
 10823  003EFC                     u9541:
 10824  003EFC  EF6E  F01F         	goto	l7276
 10825  003F00                     u9540:
 10826  003F00                     
 10827                           ; BSR set to: 0
 10828  003F00  0EFF               	movlw	255
 10829  003F02  2588               	addwf	sqrtf@i& (0+255),w,b
 10830  003F04  6E57               	movwf	??_sqrtf^0,c
 10831  003F06  0EFF               	movlw	255
 10832  003F08  2189               	addwfc	(sqrtf@i+1)& (0+255),w,b
 10833  003F0A  6E58               	movwf	(??_sqrtf+1)^0,c
 10834  003F0C  0EFF               	movlw	255
 10835  003F0E  218A               	addwfc	(sqrtf@i+2)& (0+255),w,b
 10836  003F10  6E59               	movwf	(??_sqrtf+2)^0,c
 10837  003F12  0EFF               	movlw	255
 10838  003F14  218B               	addwfc	(sqrtf@i+3)& (0+255),w,b
 10839  003F16  6E5A               	movwf	(??_sqrtf+3)^0,c
 10840  003F18  5057               	movf	??_sqrtf^0,w,c
 10841  003F1A  5F9C               	subwf	sqrtf@m& (0+255),f,b
 10842  003F1C  5058               	movf	(??_sqrtf+1)^0,w,c
 10843  003F1E  5B9D               	subwfb	(sqrtf@m+1)& (0+255),f,b
 10844  003F20  5059               	movf	(??_sqrtf+2)^0,w,c
 10845  003F22  5B9E               	subwfb	(sqrtf@m+2)& (0+255),f,b
 10846  003F24  505A               	movf	(??_sqrtf+3)^0,w,c
 10847  003F26  5B9F               	subwfb	(sqrtf@m+3)& (0+255),f,b
 10848  003F28                     l1399:
 10849                           
 10850                           ; BSR set to: 0
 10851  003F28  0E81               	movlw	129
 10852  003F2A  279C               	addwf	sqrtf@m& (0+255),f,b
 10853  003F2C  0EFF               	movlw	255
 10854  003F2E  239D               	addwfc	(sqrtf@m+1)& (0+255),f,b
 10855  003F30  0EFF               	movlw	255
 10856  003F32  239E               	addwfc	(sqrtf@m+2)& (0+255),f,b
 10857  003F34  0EFF               	movlw	255
 10858  003F36  239F               	addwfc	(sqrtf@m+3)& (0+255),f,b
 10859  003F38  0EFF               	movlw	255
 10860  003F3A  15A4               	andwf	sqrtf@ix& (0+255),w,b
 10861  003F3C  6E57               	movwf	??_sqrtf^0,c
 10862  003F3E  0EFF               	movlw	255
 10863  003F40  15A5               	andwf	(sqrtf@ix+1)& (0+255),w,b
 10864  003F42  6E58               	movwf	(??_sqrtf+1)^0,c
 10865  003F44  0E7F               	movlw	127
 10866  003F46  15A6               	andwf	(sqrtf@ix+2)& (0+255),w,b
 10867  003F48  6E59               	movwf	(??_sqrtf+2)^0,c
 10868  003F4A  0E00               	movlw	0
 10869  003F4C  15A7               	andwf	(sqrtf@ix+3)& (0+255),w,b
 10870  003F4E  6E5A               	movwf	(??_sqrtf+3)^0,c
 10871  003F50  0E00               	movlw	0
 10872  003F52  1057               	iorwf	??_sqrtf^0,w,c
 10873  003F54  6FA4               	movwf	sqrtf@ix& (0+255),b
 10874  003F56  0E00               	movlw	0
 10875  003F58  1058               	iorwf	(??_sqrtf+1)^0,w,c
 10876  003F5A  6FA5               	movwf	(sqrtf@ix+1)& (0+255),b
 10877  003F5C  0E80               	movlw	128
 10878  003F5E  1059               	iorwf	(??_sqrtf+2)^0,w,c
 10879  003F60  6FA6               	movwf	(sqrtf@ix+2)& (0+255),b
 10880  003F62  0E00               	movlw	0
 10881  003F64  105A               	iorwf	(??_sqrtf+3)^0,w,c
 10882  003F66  6FA7               	movwf	(sqrtf@ix+3)& (0+255),b
 10883  003F68                     
 10884                           ; BSR set to: 0
 10885  003F68  A19C               	btfss	sqrtf@m& (0+255),0,b
 10886  003F6A  EFB9  F01F         	goto	u9551
 10887  003F6E  EFBB  F01F         	goto	u9550
 10888  003F72                     u9551:
 10889  003F72  EFC3  F01F         	goto	l1403
 10890  003F76                     u9550:
 10891  003F76                     
 10892                           ; BSR set to: 0
 10893  003F76  51A4               	movf	sqrtf@ix& (0+255),w,b
 10894  003F78  27A4               	addwf	sqrtf@ix& (0+255),f,b
 10895  003F7A  51A5               	movf	(sqrtf@ix+1)& (0+255),w,b
 10896  003F7C  23A5               	addwfc	(sqrtf@ix+1)& (0+255),f,b
 10897  003F7E  51A6               	movf	(sqrtf@ix+2)& (0+255),w,b
 10898  003F80  23A6               	addwfc	(sqrtf@ix+2)& (0+255),f,b
 10899  003F82  51A7               	movf	(sqrtf@ix+3)& (0+255),w,b
 10900  003F84  23A7               	addwfc	(sqrtf@ix+3)& (0+255),f,b
 10901  003F86                     l1403:
 10902                           
 10903                           ; BSR set to: 0
 10904  003F86  359F               	rlcf	(sqrtf@m+3)& (0+255),w,b
 10905  003F88  339F               	rrcf	(sqrtf@m+3)& (0+255),f,b
 10906  003F8A  339E               	rrcf	(sqrtf@m+2)& (0+255),f,b
 10907  003F8C  339D               	rrcf	(sqrtf@m+1)& (0+255),f,b
 10908  003F8E  339C               	rrcf	sqrtf@m& (0+255),f,b
 10909  003F90  51A4               	movf	sqrtf@ix& (0+255),w,b
 10910  003F92  27A4               	addwf	sqrtf@ix& (0+255),f,b
 10911  003F94  51A5               	movf	(sqrtf@ix+1)& (0+255),w,b
 10912  003F96  23A5               	addwfc	(sqrtf@ix+1)& (0+255),f,b
 10913  003F98  51A6               	movf	(sqrtf@ix+2)& (0+255),w,b
 10914  003F9A  23A6               	addwfc	(sqrtf@ix+2)& (0+255),f,b
 10915  003F9C  51A7               	movf	(sqrtf@ix+3)& (0+255),w,b
 10916  003F9E  23A7               	addwfc	(sqrtf@ix+3)& (0+255),f,b
 10917  003FA0                     
 10918                           ; BSR set to: 0
 10919  003FA0  0E00               	movlw	0
 10920  003FA2  6F84               	movwf	sqrtf@s& (0+255),b
 10921  003FA4  0E00               	movlw	0
 10922  003FA6  6F85               	movwf	(sqrtf@s+1)& (0+255),b
 10923  003FA8  0E00               	movlw	0
 10924  003FAA  6F86               	movwf	(sqrtf@s+2)& (0+255),b
 10925  003FAC  0E00               	movlw	0
 10926  003FAE  6F87               	movwf	(sqrtf@s+3)& (0+255),b
 10927  003FB0  C084  F090         	movff	sqrtf@s,sqrtf@q
 10928  003FB4  C085  F091         	movff	sqrtf@s+1,sqrtf@q+1
 10929  003FB8  C086  F092         	movff	sqrtf@s+2,sqrtf@q+2
 10930  003FBC  C087  F093         	movff	sqrtf@s+3,sqrtf@q+3
 10931  003FC0                     
 10932                           ; BSR set to: 0
 10933  003FC0  0E00               	movlw	0
 10934  003FC2  6FA0               	movwf	sqrtf@r& (0+255),b
 10935  003FC4  0E00               	movlw	0
 10936  003FC6  6FA1               	movwf	(sqrtf@r+1)& (0+255),b
 10937  003FC8  0E00               	movlw	0
 10938  003FCA  6FA2               	movwf	(sqrtf@r+2)& (0+255),b
 10939  003FCC  0E01               	movlw	1
 10940  003FCE  6FA3               	movwf	(sqrtf@r+3)& (0+255),b
 10941  003FD0  EF32  F020         	goto	l7298
 10942  003FD4                     l7292:
 10943                           
 10944                           ; BSR set to: 0
 10945  003FD4  5184               	movf	sqrtf@s& (0+255),w,b
 10946  003FD6  25A0               	addwf	sqrtf@r& (0+255),w,b
 10947  003FD8  6F94               	movwf	sqrtf@t& (0+255),b
 10948  003FDA  5185               	movf	(sqrtf@s+1)& (0+255),w,b
 10949  003FDC  21A1               	addwfc	(sqrtf@r+1)& (0+255),w,b
 10950  003FDE  6F95               	movwf	(sqrtf@t+1)& (0+255),b
 10951  003FE0  5186               	movf	(sqrtf@s+2)& (0+255),w,b
 10952  003FE2  21A2               	addwfc	(sqrtf@r+2)& (0+255),w,b
 10953  003FE4  6F96               	movwf	(sqrtf@t+2)& (0+255),b
 10954  003FE6  5187               	movf	(sqrtf@s+3)& (0+255),w,b
 10955  003FE8  21A3               	addwfc	(sqrtf@r+3)& (0+255),w,b
 10956  003FEA  6F97               	movwf	(sqrtf@t+3)& (0+255),b
 10957  003FEC  5194               	movf	sqrtf@t& (0+255),w,b
 10958  003FEE  5DA4               	subwf	sqrtf@ix& (0+255),w,b
 10959  003FF0  5195               	movf	(sqrtf@t+1)& (0+255),w,b
 10960  003FF2  59A5               	subwfb	(sqrtf@ix+1)& (0+255),w,b
 10961  003FF4  5196               	movf	(sqrtf@t+2)& (0+255),w,b
 10962  003FF6  59A6               	subwfb	(sqrtf@ix+2)& (0+255),w,b
 10963  003FF8  51A7               	movf	(sqrtf@ix+3)& (0+255),w,b
 10964  003FFA  0A80               	xorlw	128
 10965  003FFC  6E57               	movwf	??_sqrtf^0,c
 10966  003FFE  5197               	movf	(sqrtf@t+3)& (0+255),w,b
 10967  004000  0A80               	xorlw	128
 10968  004002  5857               	subwfb	??_sqrtf^0,w,c
 10969  004004  A0D8               	btfss	status,0,c
 10970  004006  EF07  F020         	goto	u9561
 10971  00400A  EF09  F020         	goto	u9560
 10972  00400E                     u9561:
 10973  00400E  EF25  F020         	goto	l1406
 10974  004012                     u9560:
 10975  004012                     
 10976                           ; BSR set to: 0
 10977  004012  5194               	movf	sqrtf@t& (0+255),w,b
 10978  004014  25A0               	addwf	sqrtf@r& (0+255),w,b
 10979  004016  6F84               	movwf	sqrtf@s& (0+255),b
 10980  004018  5195               	movf	(sqrtf@t+1)& (0+255),w,b
 10981  00401A  21A1               	addwfc	(sqrtf@r+1)& (0+255),w,b
 10982  00401C  6F85               	movwf	(sqrtf@s+1)& (0+255),b
 10983  00401E  5196               	movf	(sqrtf@t+2)& (0+255),w,b
 10984  004020  21A2               	addwfc	(sqrtf@r+2)& (0+255),w,b
 10985  004022  6F86               	movwf	(sqrtf@s+2)& (0+255),b
 10986  004024  5197               	movf	(sqrtf@t+3)& (0+255),w,b
 10987  004026  21A3               	addwfc	(sqrtf@r+3)& (0+255),w,b
 10988  004028  6F87               	movwf	(sqrtf@s+3)& (0+255),b
 10989  00402A  5194               	movf	sqrtf@t& (0+255),w,b
 10990  00402C  5FA4               	subwf	sqrtf@ix& (0+255),f,b
 10991  00402E  5195               	movf	(sqrtf@t+1)& (0+255),w,b
 10992  004030  5BA5               	subwfb	(sqrtf@ix+1)& (0+255),f,b
 10993  004032  5196               	movf	(sqrtf@t+2)& (0+255),w,b
 10994  004034  5BA6               	subwfb	(sqrtf@ix+2)& (0+255),f,b
 10995  004036  5197               	movf	(sqrtf@t+3)& (0+255),w,b
 10996  004038  5BA7               	subwfb	(sqrtf@ix+3)& (0+255),f,b
 10997  00403A  51A0               	movf	sqrtf@r& (0+255),w,b
 10998  00403C  2790               	addwf	sqrtf@q& (0+255),f,b
 10999  00403E  51A1               	movf	(sqrtf@r+1)& (0+255),w,b
 11000  004040  2391               	addwfc	(sqrtf@q+1)& (0+255),f,b
 11001  004042  51A2               	movf	(sqrtf@r+2)& (0+255),w,b
 11002  004044  2392               	addwfc	(sqrtf@q+2)& (0+255),f,b
 11003  004046  51A3               	movf	(sqrtf@r+3)& (0+255),w,b
 11004  004048  2393               	addwfc	(sqrtf@q+3)& (0+255),f,b
 11005  00404A                     l1406:
 11006                           
 11007                           ; BSR set to: 0
 11008  00404A  51A4               	movf	sqrtf@ix& (0+255),w,b
 11009  00404C  27A4               	addwf	sqrtf@ix& (0+255),f,b
 11010  00404E  51A5               	movf	(sqrtf@ix+1)& (0+255),w,b
 11011  004050  23A5               	addwfc	(sqrtf@ix+1)& (0+255),f,b
 11012  004052  51A6               	movf	(sqrtf@ix+2)& (0+255),w,b
 11013  004054  23A6               	addwfc	(sqrtf@ix+2)& (0+255),f,b
 11014  004056  51A7               	movf	(sqrtf@ix+3)& (0+255),w,b
 11015  004058  23A7               	addwfc	(sqrtf@ix+3)& (0+255),f,b
 11016  00405A                     
 11017                           ; BSR set to: 0
 11018  00405A  90D8               	bcf	status,0,c
 11019  00405C  33A3               	rrcf	(sqrtf@r+3)& (0+255),f,b
 11020  00405E  33A2               	rrcf	(sqrtf@r+2)& (0+255),f,b
 11021  004060  33A1               	rrcf	(sqrtf@r+1)& (0+255),f,b
 11022  004062  33A0               	rrcf	sqrtf@r& (0+255),f,b
 11023  004064                     l7298:
 11024                           
 11025                           ; BSR set to: 0
 11026  004064  51A0               	movf	sqrtf@r& (0+255),w,b
 11027  004066  11A1               	iorwf	(sqrtf@r+1)& (0+255),w,b
 11028  004068  11A2               	iorwf	(sqrtf@r+2)& (0+255),w,b
 11029  00406A  11A3               	iorwf	(sqrtf@r+3)& (0+255),w,b
 11030  00406C  A4D8               	btfss	status,2,c
 11031  00406E  EF3B  F020         	goto	u9571
 11032  004072  EF3D  F020         	goto	u9570
 11033  004076                     u9571:
 11034  004076  EFEA  F01F         	goto	l7292
 11035  00407A                     u9570:
 11036  00407A                     
 11037                           ; BSR set to: 0
 11038  00407A  51A4               	movf	sqrtf@ix& (0+255),w,b
 11039  00407C  11A5               	iorwf	(sqrtf@ix+1)& (0+255),w,b
 11040  00407E  11A6               	iorwf	(sqrtf@ix+2)& (0+255),w,b
 11041  004080  11A7               	iorwf	(sqrtf@ix+3)& (0+255),w,b
 11042  004082  B4D8               	btfsc	status,2,c
 11043  004084  EF46  F020         	goto	u9581
 11044  004088  EF48  F020         	goto	u9580
 11045  00408C                     u9581:
 11046  00408C  EFA9  F020         	goto	l1408
 11047  004090                     u9580:
 11048  004090                     
 11049                           ; BSR set to: 0
 11050  004090  0E00               	movlw	0
 11051  004092  6F98               	movwf	sqrtf@z& (0+255),b
 11052  004094  0E00               	movlw	0
 11053  004096  6F99               	movwf	(sqrtf@z+1)& (0+255),b
 11054  004098  0E80               	movlw	128
 11055  00409A  6F9A               	movwf	(sqrtf@z+2)& (0+255),b
 11056  00409C  0E3F               	movlw	63
 11057  00409E  6F9B               	movwf	(sqrtf@z+3)& (0+255),b
 11058  0040A0                     
 11059                           ; BSR set to: 0
 11060  0040A0  C098  F047         	movff	sqrtf@z,___flge@ff1
 11061  0040A4  C099  F048         	movff	sqrtf@z+1,___flge@ff1+1
 11062  0040A8  C09A  F049         	movff	sqrtf@z+2,___flge@ff1+2
 11063  0040AC  C09B  F04A         	movff	sqrtf@z+3,___flge@ff1+3
 11064  0040B0  0E00               	movlw	0
 11065  0040B2  6E4B               	movwf	___flge@ff2^0,c
 11066  0040B4  0E00               	movlw	0
 11067  0040B6  6E4C               	movwf	(___flge@ff2+1)^0,c
 11068  0040B8  0E80               	movlw	128
 11069  0040BA  6E4D               	movwf	(___flge@ff2+2)^0,c
 11070  0040BC  0E3F               	movlw	63
 11071  0040BE  6E4E               	movwf	(___flge@ff2+3)^0,c
 11072  0040C0  EC96  F02F         	call	___flge	;wreg free
 11073  0040C4  A0D8               	btfss	status,0,c
 11074  0040C6  EF67  F020         	goto	u9591
 11075  0040CA  EF69  F020         	goto	u9590
 11076  0040CE                     u9591:
 11077  0040CE  EFA9  F020         	goto	l1408
 11078  0040D2                     u9590:
 11079  0040D2  0E00               	movlw	0
 11080  0040D4  0100               	movlb	0	; () banked
 11081  0040D6  6F98               	movwf	sqrtf@z& (0+255),b
 11082  0040D8  0E00               	movlw	0
 11083  0040DA  6F99               	movwf	(sqrtf@z+1)& (0+255),b
 11084  0040DC  0E80               	movlw	128
 11085  0040DE  6F9A               	movwf	(sqrtf@z+2)& (0+255),b
 11086  0040E0  0E3F               	movlw	63
 11087  0040E2  6F9B               	movwf	(sqrtf@z+3)& (0+255),b
 11088  0040E4                     
 11089                           ; BSR set to: 0
 11090  0040E4  0E00               	movlw	0
 11091  0040E6  6E47               	movwf	___flge@ff1^0,c
 11092  0040E8  0E00               	movlw	0
 11093  0040EA  6E48               	movwf	(___flge@ff1+1)^0,c
 11094  0040EC  0E80               	movlw	128
 11095  0040EE  6E49               	movwf	(___flge@ff1+2)^0,c
 11096  0040F0  0E3F               	movlw	63
 11097  0040F2  6E4A               	movwf	(___flge@ff1+3)^0,c
 11098  0040F4  C098  F04B         	movff	sqrtf@z,___flge@ff2
 11099  0040F8  C099  F04C         	movff	sqrtf@z+1,___flge@ff2+1
 11100  0040FC  C09A  F04D         	movff	sqrtf@z+2,___flge@ff2+2
 11101  004100  C09B  F04E         	movff	sqrtf@z+3,___flge@ff2+3
 11102  004104  EC96  F02F         	call	___flge	;wreg free
 11103  004108  B0D8               	btfsc	status,0,c
 11104  00410A  EF89  F020         	goto	u9601
 11105  00410E  EF8B  F020         	goto	u9600
 11106  004112                     u9601:
 11107  004112  EF94  F020         	goto	l7312
 11108  004116                     u9600:
 11109  004116  0E02               	movlw	2
 11110  004118  0100               	movlb	0	; () banked
 11111  00411A  2790               	addwf	sqrtf@q& (0+255),f,b
 11112  00411C  0E00               	movlw	0
 11113  00411E  2391               	addwfc	(sqrtf@q+1)& (0+255),f,b
 11114  004120  2392               	addwfc	(sqrtf@q+2)& (0+255),f,b
 11115  004122  2393               	addwfc	(sqrtf@q+3)& (0+255),f,b
 11116  004124  EFA9  F020         	goto	l1408
 11117  004128                     l7312:
 11118  004128  0E01               	movlw	1
 11119  00412A  0100               	movlb	0	; () banked
 11120  00412C  1590               	andwf	sqrtf@q& (0+255),w,b
 11121  00412E  6E57               	movwf	??_sqrtf^0,c
 11122  004130  0E00               	movlw	0
 11123  004132  1591               	andwf	(sqrtf@q+1)& (0+255),w,b
 11124  004134  6E58               	movwf	(??_sqrtf+1)^0,c
 11125  004136  0E00               	movlw	0
 11126  004138  1592               	andwf	(sqrtf@q+2)& (0+255),w,b
 11127  00413A  6E59               	movwf	(??_sqrtf+2)^0,c
 11128  00413C  0E00               	movlw	0
 11129  00413E  1593               	andwf	(sqrtf@q+3)& (0+255),w,b
 11130  004140  6E5A               	movwf	(??_sqrtf+3)^0,c
 11131  004142  5057               	movf	??_sqrtf^0,w,c
 11132  004144  2790               	addwf	sqrtf@q& (0+255),f,b
 11133  004146  5058               	movf	(??_sqrtf+1)^0,w,c
 11134  004148  2391               	addwfc	(sqrtf@q+1)& (0+255),f,b
 11135  00414A  5059               	movf	(??_sqrtf+2)^0,w,c
 11136  00414C  2392               	addwfc	(sqrtf@q+2)& (0+255),f,b
 11137  00414E  505A               	movf	(??_sqrtf+3)^0,w,c
 11138  004150  2393               	addwfc	(sqrtf@q+3)& (0+255),f,b
 11139  004152                     l1408:
 11140  004152  C090  F057         	movff	sqrtf@q,??_sqrtf
 11141  004156  C091  F058         	movff	sqrtf@q+1,??_sqrtf+1
 11142  00415A  C092  F059         	movff	sqrtf@q+2,??_sqrtf+2
 11143  00415E  C093  F05A         	movff	sqrtf@q+3,??_sqrtf+3
 11144  004162  345A               	rlcf	(??_sqrtf+3)^0,w,c
 11145  004164  325A               	rrcf	(??_sqrtf+3)^0,f,c
 11146  004166  3259               	rrcf	(??_sqrtf+2)^0,f,c
 11147  004168  3258               	rrcf	(??_sqrtf+1)^0,f,c
 11148  00416A  3257               	rrcf	??_sqrtf^0,f,c
 11149  00416C  0E00               	movlw	0
 11150  00416E  2457               	addwf	??_sqrtf^0,w,c
 11151  004170  0100               	movlb	0	; () banked
 11152  004172  6FA4               	movwf	sqrtf@ix& (0+255),b
 11153  004174  0E00               	movlw	0
 11154  004176  2058               	addwfc	(??_sqrtf+1)^0,w,c
 11155  004178  6FA5               	movwf	(sqrtf@ix+1)& (0+255),b
 11156  00417A  0E00               	movlw	0
 11157  00417C  2059               	addwfc	(??_sqrtf+2)^0,w,c
 11158  00417E  6FA6               	movwf	(sqrtf@ix+2)& (0+255),b
 11159  004180  0E3F               	movlw	63
 11160  004182  205A               	addwfc	(??_sqrtf+3)^0,w,c
 11161  004184  6FA7               	movwf	(sqrtf@ix+3)& (0+255),b
 11162  004186  C09C  F057         	movff	sqrtf@m,??_sqrtf
 11163  00418A  C09D  F058         	movff	sqrtf@m+1,??_sqrtf+1
 11164  00418E  C09E  F059         	movff	sqrtf@m+2,??_sqrtf+2
 11165  004192  C09F  F05A         	movff	sqrtf@m+3,??_sqrtf+3
 11166  004196  0E17               	movlw	23
 11167  004198                     u9615:
 11168  004198  90D8               	bcf	status,0,c
 11169  00419A  3657               	rlcf	??_sqrtf^0,f,c
 11170  00419C  3658               	rlcf	(??_sqrtf+1)^0,f,c
 11171  00419E  3659               	rlcf	(??_sqrtf+2)^0,f,c
 11172  0041A0  365A               	rlcf	(??_sqrtf+3)^0,f,c
 11173  0041A2  2EE8               	decfsz	wreg,f,c
 11174  0041A4  EFCC  F020         	goto	u9615
 11175  0041A8  5057               	movf	??_sqrtf^0,w,c
 11176  0041AA  27A4               	addwf	sqrtf@ix& (0+255),f,b
 11177  0041AC  5058               	movf	(??_sqrtf+1)^0,w,c
 11178  0041AE  23A5               	addwfc	(sqrtf@ix+1)& (0+255),f,b
 11179  0041B0  5059               	movf	(??_sqrtf+2)^0,w,c
 11180  0041B2  23A6               	addwfc	(sqrtf@ix+2)& (0+255),f,b
 11181  0041B4  505A               	movf	(??_sqrtf+3)^0,w,c
 11182  0041B6  23A7               	addwfc	(sqrtf@ix+3)& (0+255),f,b
 11183  0041B8                     
 11184                           ; BSR set to: 0
 11185  0041B8  C0A4  F08C         	movff	sqrtf@ix,sqrtf@__xc8_float_word
 11186  0041BC  C0A5  F08D         	movff	sqrtf@ix+1,sqrtf@__xc8_float_word+1
 11187  0041C0  C0A6  F08E         	movff	sqrtf@ix+2,sqrtf@__xc8_float_word+2
 11188  0041C4  C0A7  F08F         	movff	sqrtf@ix+3,sqrtf@__xc8_float_word+3
 11189  0041C8                     
 11190                           ; BSR set to: 0
 11191  0041C8  C08C  F098         	movff	sqrtf@__xc8_float_word,sqrtf@z
 11192  0041CC  C08D  F099         	movff	sqrtf@__xc8_float_word+1,sqrtf@z+1
 11193  0041D0  C08E  F09A         	movff	sqrtf@__xc8_float_word+2,sqrtf@z+2
 11194  0041D4  C08F  F09B         	movff	sqrtf@__xc8_float_word+3,sqrtf@z+3
 11195  0041D8                     
 11196                           ; BSR set to: 0
 11197  0041D8  C098  F053         	movff	sqrtf@z,?_sqrtf
 11198  0041DC  C099  F054         	movff	sqrtf@z+1,?_sqrtf+1
 11199  0041E0  C09A  F055         	movff	sqrtf@z+2,?_sqrtf+2
 11200  0041E4  C09B  F056         	movff	sqrtf@z+3,?_sqrtf+3
 11201  0041E8                     l1395:
 11202  0041E8  0012               	return		;funcret
 11203  0041EA                     __end_of_sqrtf:
 11204                           	callstack 0
 11205                           
 11206 ;; *************** function _nanf *****************
 11207 ;; Defined at:
 11208 ;;		line 4 in file "C:\Program Files\Microchip\xc8\v2.30\pic\sources\c99\common\nanf.c"
 11209 ;; Parameters:    Size  Location     Type
 11210 ;;  s               2   17[COMRAM] PTR const unsigned char 
 11211 ;;		 -> STR_17(1), 
 11212 ;; Auto vars:     Size  Location     Type
 11213 ;;  u               4   21[COMRAM] struct .
 11214 ;; Return value:  Size  Location     Type
 11215 ;;                  4   17[COMRAM] float 
 11216 ;; Registers used:
 11217 ;;		wreg, status,2
 11218 ;; Tracked objects:
 11219 ;;		On entry : 0/0
 11220 ;;		On exit  : 0/0
 11221 ;;		Unchanged: 0/0
 11222 ;; Data sizes:     COMRAM   BANK0   BANK1   BANK2   BANK3   BANK4   BANK5
 11223 ;;      Params:         4       0       0       0       0       0       0
 11224 ;;      Locals:         4       0       0       0       0       0       0
 11225 ;;      Temps:          0       0       0       0       0       0       0
 11226 ;;      Totals:         8       0       0       0       0       0       0
 11227 ;;Total ram usage:        8 bytes
 11228 ;; Hardware stack levels used:    1
 11229 ;; Hardware stack levels required when called:    4
 11230 ;; This function calls:
 11231 ;;		Nothing
 11232 ;; This function is called by:
 11233 ;;		_sqrtf
 11234 ;; This function uses a non-reentrant model
 11235 ;;
 11236                           
 11237                           	psect	text25
 11238  006C1C                     __ptext25:
 11239                           	callstack 0
 11240  006C1C                     _nanf:
 11241                           	callstack 23
 11242  006C1C  0EFF               	movlw	255
 11243  006C1E  6E16               	movwf	nanf@u^0,c
 11244  006C20  0EFF               	movlw	255
 11245  006C22  6E17               	movwf	(nanf@u+1)^0,c
 11246  006C24  0EFF               	movlw	255
 11247  006C26  6E18               	movwf	(nanf@u+2)^0,c
 11248  006C28  0E7F               	movlw	127
 11249  006C2A  6E19               	movwf	(nanf@u+3)^0,c
 11250  006C2C  C016  F012         	movff	nanf@u,?_nanf
 11251  006C30  C017  F013         	movff	nanf@u+1,?_nanf+1
 11252  006C34  C018  F014         	movff	nanf@u+2,?_nanf+2
 11253  006C38  C019  F015         	movff	nanf@u+3,?_nanf+3
 11254  006C3C  0012               	return		;funcret
 11255  006C3E                     __end_of_nanf:
 11256                           	callstack 0
 11257                           
 11258 ;; *************** function ___flge *****************
 11259 ;; Defined at:
 11260 ;;		line 4 in file "C:\Program Files\Microchip\xc8\v2.30\pic\sources\c99\common\flge.c"
 11261 ;; Parameters:    Size  Location     Type
 11262 ;;  ff1             4   70[COMRAM] float 
 11263 ;;  ff2             4   74[COMRAM] float 
 11264 ;; Auto vars:     Size  Location     Type
 11265 ;;		None
 11266 ;; Return value:  Size  Location     Type
 11267 ;;		None               void
 11268 ;; Registers used:
 11269 ;;		wreg, status,2, status,0
 11270 ;; Tracked objects:
 11271 ;;		On entry : 0/0
 11272 ;;		On exit  : 0/0
 11273 ;;		Unchanged: 0/0
 11274 ;; Data sizes:     COMRAM   BANK0   BANK1   BANK2   BANK3   BANK4   BANK5
 11275 ;;      Params:         8       0       0       0       0       0       0
 11276 ;;      Locals:         0       0       0       0       0       0       0
 11277 ;;      Temps:          4       0       0       0       0       0       0
 11278 ;;      Totals:        12       0       0       0       0       0       0
 11279 ;;Total ram usage:       12 bytes
 11280 ;; Hardware stack levels used:    1
 11281 ;; Hardware stack levels required when called:    4
 11282 ;; This function calls:
 11283 ;;		Nothing
 11284 ;; This function is called by:
 11285 ;;		_main
 11286 ;;		_efgtoa
 11287 ;;		_powf
 11288 ;;		_sqrtf
 11289 ;;		_motor
 11290 ;; This function uses a non-reentrant model
 11291 ;;
 11292                           
 11293                           	psect	text26
 11294  005F2C                     __ptext26:
 11295                           	callstack 0
 11296  005F2C                     ___flge:
 11297                           	callstack 22
 11298  005F2C  0E00               	movlw	0
 11299  005F2E  1447               	andwf	___flge@ff1^0,w,c
 11300  005F30  6E4F               	movwf	??___flge^0,c
 11301  005F32  0E00               	movlw	0
 11302  005F34  1448               	andwf	(___flge@ff1+1)^0,w,c
 11303  005F36  6E50               	movwf	(??___flge+1)^0,c
 11304  005F38  0E80               	movlw	128
 11305  005F3A  1449               	andwf	(___flge@ff1+2)^0,w,c
 11306  005F3C  6E51               	movwf	(??___flge+2)^0,c
 11307  005F3E  0E7F               	movlw	127
 11308  005F40  144A               	andwf	(___flge@ff1+3)^0,w,c
 11309  005F42  6E52               	movwf	(??___flge+3)^0,c
 11310  005F44  504F               	movf	??___flge^0,w,c
 11311  005F46  1050               	iorwf	(??___flge+1)^0,w,c
 11312  005F48  1051               	iorwf	(??___flge+2)^0,w,c
 11313  005F4A  1052               	iorwf	(??___flge+3)^0,w,c
 11314  005F4C  A4D8               	btfss	status,2,c
 11315  005F4E  EFAB  F02F         	goto	u8171
 11316  005F52  EFAD  F02F         	goto	u8170
 11317  005F56                     u8171:
 11318  005F56  EFB5  F02F         	goto	l6566
 11319  005F5A                     u8170:
 11320  005F5A  0E00               	movlw	0
 11321  005F5C  6E47               	movwf	___flge@ff1^0,c
 11322  005F5E  0E00               	movlw	0
 11323  005F60  6E48               	movwf	(___flge@ff1+1)^0,c
 11324  005F62  0E00               	movlw	0
 11325  005F64  6E49               	movwf	(___flge@ff1+2)^0,c
 11326  005F66  0E00               	movlw	0
 11327  005F68  6E4A               	movwf	(___flge@ff1+3)^0,c
 11328  005F6A                     l6566:
 11329  005F6A  0E00               	movlw	0
 11330  005F6C  144B               	andwf	___flge@ff2^0,w,c
 11331  005F6E  6E4F               	movwf	??___flge^0,c
 11332  005F70  0E00               	movlw	0
 11333  005F72  144C               	andwf	(___flge@ff2+1)^0,w,c
 11334  005F74  6E50               	movwf	(??___flge+1)^0,c
 11335  005F76  0E80               	movlw	128
 11336  005F78  144D               	andwf	(___flge@ff2+2)^0,w,c
 11337  005F7A  6E51               	movwf	(??___flge+2)^0,c
 11338  005F7C  0E7F               	movlw	127
 11339  005F7E  144E               	andwf	(___flge@ff2+3)^0,w,c
 11340  005F80  6E52               	movwf	(??___flge+3)^0,c
 11341  005F82  504F               	movf	??___flge^0,w,c
 11342  005F84  1050               	iorwf	(??___flge+1)^0,w,c
 11343  005F86  1051               	iorwf	(??___flge+2)^0,w,c
 11344  005F88  1052               	iorwf	(??___flge+3)^0,w,c
 11345  005F8A  A4D8               	btfss	status,2,c
 11346  005F8C  EFCA  F02F         	goto	u8181
 11347  005F90  EFCC  F02F         	goto	u8180
 11348  005F94                     u8181:
 11349  005F94  EFD4  F02F         	goto	l6570
 11350  005F98                     u8180:
 11351  005F98  0E00               	movlw	0
 11352  005F9A  6E4B               	movwf	___flge@ff2^0,c
 11353  005F9C  0E00               	movlw	0
 11354  005F9E  6E4C               	movwf	(___flge@ff2+1)^0,c
 11355  005FA0  0E00               	movlw	0
 11356  005FA2  6E4D               	movwf	(___flge@ff2+2)^0,c
 11357  005FA4  0E00               	movlw	0
 11358  005FA6  6E4E               	movwf	(___flge@ff2+3)^0,c
 11359  005FA8                     l6570:
 11360  005FA8  AE4A               	btfss	(___flge@ff1+3)^0,7,c
 11361  005FAA  EFD9  F02F         	goto	u8191
 11362  005FAE  EFDB  F02F         	goto	u8190
 11363  005FB2                     u8191:
 11364  005FB2  EFE4  F02F         	goto	l6574
 11365  005FB6                     u8190:
 11366  005FB6  6C47               	negf	___flge@ff1^0,c
 11367  005FB8  1E48               	comf	(___flge@ff1+1)^0,f,c
 11368  005FBA  B0D8               	btfsc	status,0,c
 11369  005FBC  2A48               	incf	(___flge@ff1+1)^0,f,c
 11370  005FBE  1E49               	comf	(___flge@ff1+2)^0,f,c
 11371  005FC0  B0D8               	btfsc	status,0,c
 11372  005FC2  2A49               	incf	(___flge@ff1+2)^0,f,c
 11373  005FC4  0E80               	movlw	128
 11374  005FC6  564A               	subfwb	(___flge@ff1+3)^0,f,c
 11375  005FC8                     l6574:
 11376  005FC8  AE4E               	btfss	(___flge@ff2+3)^0,7,c
 11377  005FCA  EFE9  F02F         	goto	u8201
 11378  005FCE  EFEB  F02F         	goto	u8200
 11379  005FD2                     u8201:
 11380  005FD2  EFF4  F02F         	goto	l506
 11381  005FD6                     u8200:
 11382  005FD6  6C4B               	negf	___flge@ff2^0,c
 11383  005FD8  1E4C               	comf	(___flge@ff2+1)^0,f,c
 11384  005FDA  B0D8               	btfsc	status,0,c
 11385  005FDC  2A4C               	incf	(___flge@ff2+1)^0,f,c
 11386  005FDE  1E4D               	comf	(___flge@ff2+2)^0,f,c
 11387  005FE0  B0D8               	btfsc	status,0,c
 11388  005FE2  2A4D               	incf	(___flge@ff2+2)^0,f,c
 11389  005FE4  0E80               	movlw	128
 11390  005FE6  564E               	subfwb	(___flge@ff2+3)^0,f,c
 11391  005FE8                     l506:
 11392  005FE8  0E00               	movlw	0
 11393  005FEA  1A47               	xorwf	___flge@ff1^0,f,c
 11394  005FEC  0E00               	movlw	0
 11395  005FEE  1A48               	xorwf	(___flge@ff1+1)^0,f,c
 11396  005FF0  0E00               	movlw	0
 11397  005FF2  1A49               	xorwf	(___flge@ff1+2)^0,f,c
 11398  005FF4  0E80               	movlw	128
 11399  005FF6  1A4A               	xorwf	(___flge@ff1+3)^0,f,c
 11400  005FF8  0E00               	movlw	0
 11401  005FFA  1A4B               	xorwf	___flge@ff2^0,f,c
 11402  005FFC  0E00               	movlw	0
 11403  005FFE  1A4C               	xorwf	(___flge@ff2+1)^0,f,c
 11404  006000  0E00               	movlw	0
 11405  006002  1A4D               	xorwf	(___flge@ff2+2)^0,f,c
 11406  006004  0E80               	movlw	128
 11407  006006  1A4E               	xorwf	(___flge@ff2+3)^0,f,c
 11408  006008  504B               	movf	___flge@ff2^0,w,c
 11409  00600A  5C47               	subwf	___flge@ff1^0,w,c
 11410  00600C  504C               	movf	(___flge@ff2+1)^0,w,c
 11411  00600E  5848               	subwfb	(___flge@ff1+1)^0,w,c
 11412  006010  504D               	movf	(___flge@ff2+2)^0,w,c
 11413  006012  5849               	subwfb	(___flge@ff1+2)^0,w,c
 11414  006014  504E               	movf	(___flge@ff2+3)^0,w,c
 11415  006016  584A               	subwfb	(___flge@ff1+3)^0,w,c
 11416  006018  B0D8               	btfsc	status,0,c
 11417  00601A  EF11  F030         	goto	u8211
 11418  00601E  EF13  F030         	goto	u8210
 11419  006022                     u8211:
 11420  006022  EF16  F030         	goto	l6580
 11421  006026                     u8210:
 11422  006026  90D8               	bcf	status,0,c
 11423  006028  EF17  F030         	goto	l511
 11424  00602C                     l6580:
 11425  00602C  80D8               	bsf	status,0,c
 11426  00602E                     l511:
 11427  00602E  0012               	return		;funcret
 11428  006030                     __end_of___flge:
 11429                           	callstack 0
 11430                           
 11431 ;; *************** function _scalbnf *****************
 11432 ;; Defined at:
 11433 ;;		line 4 in file "C:\Program Files\Microchip\xc8\v2.30\pic\sources\c99\common\scalbnf.c"
 11434 ;; Parameters:    Size  Location     Type
 11435 ;;  x               4   62[COMRAM] float 
 11436 ;;  n               2   66[COMRAM] int 
 11437 ;; Auto vars:     Size  Location     Type
 11438 ;;  y               4   76[COMRAM] float 
 11439 ;;  u               4   72[COMRAM] struct .
 11440 ;; Return value:  Size  Location     Type
 11441 ;;                  4   62[COMRAM] float 
 11442 ;; Registers used:
 11443 ;;		wreg, status,2, status,0, prodl, prodh, cstack
 11444 ;; Tracked objects:
 11445 ;;		On entry : 0/0
 11446 ;;		On exit  : 0/0
 11447 ;;		Unchanged: 0/0
 11448 ;; Data sizes:     COMRAM   BANK0   BANK1   BANK2   BANK3   BANK4   BANK5
 11449 ;;      Params:         6       0       0       0       0       0       0
 11450 ;;      Locals:         8       0       0       0       0       0       0
 11451 ;;      Temps:          4       0       0       0       0       0       0
 11452 ;;      Totals:        18       0       0       0       0       0       0
 11453 ;;Total ram usage:       18 bytes
 11454 ;; Hardware stack levels used:    1
 11455 ;; Hardware stack levels required when called:    5
 11456 ;; This function calls:
 11457 ;;		___flmul
 11458 ;; This function is called by:
 11459 ;;		_powf
 11460 ;; This function uses a non-reentrant model
 11461 ;;
 11462                           
 11463                           	psect	text27
 11464  0052DC                     __ptext27:
 11465                           	callstack 0
 11466  0052DC                     _scalbnf:
 11467                           	callstack 23
 11468  0052DC  C03F  F04D         	movff	scalbnf@x,scalbnf@y
 11469  0052E0  C040  F04E         	movff	scalbnf@x+1,scalbnf@y+1
 11470  0052E4  C041  F04F         	movff	scalbnf@x+2,scalbnf@y+2
 11471  0052E8  C042  F050         	movff	scalbnf@x+3,scalbnf@y+3
 11472  0052EC  BE44               	btfsc	(scalbnf@n+1)^0,7,c
 11473  0052EE  EF82  F029         	goto	u9621
 11474  0052F2  5044               	movf	(scalbnf@n+1)^0,w,c
 11475  0052F4  E109               	bnz	u9620
 11476  0052F6  0E80               	movlw	128
 11477  0052F8  5C43               	subwf	scalbnf@n^0,w,c
 11478  0052FA  A0D8               	btfss	status,0,c
 11479  0052FC  EF82  F029         	goto	u9621
 11480  005300  EF84  F029         	goto	u9620
 11481  005304                     u9621:
 11482  005304  EFE2  F029         	goto	l7348
 11483  005308                     u9620:
 11484  005308  C04D  F026         	movff	scalbnf@y,___flmul@b
 11485  00530C  C04E  F027         	movff	scalbnf@y+1,___flmul@b+1
 11486  005310  C04F  F028         	movff	scalbnf@y+2,___flmul@b+2
 11487  005314  C050  F029         	movff	scalbnf@y+3,___flmul@b+3
 11488  005318  0E00               	movlw	0
 11489  00531A  6E2A               	movwf	___flmul@a^0,c
 11490  00531C  0E00               	movlw	0
 11491  00531E  6E2B               	movwf	(___flmul@a+1)^0,c
 11492  005320  0E00               	movlw	0
 11493  005322  6E2C               	movwf	(___flmul@a+2)^0,c
 11494  005324  0E7F               	movlw	127
 11495  005326  6E2D               	movwf	(___flmul@a+3)^0,c
 11496  005328  EC8B  F025         	call	___flmul	;wreg free
 11497  00532C  C026  F04D         	movff	?___flmul,scalbnf@y
 11498  005330  C027  F04E         	movff	?___flmul+1,scalbnf@y+1
 11499  005334  C028  F04F         	movff	?___flmul+2,scalbnf@y+2
 11500  005338  C029  F050         	movff	?___flmul+3,scalbnf@y+3
 11501  00533C  0E81               	movlw	129
 11502  00533E  2643               	addwf	scalbnf@n^0,f,c
 11503  005340  0EFF               	movlw	255
 11504  005342  2244               	addwfc	(scalbnf@n+1)^0,f,c
 11505  005344  BE44               	btfsc	(scalbnf@n+1)^0,7,c
 11506  005346  EFAE  F029         	goto	u9631
 11507  00534A  5044               	movf	(scalbnf@n+1)^0,w,c
 11508  00534C  E109               	bnz	u9630
 11509  00534E  0E80               	movlw	128
 11510  005350  5C43               	subwf	scalbnf@n^0,w,c
 11511  005352  A0D8               	btfss	status,0,c
 11512  005354  EFAE  F029         	goto	u9631
 11513  005358  EFB0  F029         	goto	u9630
 11514  00535C                     u9631:
 11515  00535C  EF4C  F02A         	goto	l7364
 11516  005360                     u9630:
 11517  005360  C04D  F026         	movff	scalbnf@y,___flmul@b
 11518  005364  C04E  F027         	movff	scalbnf@y+1,___flmul@b+1
 11519  005368  C04F  F028         	movff	scalbnf@y+2,___flmul@b+2
 11520  00536C  C050  F029         	movff	scalbnf@y+3,___flmul@b+3
 11521  005370  0E00               	movlw	0
 11522  005372  6E2A               	movwf	___flmul@a^0,c
 11523  005374  0E00               	movlw	0
 11524  005376  6E2B               	movwf	(___flmul@a+1)^0,c
 11525  005378  0E00               	movlw	0
 11526  00537A  6E2C               	movwf	(___flmul@a+2)^0,c
 11527  00537C  0E7F               	movlw	127
 11528  00537E  6E2D               	movwf	(___flmul@a+3)^0,c
 11529  005380  EC8B  F025         	call	___flmul	;wreg free
 11530  005384  C026  F04D         	movff	?___flmul,scalbnf@y
 11531  005388  C027  F04E         	movff	?___flmul+1,scalbnf@y+1
 11532  00538C  C028  F04F         	movff	?___flmul+2,scalbnf@y+2
 11533  005390  C029  F050         	movff	?___flmul+3,scalbnf@y+3
 11534  005394  0E81               	movlw	129
 11535  005396  2643               	addwf	scalbnf@n^0,f,c
 11536  005398  0EFF               	movlw	255
 11537  00539A  2244               	addwfc	(scalbnf@n+1)^0,f,c
 11538  00539C  BE44               	btfsc	(scalbnf@n+1)^0,7,c
 11539  00539E  EFDA  F029         	goto	u9641
 11540  0053A2  5044               	movf	(scalbnf@n+1)^0,w,c
 11541  0053A4  E109               	bnz	u9640
 11542  0053A6  0E80               	movlw	128
 11543  0053A8  5C43               	subwf	scalbnf@n^0,w,c
 11544  0053AA  A0D8               	btfss	status,0,c
 11545  0053AC  EFDA  F029         	goto	u9641
 11546  0053B0  EFDC  F029         	goto	u9640
 11547  0053B4                     u9641:
 11548  0053B4  EF4C  F02A         	goto	l7364
 11549  0053B8                     u9640:
 11550  0053B8  0E00               	movlw	0
 11551  0053BA  6E44               	movwf	(scalbnf@n+1)^0,c
 11552  0053BC  0E7F               	movlw	127
 11553  0053BE  6E43               	movwf	scalbnf@n^0,c
 11554  0053C0  EF4C  F02A         	goto	l7364
 11555  0053C4                     l7348:
 11556  0053C4  AE44               	btfss	(scalbnf@n+1)^0,7,c
 11557  0053C6  EFEE  F029         	goto	u9651
 11558  0053CA  0E82               	movlw	130
 11559  0053CC  5C43               	subwf	scalbnf@n^0,w,c
 11560  0053CE  0EFF               	movlw	255
 11561  0053D0  5844               	subwfb	(scalbnf@n+1)^0,w,c
 11562  0053D2  B0D8               	btfsc	status,0,c
 11563  0053D4  EFEE  F029         	goto	u9651
 11564  0053D8  EFF0  F029         	goto	u9650
 11565  0053DC                     u9651:
 11566  0053DC  EF4C  F02A         	goto	l7364
 11567  0053E0                     u9650:
 11568  0053E0  C04D  F026         	movff	scalbnf@y,___flmul@b
 11569  0053E4  C04E  F027         	movff	scalbnf@y+1,___flmul@b+1
 11570  0053E8  C04F  F028         	movff	scalbnf@y+2,___flmul@b+2
 11571  0053EC  C050  F029         	movff	scalbnf@y+3,___flmul@b+3
 11572  0053F0  0E00               	movlw	0
 11573  0053F2  6E2A               	movwf	___flmul@a^0,c
 11574  0053F4  0E00               	movlw	0
 11575  0053F6  6E2B               	movwf	(___flmul@a+1)^0,c
 11576  0053F8  0E80               	movlw	128
 11577  0053FA  6E2C               	movwf	(___flmul@a+2)^0,c
 11578  0053FC  0E0C               	movlw	12
 11579  0053FE  6E2D               	movwf	(___flmul@a+3)^0,c
 11580  005400  EC8B  F025         	call	___flmul	;wreg free
 11581  005404  C026  F04D         	movff	?___flmul,scalbnf@y
 11582  005408  C027  F04E         	movff	?___flmul+1,scalbnf@y+1
 11583  00540C  C028  F04F         	movff	?___flmul+2,scalbnf@y+2
 11584  005410  C029  F050         	movff	?___flmul+3,scalbnf@y+3
 11585  005414  0E66               	movlw	102
 11586  005416  2643               	addwf	scalbnf@n^0,f,c
 11587  005418  0E00               	movlw	0
 11588  00541A  2244               	addwfc	(scalbnf@n+1)^0,f,c
 11589  00541C  AE44               	btfss	(scalbnf@n+1)^0,7,c
 11590  00541E  EF1A  F02A         	goto	u9661
 11591  005422  0E82               	movlw	130
 11592  005424  5C43               	subwf	scalbnf@n^0,w,c
 11593  005426  0EFF               	movlw	255
 11594  005428  5844               	subwfb	(scalbnf@n+1)^0,w,c
 11595  00542A  B0D8               	btfsc	status,0,c
 11596  00542C  EF1A  F02A         	goto	u9661
 11597  005430  EF1C  F02A         	goto	u9660
 11598  005434                     u9661:
 11599  005434  EF4C  F02A         	goto	l7364
 11600  005438                     u9660:
 11601  005438  C04D  F026         	movff	scalbnf@y,___flmul@b
 11602  00543C  C04E  F027         	movff	scalbnf@y+1,___flmul@b+1
 11603  005440  C04F  F028         	movff	scalbnf@y+2,___flmul@b+2
 11604  005444  C050  F029         	movff	scalbnf@y+3,___flmul@b+3
 11605  005448  0E00               	movlw	0
 11606  00544A  6E2A               	movwf	___flmul@a^0,c
 11607  00544C  0E00               	movlw	0
 11608  00544E  6E2B               	movwf	(___flmul@a+1)^0,c
 11609  005450  0E80               	movlw	128
 11610  005452  6E2C               	movwf	(___flmul@a+2)^0,c
 11611  005454  0E0C               	movlw	12
 11612  005456  6E2D               	movwf	(___flmul@a+3)^0,c
 11613  005458  EC8B  F025         	call	___flmul	;wreg free
 11614  00545C  C026  F04D         	movff	?___flmul,scalbnf@y
 11615  005460  C027  F04E         	movff	?___flmul+1,scalbnf@y+1
 11616  005464  C028  F04F         	movff	?___flmul+2,scalbnf@y+2
 11617  005468  C029  F050         	movff	?___flmul+3,scalbnf@y+3
 11618  00546C  0E66               	movlw	102
 11619  00546E  2643               	addwf	scalbnf@n^0,f,c
 11620  005470  0E00               	movlw	0
 11621  005472  2244               	addwfc	(scalbnf@n+1)^0,f,c
 11622  005474  AE44               	btfss	(scalbnf@n+1)^0,7,c
 11623  005476  EF46  F02A         	goto	u9671
 11624  00547A  0E82               	movlw	130
 11625  00547C  5C43               	subwf	scalbnf@n^0,w,c
 11626  00547E  0EFF               	movlw	255
 11627  005480  5844               	subwfb	(scalbnf@n+1)^0,w,c
 11628  005482  B0D8               	btfsc	status,0,c
 11629  005484  EF46  F02A         	goto	u9671
 11630  005488  EF48  F02A         	goto	u9670
 11631  00548C                     u9671:
 11632  00548C  EF4C  F02A         	goto	l7364
 11633  005490                     u9670:
 11634  005490  0EFF               	movlw	255
 11635  005492  6E44               	movwf	(scalbnf@n+1)^0,c
 11636  005494  0E82               	movlw	130
 11637  005496  6E43               	movwf	scalbnf@n^0,c
 11638  005498                     l7364:
 11639  005498  0E7F               	movlw	127
 11640  00549A  2443               	addwf	scalbnf@n^0,w,c
 11641  00549C  6E45               	movwf	??_scalbnf^0,c
 11642  00549E  0E00               	movlw	0
 11643  0054A0  2044               	addwfc	(scalbnf@n+1)^0,w,c
 11644  0054A2  6E46               	movwf	(??_scalbnf+1)^0,c
 11645  0054A4  6A47               	clrf	(??_scalbnf+2)^0,c
 11646  0054A6  6A48               	clrf	(??_scalbnf+3)^0,c
 11647  0054A8  0E17               	movlw	23
 11648  0054AA                     u9685:
 11649  0054AA  90D8               	bcf	status,0,c
 11650  0054AC  3645               	rlcf	??_scalbnf^0,f,c
 11651  0054AE  3646               	rlcf	(??_scalbnf+1)^0,f,c
 11652  0054B0  3647               	rlcf	(??_scalbnf+2)^0,f,c
 11653  0054B2  3648               	rlcf	(??_scalbnf+3)^0,f,c
 11654  0054B4  2EE8               	decfsz	wreg,f,c
 11655  0054B6  EF55  F02A         	goto	u9685
 11656  0054BA  C045  F049         	movff	??_scalbnf,scalbnf@u
 11657  0054BE  C046  F04A         	movff	??_scalbnf+1,scalbnf@u+1
 11658  0054C2  C047  F04B         	movff	??_scalbnf+2,scalbnf@u+2
 11659  0054C6  C048  F04C         	movff	??_scalbnf+3,scalbnf@u+3
 11660  0054CA  C049  F026         	movff	scalbnf@u,___flmul@b
 11661  0054CE  C04A  F027         	movff	scalbnf@u+1,___flmul@b+1
 11662  0054D2  C04B  F028         	movff	scalbnf@u+2,___flmul@b+2
 11663  0054D6  C04C  F029         	movff	scalbnf@u+3,___flmul@b+3
 11664  0054DA  C04D  F02A         	movff	scalbnf@y,___flmul@a
 11665  0054DE  C04E  F02B         	movff	scalbnf@y+1,___flmul@a+1
 11666  0054E2  C04F  F02C         	movff	scalbnf@y+2,___flmul@a+2
 11667  0054E6  C050  F02D         	movff	scalbnf@y+3,___flmul@a+3
 11668  0054EA  EC8B  F025         	call	___flmul	;wreg free
 11669  0054EE  C026  F03F         	movff	?___flmul,scalbnf@x
 11670  0054F2  C027  F040         	movff	?___flmul+1,scalbnf@x+1
 11671  0054F6  C028  F041         	movff	?___flmul+2,scalbnf@x+2
 11672  0054FA  C029  F042         	movff	?___flmul+3,scalbnf@x+3
 11673  0054FE  C03F  F03F         	movff	scalbnf@x,?_scalbnf
 11674  005502  C040  F040         	movff	scalbnf@x+1,?_scalbnf+1
 11675  005506  C041  F041         	movff	scalbnf@x+2,?_scalbnf+2
 11676  00550A  C042  F042         	movff	scalbnf@x+3,?_scalbnf+3
 11677  00550E  0012               	return		;funcret
 11678  005510                     __end_of_scalbnf:
 11679                           	callstack 0
 11680                           
 11681 ;; *************** function ___flmul *****************
 11682 ;; Defined at:
 11683 ;;		line 8 in file "C:\Program Files\Microchip\xc8\v2.30\pic\sources\c99\common\sprcmul.c"
 11684 ;; Parameters:    Size  Location     Type
 11685 ;;  b               4   37[COMRAM] float 
 11686 ;;  a               4   41[COMRAM] float 
 11687 ;; Auto vars:     Size  Location     Type
 11688 ;;  prod            4   56[COMRAM] struct .
 11689 ;;  grs             4   51[COMRAM] unsigned long 
 11690 ;;  temp            2   60[COMRAM] struct .
 11691 ;;  bexp            1   55[COMRAM] unsigned char 
 11692 ;;  aexp            1   50[COMRAM] unsigned char 
 11693 ;;  sign            1   49[COMRAM] unsigned char 
 11694 ;; Return value:  Size  Location     Type
 11695 ;;                  4   37[COMRAM] unsigned char 
 11696 ;; Registers used:
 11697 ;;		wreg, status,2, status,0, prodl, prodh
 11698 ;; Tracked objects:
 11699 ;;		On entry : 0/0
 11700 ;;		On exit  : 0/0
 11701 ;;		Unchanged: 0/0
 11702 ;; Data sizes:     COMRAM   BANK0   BANK1   BANK2   BANK3   BANK4   BANK5
 11703 ;;      Params:         8       0       0       0       0       0       0
 11704 ;;      Locals:        13       0       0       0       0       0       0
 11705 ;;      Temps:          4       0       0       0       0       0       0
 11706 ;;      Totals:        25       0       0       0       0       0       0
 11707 ;;Total ram usage:       25 bytes
 11708 ;; Hardware stack levels used:    1
 11709 ;; Hardware stack levels required when called:    4
 11710 ;; This function calls:
 11711 ;;		Nothing
 11712 ;; This function is called by:
 11713 ;;		_set_time
 11714 ;;		_efgtoa
 11715 ;;		_powf
 11716 ;;		_scalbnf
 11717 ;;		_sqrtf
 11718 ;; This function uses a non-reentrant model
 11719 ;;
 11720                           
 11721                           	psect	text28
 11722  004B16                     __ptext28:
 11723                           	callstack 0
 11724  004B16                     ___flmul:
 11725                           	callstack 22
 11726  004B16  5029               	movf	(___flmul@b+3)^0,w,c
 11727  004B18  0B80               	andlw	128
 11728  004B1A  6E32               	movwf	___flmul@sign^0,c
 11729  004B1C  5029               	movf	(___flmul@b+3)^0,w,c
 11730  004B1E  2429               	addwf	(___flmul@b+3)^0,w,c
 11731  004B20  6E38               	movwf	___flmul@bexp^0,c
 11732  004B22  AE28               	btfss	(___flmul@b+2)^0,7,c
 11733  004B24  EF96  F025         	goto	u7831
 11734  004B28  EF98  F025         	goto	u7830
 11735  004B2C                     u7831:
 11736  004B2C  EF99  F025         	goto	l6336
 11737  004B30                     u7830:
 11738  004B30  8038               	bsf	___flmul@bexp^0,0,c
 11739  004B32                     l6336:
 11740  004B32  5038               	movf	___flmul@bexp^0,w,c
 11741  004B34  B4D8               	btfsc	status,2,c
 11742  004B36  EF9F  F025         	goto	u7841
 11743  004B3A  EFA1  F025         	goto	u7840
 11744  004B3E                     u7841:
 11745  004B3E  EFB4  F025         	goto	l6344
 11746  004B42                     u7840:
 11747  004B42  2838               	incf	___flmul@bexp^0,w,c
 11748  004B44  A4D8               	btfss	status,2,c
 11749  004B46  EFA7  F025         	goto	u7851
 11750  004B4A  EFA9  F025         	goto	u7850
 11751  004B4E                     u7851:
 11752  004B4E  EFB1  F025         	goto	l6342
 11753  004B52                     u7850:
 11754  004B52  0E00               	movlw	0
 11755  004B54  6E26               	movwf	___flmul@b^0,c
 11756  004B56  0E00               	movlw	0
 11757  004B58  6E27               	movwf	(___flmul@b+1)^0,c
 11758  004B5A  0E00               	movlw	0
 11759  004B5C  6E28               	movwf	(___flmul@b+2)^0,c
 11760  004B5E  0E00               	movlw	0
 11761  004B60  6E29               	movwf	(___flmul@b+3)^0,c
 11762  004B62                     l6342:
 11763  004B62  8E28               	bsf	(___flmul@b+2)^0,7,c
 11764  004B64  EFBC  F025         	goto	l6346
 11765  004B68                     l6344:
 11766  004B68  0E00               	movlw	0
 11767  004B6A  6E26               	movwf	___flmul@b^0,c
 11768  004B6C  0E00               	movlw	0
 11769  004B6E  6E27               	movwf	(___flmul@b+1)^0,c
 11770  004B70  0E00               	movlw	0
 11771  004B72  6E28               	movwf	(___flmul@b+2)^0,c
 11772  004B74  0E00               	movlw	0
 11773  004B76  6E29               	movwf	(___flmul@b+3)^0,c
 11774  004B78                     l6346:
 11775  004B78  502D               	movf	(___flmul@a+3)^0,w,c
 11776  004B7A  0B80               	andlw	128
 11777  004B7C  1A32               	xorwf	___flmul@sign^0,f,c
 11778  004B7E  502D               	movf	(___flmul@a+3)^0,w,c
 11779  004B80  242D               	addwf	(___flmul@a+3)^0,w,c
 11780  004B82  6E33               	movwf	___flmul@aexp^0,c
 11781  004B84  AE2C               	btfss	(___flmul@a+2)^0,7,c
 11782  004B86  EFC7  F025         	goto	u7861
 11783  004B8A  EFC9  F025         	goto	u7860
 11784  004B8E                     u7861:
 11785  004B8E  EFCA  F025         	goto	l6354
 11786  004B92                     u7860:
 11787  004B92  8033               	bsf	___flmul@aexp^0,0,c
 11788  004B94                     l6354:
 11789  004B94  5033               	movf	___flmul@aexp^0,w,c
 11790  004B96  B4D8               	btfsc	status,2,c
 11791  004B98  EFD0  F025         	goto	u7871
 11792  004B9C  EFD2  F025         	goto	u7870
 11793  004BA0                     u7871:
 11794  004BA0  EFE5  F025         	goto	l6362
 11795  004BA4                     u7870:
 11796  004BA4  2833               	incf	___flmul@aexp^0,w,c
 11797  004BA6  A4D8               	btfss	status,2,c
 11798  004BA8  EFD8  F025         	goto	u7881
 11799  004BAC  EFDA  F025         	goto	u7880
 11800  004BB0                     u7881:
 11801  004BB0  EFE2  F025         	goto	l6360
 11802  004BB4                     u7880:
 11803  004BB4  0E00               	movlw	0
 11804  004BB6  6E2A               	movwf	___flmul@a^0,c
 11805  004BB8  0E00               	movlw	0
 11806  004BBA  6E2B               	movwf	(___flmul@a+1)^0,c
 11807  004BBC  0E00               	movlw	0
 11808  004BBE  6E2C               	movwf	(___flmul@a+2)^0,c
 11809  004BC0  0E00               	movlw	0
 11810  004BC2  6E2D               	movwf	(___flmul@a+3)^0,c
 11811  004BC4                     l6360:
 11812  004BC4  8E2C               	bsf	(___flmul@a+2)^0,7,c
 11813  004BC6  EFED  F025         	goto	l855
 11814  004BCA                     l6362:
 11815  004BCA  0E00               	movlw	0
 11816  004BCC  6E2A               	movwf	___flmul@a^0,c
 11817  004BCE  0E00               	movlw	0
 11818  004BD0  6E2B               	movwf	(___flmul@a+1)^0,c
 11819  004BD2  0E00               	movlw	0
 11820  004BD4  6E2C               	movwf	(___flmul@a+2)^0,c
 11821  004BD6  0E00               	movlw	0
 11822  004BD8  6E2D               	movwf	(___flmul@a+3)^0,c
 11823  004BDA                     l855:
 11824  004BDA  5033               	movf	___flmul@aexp^0,w,c
 11825  004BDC  B4D8               	btfsc	status,2,c
 11826  004BDE  EFF3  F025         	goto	u7891
 11827  004BE2  EFF5  F025         	goto	u7890
 11828  004BE6                     u7891:
 11829  004BE6  EFFD  F025         	goto	l6366
 11830  004BEA                     u7890:
 11831  004BEA  5038               	movf	___flmul@bexp^0,w,c
 11832  004BEC  A4D8               	btfss	status,2,c
 11833  004BEE  EFFB  F025         	goto	u7901
 11834  004BF2  EFFD  F025         	goto	u7900
 11835  004BF6                     u7901:
 11836  004BF6  EF07  F026         	goto	l6370
 11837  004BFA                     u7900:
 11838  004BFA                     l6366:
 11839  004BFA  0E00               	movlw	0
 11840  004BFC  6E26               	movwf	?___flmul^0,c
 11841  004BFE  0E00               	movlw	0
 11842  004C00  6E27               	movwf	(?___flmul+1)^0,c
 11843  004C02  0E00               	movlw	0
 11844  004C04  6E28               	movwf	(?___flmul+2)^0,c
 11845  004C06  0E00               	movlw	0
 11846  004C08  6E29               	movwf	(?___flmul+3)^0,c
 11847  004C0A  EF9F  F027         	goto	l859
 11848  004C0E                     l6370:
 11849  004C0E  502C               	movf	(___flmul@a+2)^0,w,c
 11850  004C10  0226               	mulwf	___flmul@b^0,c
 11851  004C12  CFF3 F03D          	movff	prodl,___flmul@temp
 11852  004C16  CFF4 F03E          	movff	prodh,___flmul@temp+1
 11853  004C1A  503D               	movf	___flmul@temp^0,w,c
 11854  004C1C  6E34               	movwf	___flmul@grs^0,c
 11855  004C1E  6A35               	clrf	(___flmul@grs+1)^0,c
 11856  004C20  6A36               	clrf	(___flmul@grs+2)^0,c
 11857  004C22  6A37               	clrf	(___flmul@grs+3)^0,c
 11858  004C24  503E               	movf	(___flmul@temp+1)^0,w,c
 11859  004C26  6E39               	movwf	___flmul@prod^0,c
 11860  004C28  6A3A               	clrf	(___flmul@prod+1)^0,c
 11861  004C2A  6A3B               	clrf	(___flmul@prod+2)^0,c
 11862  004C2C  6A3C               	clrf	(___flmul@prod+3)^0,c
 11863  004C2E  502B               	movf	(___flmul@a+1)^0,w,c
 11864  004C30  0227               	mulwf	(___flmul@b+1)^0,c
 11865  004C32  CFF3 F03D          	movff	prodl,___flmul@temp
 11866  004C36  CFF4 F03E          	movff	prodh,___flmul@temp+1
 11867  004C3A  503D               	movf	___flmul@temp^0,w,c
 11868  004C3C  2634               	addwf	___flmul@grs^0,f,c
 11869  004C3E  0E00               	movlw	0
 11870  004C40  2235               	addwfc	(___flmul@grs+1)^0,f,c
 11871  004C42  2236               	addwfc	(___flmul@grs+2)^0,f,c
 11872  004C44  2237               	addwfc	(___flmul@grs+3)^0,f,c
 11873  004C46  503E               	movf	(___flmul@temp+1)^0,w,c
 11874  004C48  2639               	addwf	___flmul@prod^0,f,c
 11875  004C4A  0E00               	movlw	0
 11876  004C4C  223A               	addwfc	(___flmul@prod+1)^0,f,c
 11877  004C4E  223B               	addwfc	(___flmul@prod+2)^0,f,c
 11878  004C50  223C               	addwfc	(___flmul@prod+3)^0,f,c
 11879  004C52  502A               	movf	___flmul@a^0,w,c
 11880  004C54  0228               	mulwf	(___flmul@b+2)^0,c
 11881  004C56  CFF3 F03D          	movff	prodl,___flmul@temp
 11882  004C5A  CFF4 F03E          	movff	prodh,___flmul@temp+1
 11883  004C5E  503D               	movf	___flmul@temp^0,w,c
 11884  004C60  2634               	addwf	___flmul@grs^0,f,c
 11885  004C62  0E00               	movlw	0
 11886  004C64  2235               	addwfc	(___flmul@grs+1)^0,f,c
 11887  004C66  2236               	addwfc	(___flmul@grs+2)^0,f,c
 11888  004C68  2237               	addwfc	(___flmul@grs+3)^0,f,c
 11889  004C6A  503E               	movf	(___flmul@temp+1)^0,w,c
 11890  004C6C  2639               	addwf	___flmul@prod^0,f,c
 11891  004C6E  0E00               	movlw	0
 11892  004C70  223A               	addwfc	(___flmul@prod+1)^0,f,c
 11893  004C72  223B               	addwfc	(___flmul@prod+2)^0,f,c
 11894  004C74  223C               	addwfc	(___flmul@prod+3)^0,f,c
 11895  004C76  C036  F037         	movff	___flmul@grs+2,___flmul@grs+3
 11896  004C7A  C035  F036         	movff	___flmul@grs+1,___flmul@grs+2
 11897  004C7E  C034  F035         	movff	___flmul@grs,___flmul@grs+1
 11898  004C82  6A34               	clrf	___flmul@grs^0,c
 11899  004C84  502A               	movf	___flmul@a^0,w,c
 11900  004C86  0227               	mulwf	(___flmul@b+1)^0,c
 11901  004C88  CFF3 F03D          	movff	prodl,___flmul@temp
 11902  004C8C  CFF4 F03E          	movff	prodh,___flmul@temp+1
 11903  004C90  503D               	movf	___flmul@temp^0,w,c
 11904  004C92  2634               	addwf	___flmul@grs^0,f,c
 11905  004C94  503E               	movf	(___flmul@temp+1)^0,w,c
 11906  004C96  2235               	addwfc	(___flmul@grs+1)^0,f,c
 11907  004C98  0E00               	movlw	0
 11908  004C9A  2236               	addwfc	(___flmul@grs+2)^0,f,c
 11909  004C9C  0E00               	movlw	0
 11910  004C9E  2237               	addwfc	(___flmul@grs+3)^0,f,c
 11911  004CA0  502B               	movf	(___flmul@a+1)^0,w,c
 11912  004CA2  0226               	mulwf	___flmul@b^0,c
 11913  004CA4  CFF3 F03D          	movff	prodl,___flmul@temp
 11914  004CA8  CFF4 F03E          	movff	prodh,___flmul@temp+1
 11915  004CAC  503D               	movf	___flmul@temp^0,w,c
 11916  004CAE  2634               	addwf	___flmul@grs^0,f,c
 11917  004CB0  503E               	movf	(___flmul@temp+1)^0,w,c
 11918  004CB2  2235               	addwfc	(___flmul@grs+1)^0,f,c
 11919  004CB4  0E00               	movlw	0
 11920  004CB6  2236               	addwfc	(___flmul@grs+2)^0,f,c
 11921  004CB8  0E00               	movlw	0
 11922  004CBA  2237               	addwfc	(___flmul@grs+3)^0,f,c
 11923  004CBC  C036  F037         	movff	___flmul@grs+2,___flmul@grs+3
 11924  004CC0  C035  F036         	movff	___flmul@grs+1,___flmul@grs+2
 11925  004CC4  C034  F035         	movff	___flmul@grs,___flmul@grs+1
 11926  004CC8  6A34               	clrf	___flmul@grs^0,c
 11927  004CCA  502A               	movf	___flmul@a^0,w,c
 11928  004CCC  0226               	mulwf	___flmul@b^0,c
 11929  004CCE  CFF3 F03D          	movff	prodl,___flmul@temp
 11930  004CD2  CFF4 F03E          	movff	prodh,___flmul@temp+1
 11931  004CD6  503D               	movf	___flmul@temp^0,w,c
 11932  004CD8  2634               	addwf	___flmul@grs^0,f,c
 11933  004CDA  503E               	movf	(___flmul@temp+1)^0,w,c
 11934  004CDC  2235               	addwfc	(___flmul@grs+1)^0,f,c
 11935  004CDE  0E00               	movlw	0
 11936  004CE0  2236               	addwfc	(___flmul@grs+2)^0,f,c
 11937  004CE2  0E00               	movlw	0
 11938  004CE4  2237               	addwfc	(___flmul@grs+3)^0,f,c
 11939  004CE6  502C               	movf	(___flmul@a+2)^0,w,c
 11940  004CE8  0227               	mulwf	(___flmul@b+1)^0,c
 11941  004CEA  CFF3 F03D          	movff	prodl,___flmul@temp
 11942  004CEE  CFF4 F03E          	movff	prodh,___flmul@temp+1
 11943  004CF2  503D               	movf	___flmul@temp^0,w,c
 11944  004CF4  2639               	addwf	___flmul@prod^0,f,c
 11945  004CF6  503E               	movf	(___flmul@temp+1)^0,w,c
 11946  004CF8  223A               	addwfc	(___flmul@prod+1)^0,f,c
 11947  004CFA  0E00               	movlw	0
 11948  004CFC  223B               	addwfc	(___flmul@prod+2)^0,f,c
 11949  004CFE  0E00               	movlw	0
 11950  004D00  223C               	addwfc	(___flmul@prod+3)^0,f,c
 11951  004D02  502B               	movf	(___flmul@a+1)^0,w,c
 11952  004D04  0228               	mulwf	(___flmul@b+2)^0,c
 11953  004D06  CFF3 F03D          	movff	prodl,___flmul@temp
 11954  004D0A  CFF4 F03E          	movff	prodh,___flmul@temp+1
 11955  004D0E  503D               	movf	___flmul@temp^0,w,c
 11956  004D10  2639               	addwf	___flmul@prod^0,f,c
 11957  004D12  503E               	movf	(___flmul@temp+1)^0,w,c
 11958  004D14  223A               	addwfc	(___flmul@prod+1)^0,f,c
 11959  004D16  0E00               	movlw	0
 11960  004D18  223B               	addwfc	(___flmul@prod+2)^0,f,c
 11961  004D1A  0E00               	movlw	0
 11962  004D1C  223C               	addwfc	(___flmul@prod+3)^0,f,c
 11963  004D1E  502C               	movf	(___flmul@a+2)^0,w,c
 11964  004D20  0228               	mulwf	(___flmul@b+2)^0,c
 11965  004D22  CFF3 F03D          	movff	prodl,___flmul@temp
 11966  004D26  CFF4 F03E          	movff	prodh,___flmul@temp+1
 11967  004D2A  503D               	movf	___flmul@temp^0,w,c
 11968  004D2C  6E2E               	movwf	??___flmul^0,c
 11969  004D2E  503E               	movf	(___flmul@temp+1)^0,w,c
 11970  004D30  6E2F               	movwf	(??___flmul+1)^0,c
 11971  004D32  6A30               	clrf	(??___flmul+2)^0,c
 11972  004D34  6A31               	clrf	(??___flmul+3)^0,c
 11973  004D36  C030  F031         	movff	??___flmul+2,??___flmul+3
 11974  004D3A  C02F  F030         	movff	??___flmul+1,??___flmul+2
 11975  004D3E  C02E  F02F         	movff	??___flmul,??___flmul+1
 11976  004D42  6A2E               	clrf	??___flmul^0,c
 11977  004D44  502E               	movf	??___flmul^0,w,c
 11978  004D46  2639               	addwf	___flmul@prod^0,f,c
 11979  004D48  502F               	movf	(??___flmul+1)^0,w,c
 11980  004D4A  223A               	addwfc	(___flmul@prod+1)^0,f,c
 11981  004D4C  5030               	movf	(??___flmul+2)^0,w,c
 11982  004D4E  223B               	addwfc	(___flmul@prod+2)^0,f,c
 11983  004D50  5031               	movf	(??___flmul+3)^0,w,c
 11984  004D52  223C               	addwfc	(___flmul@prod+3)^0,f,c
 11985  004D54  C034  F02E         	movff	___flmul@grs,??___flmul
 11986  004D58  C035  F02F         	movff	___flmul@grs+1,??___flmul+1
 11987  004D5C  C036  F030         	movff	___flmul@grs+2,??___flmul+2
 11988  004D60  C037  F031         	movff	___flmul@grs+3,??___flmul+3
 11989  004D64  0E19               	movlw	25
 11990  004D66  EFBA  F026         	goto	u7910
 11991  004D6A                     u7915:
 11992  004D6A  90D8               	bcf	status,0,c
 11993  004D6C  3231               	rrcf	(??___flmul+3)^0,f,c
 11994  004D6E  3230               	rrcf	(??___flmul+2)^0,f,c
 11995  004D70  322F               	rrcf	(??___flmul+1)^0,f,c
 11996  004D72  322E               	rrcf	??___flmul^0,f,c
 11997  004D74                     u7910:
 11998  004D74  2EE8               	decfsz	wreg,f,c
 11999  004D76  EFB5  F026         	goto	u7915
 12000  004D7A  502E               	movf	??___flmul^0,w,c
 12001  004D7C  2639               	addwf	___flmul@prod^0,f,c
 12002  004D7E  502F               	movf	(??___flmul+1)^0,w,c
 12003  004D80  223A               	addwfc	(___flmul@prod+1)^0,f,c
 12004  004D82  5030               	movf	(??___flmul+2)^0,w,c
 12005  004D84  223B               	addwfc	(___flmul@prod+2)^0,f,c
 12006  004D86  5031               	movf	(??___flmul+3)^0,w,c
 12007  004D88  223C               	addwfc	(___flmul@prod+3)^0,f,c
 12008  004D8A  C036  F037         	movff	___flmul@grs+2,___flmul@grs+3
 12009  004D8E  C035  F036         	movff	___flmul@grs+1,___flmul@grs+2
 12010  004D92  C034  F035         	movff	___flmul@grs,___flmul@grs+1
 12011  004D96  6A34               	clrf	___flmul@grs^0,c
 12012  004D98  5033               	movf	___flmul@aexp^0,w,c
 12013  004D9A  C038  F02E         	movff	___flmul@bexp,??___flmul
 12014  004D9E  6A2F               	clrf	(??___flmul+1)^0,c
 12015  004DA0  262E               	addwf	??___flmul^0,f,c
 12016  004DA2  0E00               	movlw	0
 12017  004DA4  222F               	addwfc	(??___flmul+1)^0,f,c
 12018  004DA6  0E82               	movlw	130
 12019  004DA8  242E               	addwf	??___flmul^0,w,c
 12020  004DAA  6E3D               	movwf	___flmul@temp^0,c
 12021  004DAC  0EFF               	movlw	255
 12022  004DAE  202F               	addwfc	(??___flmul+1)^0,w,c
 12023  004DB0  6E3E               	movwf	(___flmul@temp+1)^0,c
 12024  004DB2  EFF0  F026         	goto	l6418
 12025  004DB6                     l6412:
 12026  004DB6  90D8               	bcf	status,0,c
 12027  004DB8  3639               	rlcf	___flmul@prod^0,f,c
 12028  004DBA  363A               	rlcf	(___flmul@prod+1)^0,f,c
 12029  004DBC  363B               	rlcf	(___flmul@prod+2)^0,f,c
 12030  004DBE  363C               	rlcf	(___flmul@prod+3)^0,f,c
 12031  004DC0  AE37               	btfss	(___flmul@grs+3)^0,7,c
 12032  004DC2  EFE5  F026         	goto	u7921
 12033  004DC6  EFE7  F026         	goto	u7920
 12034  004DCA                     u7921:
 12035  004DCA  EFE8  F026         	goto	l862
 12036  004DCE                     u7920:
 12037  004DCE  8039               	bsf	___flmul@prod^0,0,c
 12038  004DD0                     l862:
 12039  004DD0  90D8               	bcf	status,0,c
 12040  004DD2  3634               	rlcf	___flmul@grs^0,f,c
 12041  004DD4  3635               	rlcf	(___flmul@grs+1)^0,f,c
 12042  004DD6  3636               	rlcf	(___flmul@grs+2)^0,f,c
 12043  004DD8  3637               	rlcf	(___flmul@grs+3)^0,f,c
 12044  004DDA  063D               	decf	___flmul@temp^0,f,c
 12045  004DDC  A0D8               	btfss	status,0,c
 12046  004DDE  063E               	decf	(___flmul@temp+1)^0,f,c
 12047  004DE0                     l6418:
 12048  004DE0  AE3B               	btfss	(___flmul@prod+2)^0,7,c
 12049  004DE2  EFF5  F026         	goto	u7931
 12050  004DE6  EFF7  F026         	goto	u7930
 12051  004DEA                     u7931:
 12052  004DEA  EFDB  F026         	goto	l6412
 12053  004DEE                     u7930:
 12054  004DEE  0E00               	movlw	0
 12055  004DF0  6E33               	movwf	___flmul@aexp^0,c
 12056  004DF2  AE37               	btfss	(___flmul@grs+3)^0,7,c
 12057  004DF4  EFFE  F026         	goto	u7941
 12058  004DF8  EF00  F027         	goto	u7940
 12059  004DFC                     u7941:
 12060  004DFC  EF24  F027         	goto	l864
 12061  004E00                     u7940:
 12062  004E00  0EFF               	movlw	255
 12063  004E02  1434               	andwf	___flmul@grs^0,w,c
 12064  004E04  6E2E               	movwf	??___flmul^0,c
 12065  004E06  0EFF               	movlw	255
 12066  004E08  1435               	andwf	(___flmul@grs+1)^0,w,c
 12067  004E0A  6E2F               	movwf	(??___flmul+1)^0,c
 12068  004E0C  0EFF               	movlw	255
 12069  004E0E  1436               	andwf	(___flmul@grs+2)^0,w,c
 12070  004E10  6E30               	movwf	(??___flmul+2)^0,c
 12071  004E12  0E7F               	movlw	127
 12072  004E14  1437               	andwf	(___flmul@grs+3)^0,w,c
 12073  004E16  6E31               	movwf	(??___flmul+3)^0,c
 12074  004E18  502E               	movf	??___flmul^0,w,c
 12075  004E1A  102F               	iorwf	(??___flmul+1)^0,w,c
 12076  004E1C  1030               	iorwf	(??___flmul+2)^0,w,c
 12077  004E1E  1031               	iorwf	(??___flmul+3)^0,w,c
 12078  004E20  B4D8               	btfsc	status,2,c
 12079  004E22  EF15  F027         	goto	u7951
 12080  004E26  EF17  F027         	goto	u7950
 12081  004E2A                     u7951:
 12082  004E2A  EF1B  F027         	goto	l865
 12083  004E2E                     u7950:
 12084  004E2E                     l6426:
 12085  004E2E  0E01               	movlw	1
 12086  004E30  6E33               	movwf	___flmul@aexp^0,c
 12087  004E32  EF24  F027         	goto	l864
 12088  004E36                     l865:
 12089  004E36  A039               	btfss	___flmul@prod^0,0,c
 12090  004E38  EF20  F027         	goto	u7961
 12091  004E3C  EF22  F027         	goto	u7960
 12092  004E40                     u7961:
 12093  004E40  EF24  F027         	goto	l864
 12094  004E44                     u7960:
 12095  004E44  EF17  F027         	goto	l6426
 12096  004E48                     l864:
 12097  004E48  5033               	movf	___flmul@aexp^0,w,c
 12098  004E4A  B4D8               	btfsc	status,2,c
 12099  004E4C  EF2A  F027         	goto	u7971
 12100  004E50  EF2C  F027         	goto	u7970
 12101  004E54                     u7971:
 12102  004E54  EF50  F027         	goto	l6438
 12103  004E58                     u7970:
 12104  004E58  0E01               	movlw	1
 12105  004E5A  2639               	addwf	___flmul@prod^0,f,c
 12106  004E5C  0E00               	movlw	0
 12107  004E5E  223A               	addwfc	(___flmul@prod+1)^0,f,c
 12108  004E60  223B               	addwfc	(___flmul@prod+2)^0,f,c
 12109  004E62  223C               	addwfc	(___flmul@prod+3)^0,f,c
 12110  004E64  A03C               	btfss	(___flmul@prod+3)^0,0,c
 12111  004E66  EF37  F027         	goto	u7981
 12112  004E6A  EF39  F027         	goto	u7980
 12113  004E6E                     u7981:
 12114  004E6E  EF50  F027         	goto	l6438
 12115  004E72                     u7980:
 12116  004E72  C039  F02E         	movff	___flmul@prod,??___flmul
 12117  004E76  C03A  F02F         	movff	___flmul@prod+1,??___flmul+1
 12118  004E7A  C03B  F030         	movff	___flmul@prod+2,??___flmul+2
 12119  004E7E  C03C  F031         	movff	___flmul@prod+3,??___flmul+3
 12120  004E82  3431               	rlcf	(??___flmul+3)^0,w,c
 12121  004E84  3231               	rrcf	(??___flmul+3)^0,f,c
 12122  004E86  3230               	rrcf	(??___flmul+2)^0,f,c
 12123  004E88  322F               	rrcf	(??___flmul+1)^0,f,c
 12124  004E8A  322E               	rrcf	??___flmul^0,f,c
 12125  004E8C  C02E  F039         	movff	??___flmul,___flmul@prod
 12126  004E90  C02F  F03A         	movff	??___flmul+1,___flmul@prod+1
 12127  004E94  C030  F03B         	movff	??___flmul+2,___flmul@prod+2
 12128  004E98  C031  F03C         	movff	??___flmul+3,___flmul@prod+3
 12129  004E9C  4A3D               	infsnz	___flmul@temp^0,f,c
 12130  004E9E  2A3E               	incf	(___flmul@temp+1)^0,f,c
 12131  004EA0                     l6438:
 12132  004EA0  BE3E               	btfsc	(___flmul@temp+1)^0,7,c
 12133  004EA2  EF5B  F027         	goto	u7991
 12134  004EA6  503E               	movf	(___flmul@temp+1)^0,w,c
 12135  004EA8  E108               	bnz	u7990
 12136  004EAA  283D               	incf	___flmul@temp^0,w,c
 12137  004EAC  A0D8               	btfss	status,0,c
 12138  004EAE  EF5B  F027         	goto	u7991
 12139  004EB2  EF5D  F027         	goto	u7990
 12140  004EB6                     u7991:
 12141  004EB6  EF67  F027         	goto	l6442
 12142  004EBA                     u7990:
 12143  004EBA  0E00               	movlw	0
 12144  004EBC  6E39               	movwf	___flmul@prod^0,c
 12145  004EBE  0E00               	movlw	0
 12146  004EC0  6E3A               	movwf	(___flmul@prod+1)^0,c
 12147  004EC2  0E80               	movlw	128
 12148  004EC4  6E3B               	movwf	(___flmul@prod+2)^0,c
 12149  004EC6  0E7F               	movlw	127
 12150  004EC8  6E3C               	movwf	(___flmul@prod+3)^0,c
 12151  004ECA  EF95  F027         	goto	l6454
 12152  004ECE                     l6442:
 12153  004ECE  BE3E               	btfsc	(___flmul@temp+1)^0,7,c
 12154  004ED0  EF74  F027         	goto	u8000
 12155  004ED4  503E               	movf	(___flmul@temp+1)^0,w,c
 12156  004ED6  E106               	bnz	u8001
 12157  004ED8  043D               	decf	___flmul@temp^0,w,c
 12158  004EDA  B0D8               	btfsc	status,0,c
 12159  004EDC  EF72  F027         	goto	u8001
 12160  004EE0  EF74  F027         	goto	u8000
 12161  004EE4                     u8001:
 12162  004EE4  EF80  F027         	goto	l872
 12163  004EE8                     u8000:
 12164  004EE8  0E00               	movlw	0
 12165  004EEA  6E39               	movwf	___flmul@prod^0,c
 12166  004EEC  0E00               	movlw	0
 12167  004EEE  6E3A               	movwf	(___flmul@prod+1)^0,c
 12168  004EF0  0E00               	movlw	0
 12169  004EF2  6E3B               	movwf	(___flmul@prod+2)^0,c
 12170  004EF4  0E00               	movlw	0
 12171  004EF6  6E3C               	movwf	(___flmul@prod+3)^0,c
 12172  004EF8  0E00               	movlw	0
 12173  004EFA  6E32               	movwf	___flmul@sign^0,c
 12174  004EFC  EF95  F027         	goto	l6454
 12175  004F00                     l872:
 12176  004F00  C03D  F038         	movff	___flmul@temp,___flmul@bexp
 12177  004F04  0EFF               	movlw	255
 12178  004F06  1639               	andwf	___flmul@prod^0,f,c
 12179  004F08  0EFF               	movlw	255
 12180  004F0A  163A               	andwf	(___flmul@prod+1)^0,f,c
 12181  004F0C  0E7F               	movlw	127
 12182  004F0E  163B               	andwf	(___flmul@prod+2)^0,f,c
 12183  004F10  0E00               	movlw	0
 12184  004F12  163C               	andwf	(___flmul@prod+3)^0,f,c
 12185  004F14  A038               	btfss	___flmul@bexp^0,0,c
 12186  004F16  EF8F  F027         	goto	u8011
 12187  004F1A  EF91  F027         	goto	u8010
 12188  004F1E                     u8011:
 12189  004F1E  EF92  F027         	goto	l6452
 12190  004F22                     u8010:
 12191  004F22  8E3B               	bsf	(___flmul@prod+2)^0,7,c
 12192  004F24                     l6452:
 12193  004F24  90D8               	bcf	status,0,c
 12194  004F26  3038               	rrcf	___flmul@bexp^0,w,c
 12195  004F28  6E3C               	movwf	(___flmul@prod+3)^0,c
 12196  004F2A                     l6454:
 12197  004F2A  5032               	movf	___flmul@sign^0,w,c
 12198  004F2C  123C               	iorwf	(___flmul@prod+3)^0,f,c
 12199  004F2E  C039  F026         	movff	___flmul@prod,?___flmul
 12200  004F32  C03A  F027         	movff	___flmul@prod+1,?___flmul+1
 12201  004F36  C03B  F028         	movff	___flmul@prod+2,?___flmul+2
 12202  004F3A  C03C  F029         	movff	___flmul@prod+3,?___flmul+3
 12203  004F3E                     l859:
 12204  004F3E  0012               	return		;funcret
 12205  004F40                     __end_of___flmul:
 12206                           	callstack 0
 12207                           
 12208 ;; *************** function _fabsf *****************
 12209 ;; Defined at:
 12210 ;;		line 4 in file "C:\Program Files\Microchip\xc8\v2.30\pic\sources\c99\common\fabsf.c"
 12211 ;; Parameters:    Size  Location     Type
 12212 ;;  x               4   17[COMRAM] float 
 12213 ;; Auto vars:     Size  Location     Type
 12214 ;;  u               4   21[COMRAM] struct .
 12215 ;; Return value:  Size  Location     Type
 12216 ;;                  4   17[COMRAM] float 
 12217 ;; Registers used:
 12218 ;;		status,2, status,0
 12219 ;; Tracked objects:
 12220 ;;		On entry : 0/0
 12221 ;;		On exit  : 0/0
 12222 ;;		Unchanged: 0/0
 12223 ;; Data sizes:     COMRAM   BANK0   BANK1   BANK2   BANK3   BANK4   BANK5
 12224 ;;      Params:         4       0       0       0       0       0       0
 12225 ;;      Locals:         4       0       0       0       0       0       0
 12226 ;;      Temps:          0       0       0       0       0       0       0
 12227 ;;      Totals:         8       0       0       0       0       0       0
 12228 ;;Total ram usage:        8 bytes
 12229 ;; Hardware stack levels used:    1
 12230 ;; Hardware stack levels required when called:    4
 12231 ;; This function calls:
 12232 ;;		Nothing
 12233 ;; This function is called by:
 12234 ;;		_powf
 12235 ;; This function uses a non-reentrant model
 12236 ;;
 12237                           
 12238                           	psect	text29
 12239  006B90                     __ptext29:
 12240                           	callstack 0
 12241  006B90                     _fabsf:
 12242                           	callstack 24
 12243  006B90  C200  F016         	movff	fabsf@F465,fabsf@u
 12244  006B94  C201  F017         	movff	fabsf@F465+1,fabsf@u+1
 12245  006B98  C202  F018         	movff	fabsf@F465+2,fabsf@u+2
 12246  006B9C  C203  F019         	movff	fabsf@F465+3,fabsf@u+3
 12247  006BA0  C012  F016         	movff	fabsf@x,fabsf@u
 12248  006BA4  C013  F017         	movff	fabsf@x+1,fabsf@u+1
 12249  006BA8  C014  F018         	movff	fabsf@x+2,fabsf@u+2
 12250  006BAC  C015  F019         	movff	fabsf@x+3,fabsf@u+3
 12251  006BB0  9E19               	bcf	(fabsf@u+3)^0,7,c
 12252  006BB2  C016  F012         	movff	fabsf@u,?_fabsf
 12253  006BB6  C017  F013         	movff	fabsf@u+1,?_fabsf+1
 12254  006BBA  C018  F014         	movff	fabsf@u+2,?_fabsf+2
 12255  006BBE  C019  F015         	movff	fabsf@u+3,?_fabsf+3
 12256  006BC2  0012               	return		;funcret
 12257  006BC4                     __end_of_fabsf:
 12258                           	callstack 0
 12259                           
 12260 ;; *************** function ___xxtofl *****************
 12261 ;; Defined at:
 12262 ;;		line 10 in file "C:\Program Files\Microchip\xc8\v2.30\pic\sources\c99\common\xxtofl.c"
 12263 ;; Parameters:    Size  Location     Type
 12264 ;;  sign            1    wreg     unsigned char 
 12265 ;;  val             4   23[COMRAM] long 
 12266 ;; Auto vars:     Size  Location     Type
 12267 ;;  sign            1   31[COMRAM] unsigned char 
 12268 ;;  arg             4   33[COMRAM] unsigned long 
 12269 ;;  exp             1   32[COMRAM] unsigned char 
 12270 ;; Return value:  Size  Location     Type
 12271 ;;                  4   23[COMRAM] unsigned char 
 12272 ;; Registers used:
 12273 ;;		wreg, status,2, status,0
 12274 ;; Tracked objects:
 12275 ;;		On entry : 0/0
 12276 ;;		On exit  : 0/0
 12277 ;;		Unchanged: 0/0
 12278 ;; Data sizes:     COMRAM   BANK0   BANK1   BANK2   BANK3   BANK4   BANK5
 12279 ;;      Params:         4       0       0       0       0       0       0
 12280 ;;      Locals:         6       0       0       0       0       0       0
 12281 ;;      Temps:          4       0       0       0       0       0       0
 12282 ;;      Totals:        14       0       0       0       0       0       0
 12283 ;;Total ram usage:       14 bytes
 12284 ;; Hardware stack levels used:    1
 12285 ;; Hardware stack levels required when called:    4
 12286 ;; This function calls:
 12287 ;;		Nothing
 12288 ;; This function is called by:
 12289 ;;		_set_time
 12290 ;;		_main
 12291 ;;		_powf
 12292 ;;		_motor
 12293 ;; This function uses a non-reentrant model
 12294 ;;
 12295                           
 12296                           	psect	text30
 12297  005AE0                     __ptext30:
 12298                           	callstack 0
 12299  005AE0                     ___xxtofl:
 12300                           	callstack 24
 12301                           
 12302                           ;incstack = 0
 12303                           ;___xxtofl@sign stored from wreg
 12304  005AE0  6E20               	movwf	___xxtofl@sign^0,c
 12305  005AE2  5020               	movf	___xxtofl@sign^0,w,c
 12306  005AE4  B4D8               	btfsc	status,2,c
 12307  005AE6  EF77  F02D         	goto	u9241
 12308  005AEA  EF79  F02D         	goto	u9240
 12309  005AEE                     u9241:
 12310  005AEE  EF9B  F02D         	goto	l896
 12311  005AF2                     u9240:
 12312  005AF2  BE1B               	btfsc	(___xxtofl@val+3)^0,7,c
 12313  005AF4  EF80  F02D         	goto	u9250
 12314  005AF8  EF7E  F02D         	goto	u9251
 12315  005AFC                     u9251:
 12316  005AFC  EF9B  F02D         	goto	l896
 12317  005B00                     u9250:
 12318  005B00  C018  F01C         	movff	___xxtofl@val,??___xxtofl
 12319  005B04  C019  F01D         	movff	___xxtofl@val+1,??___xxtofl+1
 12320  005B08  C01A  F01E         	movff	___xxtofl@val+2,??___xxtofl+2
 12321  005B0C  C01B  F01F         	movff	___xxtofl@val+3,??___xxtofl+3
 12322  005B10  1E1C               	comf	??___xxtofl^0,f,c
 12323  005B12  1E1D               	comf	(??___xxtofl+1)^0,f,c
 12324  005B14  1E1E               	comf	(??___xxtofl+2)^0,f,c
 12325  005B16  1E1F               	comf	(??___xxtofl+3)^0,f,c
 12326  005B18  2A1C               	incf	??___xxtofl^0,f,c
 12327  005B1A  0E00               	movlw	0
 12328  005B1C  221D               	addwfc	(??___xxtofl+1)^0,f,c
 12329  005B1E  221E               	addwfc	(??___xxtofl+2)^0,f,c
 12330  005B20  221F               	addwfc	(??___xxtofl+3)^0,f,c
 12331  005B22  C01C  F022         	movff	??___xxtofl,___xxtofl@arg
 12332  005B26  C01D  F023         	movff	??___xxtofl+1,___xxtofl@arg+1
 12333  005B2A  C01E  F024         	movff	??___xxtofl+2,___xxtofl@arg+2
 12334  005B2E  C01F  F025         	movff	??___xxtofl+3,___xxtofl@arg+3
 12335  005B32  EFA3  F02D         	goto	l7116
 12336  005B36                     l896:
 12337  005B36  C018  F022         	movff	___xxtofl@val,___xxtofl@arg
 12338  005B3A  C019  F023         	movff	___xxtofl@val+1,___xxtofl@arg+1
 12339  005B3E  C01A  F024         	movff	___xxtofl@val+2,___xxtofl@arg+2
 12340  005B42  C01B  F025         	movff	___xxtofl@val+3,___xxtofl@arg+3
 12341  005B46                     l7116:
 12342  005B46  5018               	movf	___xxtofl@val^0,w,c
 12343  005B48  1019               	iorwf	(___xxtofl@val+1)^0,w,c
 12344  005B4A  101A               	iorwf	(___xxtofl@val+2)^0,w,c
 12345  005B4C  101B               	iorwf	(___xxtofl@val+3)^0,w,c
 12346  005B4E  A4D8               	btfss	status,2,c
 12347  005B50  EFAC  F02D         	goto	u9261
 12348  005B54  EFAE  F02D         	goto	u9260
 12349  005B58                     u9261:
 12350  005B58  EFB8  F02D         	goto	l7122
 12351  005B5C                     u9260:
 12352  005B5C  0E00               	movlw	0
 12353  005B5E  6E18               	movwf	?___xxtofl^0,c
 12354  005B60  0E00               	movlw	0
 12355  005B62  6E19               	movwf	(?___xxtofl+1)^0,c
 12356  005B64  0E00               	movlw	0
 12357  005B66  6E1A               	movwf	(?___xxtofl+2)^0,c
 12358  005B68  0E00               	movlw	0
 12359  005B6A  6E1B               	movwf	(?___xxtofl+3)^0,c
 12360  005B6C  EF49  F02E         	goto	l899
 12361  005B70                     l7122:
 12362  005B70  0E96               	movlw	150
 12363  005B72  6E21               	movwf	___xxtofl@exp^0,c
 12364  005B74  EFC2  F02D         	goto	l7126
 12365  005B78                     l7124:
 12366  005B78  2A21               	incf	___xxtofl@exp^0,f,c
 12367  005B7A  90D8               	bcf	status,0,c
 12368  005B7C  3225               	rrcf	(___xxtofl@arg+3)^0,f,c
 12369  005B7E  3224               	rrcf	(___xxtofl@arg+2)^0,f,c
 12370  005B80  3223               	rrcf	(___xxtofl@arg+1)^0,f,c
 12371  005B82  3222               	rrcf	___xxtofl@arg^0,f,c
 12372  005B84                     l7126:
 12373  005B84  0E00               	movlw	0
 12374  005B86  1422               	andwf	___xxtofl@arg^0,w,c
 12375  005B88  6E1C               	movwf	??___xxtofl^0,c
 12376  005B8A  0E00               	movlw	0
 12377  005B8C  1423               	andwf	(___xxtofl@arg+1)^0,w,c
 12378  005B8E  6E1D               	movwf	(??___xxtofl+1)^0,c
 12379  005B90  0E00               	movlw	0
 12380  005B92  1424               	andwf	(___xxtofl@arg+2)^0,w,c
 12381  005B94  6E1E               	movwf	(??___xxtofl+2)^0,c
 12382  005B96  0EFE               	movlw	254
 12383  005B98  1425               	andwf	(___xxtofl@arg+3)^0,w,c
 12384  005B9A  6E1F               	movwf	(??___xxtofl+3)^0,c
 12385  005B9C  501C               	movf	??___xxtofl^0,w,c
 12386  005B9E  101D               	iorwf	(??___xxtofl+1)^0,w,c
 12387  005BA0  101E               	iorwf	(??___xxtofl+2)^0,w,c
 12388  005BA2  101F               	iorwf	(??___xxtofl+3)^0,w,c
 12389  005BA4  A4D8               	btfss	status,2,c
 12390  005BA6  EFD7  F02D         	goto	u9271
 12391  005BAA  EFD9  F02D         	goto	u9270
 12392  005BAE                     u9271:
 12393  005BAE  EFBC  F02D         	goto	l7124
 12394  005BB2                     u9270:
 12395  005BB2  EFE7  F02D         	goto	l903
 12396  005BB6                     l7128:
 12397  005BB6  2A21               	incf	___xxtofl@exp^0,f,c
 12398  005BB8  0E01               	movlw	1
 12399  005BBA  2622               	addwf	___xxtofl@arg^0,f,c
 12400  005BBC  0E00               	movlw	0
 12401  005BBE  2223               	addwfc	(___xxtofl@arg+1)^0,f,c
 12402  005BC0  2224               	addwfc	(___xxtofl@arg+2)^0,f,c
 12403  005BC2  2225               	addwfc	(___xxtofl@arg+3)^0,f,c
 12404  005BC4  90D8               	bcf	status,0,c
 12405  005BC6  3225               	rrcf	(___xxtofl@arg+3)^0,f,c
 12406  005BC8  3224               	rrcf	(___xxtofl@arg+2)^0,f,c
 12407  005BCA  3223               	rrcf	(___xxtofl@arg+1)^0,f,c
 12408  005BCC  3222               	rrcf	___xxtofl@arg^0,f,c
 12409  005BCE                     l903:
 12410  005BCE  0E00               	movlw	0
 12411  005BD0  1422               	andwf	___xxtofl@arg^0,w,c
 12412  005BD2  6E1C               	movwf	??___xxtofl^0,c
 12413  005BD4  0E00               	movlw	0
 12414  005BD6  1423               	andwf	(___xxtofl@arg+1)^0,w,c
 12415  005BD8  6E1D               	movwf	(??___xxtofl+1)^0,c
 12416  005BDA  0E00               	movlw	0
 12417  005BDC  1424               	andwf	(___xxtofl@arg+2)^0,w,c
 12418  005BDE  6E1E               	movwf	(??___xxtofl+2)^0,c
 12419  005BE0  0EFF               	movlw	255
 12420  005BE2  1425               	andwf	(___xxtofl@arg+3)^0,w,c
 12421  005BE4  6E1F               	movwf	(??___xxtofl+3)^0,c
 12422  005BE6  501C               	movf	??___xxtofl^0,w,c
 12423  005BE8  101D               	iorwf	(??___xxtofl+1)^0,w,c
 12424  005BEA  101E               	iorwf	(??___xxtofl+2)^0,w,c
 12425  005BEC  101F               	iorwf	(??___xxtofl+3)^0,w,c
 12426  005BEE  A4D8               	btfss	status,2,c
 12427  005BF0  EFFC  F02D         	goto	u9281
 12428  005BF4  EFFE  F02D         	goto	u9280
 12429  005BF8                     u9281:
 12430  005BF8  EFDB  F02D         	goto	l7128
 12431  005BFC                     u9280:
 12432  005BFC  EF06  F02E         	goto	l7136
 12433  005C00                     l7134:
 12434  005C00  0621               	decf	___xxtofl@exp^0,f,c
 12435  005C02  90D8               	bcf	status,0,c
 12436  005C04  3622               	rlcf	___xxtofl@arg^0,f,c
 12437  005C06  3623               	rlcf	(___xxtofl@arg+1)^0,f,c
 12438  005C08  3624               	rlcf	(___xxtofl@arg+2)^0,f,c
 12439  005C0A  3625               	rlcf	(___xxtofl@arg+3)^0,f,c
 12440  005C0C                     l7136:
 12441  005C0C  BE24               	btfsc	(___xxtofl@arg+2)^0,7,c
 12442  005C0E  EF0B  F02E         	goto	u9291
 12443  005C12  EF0D  F02E         	goto	u9290
 12444  005C16                     u9291:
 12445  005C16  EF15  F02E         	goto	l910
 12446  005C1A                     u9290:
 12447  005C1A  0E02               	movlw	2
 12448  005C1C  6021               	cpfslt	___xxtofl@exp^0,c
 12449  005C1E  EF13  F02E         	goto	u9301
 12450  005C22  EF15  F02E         	goto	u9300
 12451  005C26                     u9301:
 12452  005C26  EF00  F02E         	goto	l7134
 12453  005C2A                     u9300:
 12454  005C2A                     l910:
 12455  005C2A  B021               	btfsc	___xxtofl@exp^0,0,c
 12456  005C2C  EF1A  F02E         	goto	u9311
 12457  005C30  EF1C  F02E         	goto	u9310
 12458  005C34                     u9311:
 12459  005C34  EF1D  F02E         	goto	l7142
 12460  005C38                     u9310:
 12461  005C38  9E24               	bcf	(___xxtofl@arg+2)^0,7,c
 12462  005C3A                     l7142:
 12463  005C3A  90D8               	bcf	status,0,c
 12464  005C3C  3221               	rrcf	___xxtofl@exp^0,f,c
 12465  005C3E  C021  F01C         	movff	___xxtofl@exp,??___xxtofl
 12466  005C42  6A1D               	clrf	(??___xxtofl+1)^0,c
 12467  005C44  6A1E               	clrf	(??___xxtofl+2)^0,c
 12468  005C46  6A1F               	clrf	(??___xxtofl+3)^0,c
 12469  005C48  C01C  F01F         	movff	??___xxtofl,??___xxtofl+3
 12470  005C4C  6A1E               	clrf	(??___xxtofl+2)^0,c
 12471  005C4E  6A1D               	clrf	(??___xxtofl+1)^0,c
 12472  005C50  6A1C               	clrf	??___xxtofl^0,c
 12473  005C52  501C               	movf	??___xxtofl^0,w,c
 12474  005C54  1222               	iorwf	___xxtofl@arg^0,f,c
 12475  005C56  501D               	movf	(??___xxtofl+1)^0,w,c
 12476  005C58  1223               	iorwf	(___xxtofl@arg+1)^0,f,c
 12477  005C5A  501E               	movf	(??___xxtofl+2)^0,w,c
 12478  005C5C  1224               	iorwf	(___xxtofl@arg+2)^0,f,c
 12479  005C5E  501F               	movf	(??___xxtofl+3)^0,w,c
 12480  005C60  1225               	iorwf	(___xxtofl@arg+3)^0,f,c
 12481  005C62  5020               	movf	___xxtofl@sign^0,w,c
 12482  005C64  B4D8               	btfsc	status,2,c
 12483  005C66  EF37  F02E         	goto	u9321
 12484  005C6A  EF39  F02E         	goto	u9320
 12485  005C6E                     u9321:
 12486  005C6E  EF41  F02E         	goto	l7152
 12487  005C72                     u9320:
 12488  005C72  BE1B               	btfsc	(___xxtofl@val+3)^0,7,c
 12489  005C74  EF40  F02E         	goto	u9330
 12490  005C78  EF3E  F02E         	goto	u9331
 12491  005C7C                     u9331:
 12492  005C7C  EF41  F02E         	goto	l7152
 12493  005C80                     u9330:
 12494  005C80  8E25               	bsf	(___xxtofl@arg+3)^0,7,c
 12495  005C82                     l7152:
 12496  005C82  C022  F018         	movff	___xxtofl@arg,?___xxtofl
 12497  005C86  C023  F019         	movff	___xxtofl@arg+1,?___xxtofl+1
 12498  005C8A  C024  F01A         	movff	___xxtofl@arg+2,?___xxtofl+2
 12499  005C8E  C025  F01B         	movff	___xxtofl@arg+3,?___xxtofl+3
 12500  005C92                     l899:
 12501  005C92  0012               	return		;funcret
 12502  005C94                     __end_of___xxtofl:
 12503                           	callstack 0
 12504                           
 12505 ;; *************** function ___flsub *****************
 12506 ;; Defined at:
 12507 ;;		line 245 in file "C:\Program Files\Microchip\xc8\v2.30\pic\sources\c99\common\sprcadd.c"
 12508 ;; Parameters:    Size  Location     Type
 12509 ;;  b               4   62[COMRAM] unsigned char 
 12510 ;;  a               4   66[COMRAM] unsigned char 
 12511 ;; Auto vars:     Size  Location     Type
 12512 ;;		None
 12513 ;; Return value:  Size  Location     Type
 12514 ;;                  4   62[COMRAM] unsigned char 
 12515 ;; Registers used:
 12516 ;;		wreg, status,2, status,0, cstack
 12517 ;; Tracked objects:
 12518 ;;		On entry : 0/0
 12519 ;;		On exit  : 0/0
 12520 ;;		Unchanged: 0/0
 12521 ;; Data sizes:     COMRAM   BANK0   BANK1   BANK2   BANK3   BANK4   BANK5
 12522 ;;      Params:         8       0       0       0       0       0       0
 12523 ;;      Locals:         0       0       0       0       0       0       0
 12524 ;;      Temps:          0       0       0       0       0       0       0
 12525 ;;      Totals:         8       0       0       0       0       0       0
 12526 ;;Total ram usage:        8 bytes
 12527 ;; Hardware stack levels used:    1
 12528 ;; Hardware stack levels required when called:    5
 12529 ;; This function calls:
 12530 ;;		___fladd
 12531 ;; This function is called by:
 12532 ;;		_efgtoa
 12533 ;;		_powf
 12534 ;; This function uses a non-reentrant model
 12535 ;;
 12536                           
 12537                           	psect	text31
 12538  00696C                     __ptext31:
 12539                           	callstack 0
 12540  00696C                     ___flsub:
 12541                           	callstack 21
 12542  00696C  0E00               	movlw	0
 12543  00696E  1A43               	xorwf	___flsub@a^0,f,c
 12544  006970  0E00               	movlw	0
 12545  006972  1A44               	xorwf	(___flsub@a+1)^0,f,c
 12546  006974  0E00               	movlw	0
 12547  006976  1A45               	xorwf	(___flsub@a+2)^0,f,c
 12548  006978  0E80               	movlw	128
 12549  00697A  1A46               	xorwf	(___flsub@a+3)^0,f,c
 12550  00697C  C03F  F012         	movff	___flsub@b,___fladd@b
 12551  006980  C040  F013         	movff	___flsub@b+1,___fladd@b+1
 12552  006984  C041  F014         	movff	___flsub@b+2,___fladd@b+2
 12553  006988  C042  F015         	movff	___flsub@b+3,___fladd@b+3
 12554  00698C  C043  F016         	movff	___flsub@a,___fladd@a
 12555  006990  C044  F017         	movff	___flsub@a+1,___fladd@a+1
 12556  006994  C045  F018         	movff	___flsub@a+2,___fladd@a+2
 12557  006998  C046  F019         	movff	___flsub@a+3,___fladd@a+3
 12558  00699C  ECF5  F020         	call	___fladd	;wreg free
 12559  0069A0  C012  F03F         	movff	?___fladd,?___flsub
 12560  0069A4  C013  F040         	movff	?___fladd+1,?___flsub+1
 12561  0069A8  C014  F041         	movff	?___fladd+2,?___flsub+2
 12562  0069AC  C015  F042         	movff	?___fladd+3,?___flsub+3
 12563  0069B0  0012               	return		;funcret
 12564  0069B2                     __end_of___flsub:
 12565                           	callstack 0
 12566                           
 12567 ;; *************** function ___fladd *****************
 12568 ;; Defined at:
 12569 ;;		line 10 in file "C:\Program Files\Microchip\xc8\v2.30\pic\sources\c99\common\sprcadd.c"
 12570 ;; Parameters:    Size  Location     Type
 12571 ;;  b               4   17[COMRAM] unsigned char 
 12572 ;;  a               4   21[COMRAM] unsigned char 
 12573 ;; Auto vars:     Size  Location     Type
 12574 ;;  grs             1   32[COMRAM] unsigned char 
 12575 ;;  bexp            1   31[COMRAM] unsigned char 
 12576 ;;  aexp            1   30[COMRAM] unsigned char 
 12577 ;;  signs           1   29[COMRAM] unsigned char 
 12578 ;; Return value:  Size  Location     Type
 12579 ;;                  4   17[COMRAM] unsigned char 
 12580 ;; Registers used:
 12581 ;;		wreg, status,2, status,0
 12582 ;; Tracked objects:
 12583 ;;		On entry : 0/0
 12584 ;;		On exit  : 0/0
 12585 ;;		Unchanged: 0/0
 12586 ;; Data sizes:     COMRAM   BANK0   BANK1   BANK2   BANK3   BANK4   BANK5
 12587 ;;      Params:         8       0       0       0       0       0       0
 12588 ;;      Locals:         4       0       0       0       0       0       0
 12589 ;;      Temps:          4       0       0       0       0       0       0
 12590 ;;      Totals:        16       0       0       0       0       0       0
 12591 ;;Total ram usage:       16 bytes
 12592 ;; Hardware stack levels used:    1
 12593 ;; Hardware stack levels required when called:    4
 12594 ;; This function calls:
 12595 ;;		Nothing
 12596 ;; This function is called by:
 12597 ;;		___flsub
 12598 ;;		_efgtoa
 12599 ;;		_powf
 12600 ;;		_sqrtf
 12601 ;; This function uses a non-reentrant model
 12602 ;;
 12603                           
 12604                           	psect	text32
 12605  0041EA                     __ptext32:
 12606                           	callstack 0
 12607  0041EA                     ___fladd:
 12608                           	callstack 21
 12609  0041EA  5015               	movf	(___fladd@b+3)^0,w,c
 12610  0041EC  0B80               	andlw	128
 12611  0041EE  6E1E               	movwf	___fladd@signs^0,c
 12612  0041F0  5015               	movf	(___fladd@b+3)^0,w,c
 12613  0041F2  2415               	addwf	(___fladd@b+3)^0,w,c
 12614  0041F4  6E20               	movwf	___fladd@bexp^0,c
 12615  0041F6  AE14               	btfss	(___fladd@b+2)^0,7,c
 12616  0041F8  EF00  F021         	goto	u7151
 12617  0041FC  EF02  F021         	goto	u7150
 12618  004200                     u7151:
 12619  004200  EF03  F021         	goto	l5964
 12620  004204                     u7150:
 12621  004204  8020               	bsf	___fladd@bexp^0,0,c
 12622  004206                     l5964:
 12623  004206  5020               	movf	___fladd@bexp^0,w,c
 12624  004208  B4D8               	btfsc	status,2,c
 12625  00420A  EF09  F021         	goto	u7161
 12626  00420E  EF0B  F021         	goto	u7160
 12627  004212                     u7161:
 12628  004212  EF20  F021         	goto	l5974
 12629  004216                     u7160:
 12630  004216  2820               	incf	___fladd@bexp^0,w,c
 12631  004218  A4D8               	btfss	status,2,c
 12632  00421A  EF11  F021         	goto	u7171
 12633  00421E  EF13  F021         	goto	u7170
 12634  004222                     u7171:
 12635  004222  EF1B  F021         	goto	l5970
 12636  004226                     u7170:
 12637  004226  0E00               	movlw	0
 12638  004228  6E12               	movwf	___fladd@b^0,c
 12639  00422A  0E00               	movlw	0
 12640  00422C  6E13               	movwf	(___fladd@b+1)^0,c
 12641  00422E  0E00               	movlw	0
 12642  004230  6E14               	movwf	(___fladd@b+2)^0,c
 12643  004232  0E00               	movlw	0
 12644  004234  6E15               	movwf	(___fladd@b+3)^0,c
 12645  004236                     l5970:
 12646  004236  8E14               	bsf	(___fladd@b+2)^0,7,c
 12647  004238  0E00               	movlw	0
 12648  00423A  6E15               	movwf	(___fladd@b+3)^0,c
 12649  00423C  EF28  F021         	goto	l5976
 12650  004240                     l5974:
 12651  004240  0E00               	movlw	0
 12652  004242  6E12               	movwf	___fladd@b^0,c
 12653  004244  0E00               	movlw	0
 12654  004246  6E13               	movwf	(___fladd@b+1)^0,c
 12655  004248  0E00               	movlw	0
 12656  00424A  6E14               	movwf	(___fladd@b+2)^0,c
 12657  00424C  0E00               	movlw	0
 12658  00424E  6E15               	movwf	(___fladd@b+3)^0,c
 12659  004250                     l5976:
 12660  004250  5019               	movf	(___fladd@a+3)^0,w,c
 12661  004252  0B80               	andlw	128
 12662  004254  6E1F               	movwf	___fladd@aexp^0,c
 12663  004256  501E               	movf	___fladd@signs^0,w,c
 12664  004258  181F               	xorwf	___fladd@aexp^0,w,c
 12665  00425A  B4D8               	btfsc	status,2,c
 12666  00425C  EF32  F021         	goto	u7181
 12667  004260  EF34  F021         	goto	u7180
 12668  004264                     u7181:
 12669  004264  EF35  F021         	goto	l5982
 12670  004268                     u7180:
 12671  004268  8C1E               	bsf	___fladd@signs^0,6,c
 12672  00426A                     l5982:
 12673  00426A  5019               	movf	(___fladd@a+3)^0,w,c
 12674  00426C  2419               	addwf	(___fladd@a+3)^0,w,c
 12675  00426E  6E1F               	movwf	___fladd@aexp^0,c
 12676  004270  AE18               	btfss	(___fladd@a+2)^0,7,c
 12677  004272  EF3D  F021         	goto	u7191
 12678  004276  EF3F  F021         	goto	u7190
 12679  00427A                     u7191:
 12680  00427A  EF40  F021         	goto	l5988
 12681  00427E                     u7190:
 12682  00427E  801F               	bsf	___fladd@aexp^0,0,c
 12683  004280                     l5988:
 12684  004280  501F               	movf	___fladd@aexp^0,w,c
 12685  004282  B4D8               	btfsc	status,2,c
 12686  004284  EF46  F021         	goto	u7201
 12687  004288  EF48  F021         	goto	u7200
 12688  00428C                     u7201:
 12689  00428C  EF5D  F021         	goto	l5998
 12690  004290                     u7200:
 12691  004290  281F               	incf	___fladd@aexp^0,w,c
 12692  004292  A4D8               	btfss	status,2,c
 12693  004294  EF4E  F021         	goto	u7211
 12694  004298  EF50  F021         	goto	u7210
 12695  00429C                     u7211:
 12696  00429C  EF58  F021         	goto	l5994
 12697  0042A0                     u7210:
 12698  0042A0  0E00               	movlw	0
 12699  0042A2  6E16               	movwf	___fladd@a^0,c
 12700  0042A4  0E00               	movlw	0
 12701  0042A6  6E17               	movwf	(___fladd@a+1)^0,c
 12702  0042A8  0E00               	movlw	0
 12703  0042AA  6E18               	movwf	(___fladd@a+2)^0,c
 12704  0042AC  0E00               	movlw	0
 12705  0042AE  6E19               	movwf	(___fladd@a+3)^0,c
 12706  0042B0                     l5994:
 12707  0042B0  8E18               	bsf	(___fladd@a+2)^0,7,c
 12708  0042B2  0E00               	movlw	0
 12709  0042B4  6E19               	movwf	(___fladd@a+3)^0,c
 12710  0042B6  EF65  F021         	goto	l6000
 12711  0042BA                     l5998:
 12712  0042BA  0E00               	movlw	0
 12713  0042BC  6E16               	movwf	___fladd@a^0,c
 12714  0042BE  0E00               	movlw	0
 12715  0042C0  6E17               	movwf	(___fladd@a+1)^0,c
 12716  0042C2  0E00               	movlw	0
 12717  0042C4  6E18               	movwf	(___fladd@a+2)^0,c
 12718  0042C6  0E00               	movlw	0
 12719  0042C8  6E19               	movwf	(___fladd@a+3)^0,c
 12720  0042CA                     l6000:
 12721  0042CA  5020               	movf	___fladd@bexp^0,w,c
 12722  0042CC  5C1F               	subwf	___fladd@aexp^0,w,c
 12723  0042CE  B0D8               	btfsc	status,0,c
 12724  0042D0  EF6C  F021         	goto	u7221
 12725  0042D4  EF6E  F021         	goto	u7220
 12726  0042D8                     u7221:
 12727  0042D8  EF95  F021         	goto	l6036
 12728  0042DC                     u7220:
 12729  0042DC  AC1E               	btfss	___fladd@signs^0,6,c
 12730  0042DE  EF73  F021         	goto	u7231
 12731  0042E2  EF75  F021         	goto	u7230
 12732  0042E6                     u7231:
 12733  0042E6  EF77  F021         	goto	l6006
 12734  0042EA                     u7230:
 12735  0042EA  0E80               	movlw	128
 12736  0042EC  1A1E               	xorwf	___fladd@signs^0,f,c
 12737  0042EE                     l6006:
 12738  0042EE  C020  F021         	movff	___fladd@bexp,___fladd@grs
 12739  0042F2  C01F  F020         	movff	___fladd@aexp,___fladd@bexp
 12740  0042F6  C021  F01F         	movff	___fladd@grs,___fladd@aexp
 12741  0042FA  C012  F021         	movff	___fladd@b,___fladd@grs
 12742  0042FE  C016  F012         	movff	___fladd@a,___fladd@b
 12743  004302  C021  F016         	movff	___fladd@grs,___fladd@a
 12744  004306  C013  F021         	movff	___fladd@b+1,___fladd@grs
 12745  00430A  C017  F013         	movff	___fladd@a+1,___fladd@b+1
 12746  00430E  C021  F017         	movff	___fladd@grs,___fladd@a+1
 12747  004312  C014  F021         	movff	___fladd@b+2,___fladd@grs
 12748  004316  C018  F014         	movff	___fladd@a+2,___fladd@b+2
 12749  00431A  C021  F018         	movff	___fladd@grs,___fladd@a+2
 12750  00431E  C015  F021         	movff	___fladd@b+3,___fladd@grs
 12751  004322  C019  F015         	movff	___fladd@a+3,___fladd@b+3
 12752  004326  C021  F019         	movff	___fladd@grs,___fladd@a+3
 12753  00432A                     l6036:
 12754  00432A  0E00               	movlw	0
 12755  00432C  6E21               	movwf	___fladd@grs^0,c
 12756  00432E  5020               	movf	___fladd@bexp^0,w,c
 12757  004330  C01F  F01A         	movff	___fladd@aexp,??___fladd
 12758  004334  6A1B               	clrf	(??___fladd+1)^0,c
 12759  004336  5E1A               	subwf	??___fladd^0,f,c
 12760  004338  0E00               	movlw	0
 12761  00433A  5A1B               	subwfb	(??___fladd+1)^0,f,c
 12762  00433C  BE1B               	btfsc	(??___fladd+1)^0,7,c
 12763  00433E  EFAA  F021         	goto	u7241
 12764  004342  501B               	movf	(??___fladd+1)^0,w,c
 12765  004344  E109               	bnz	u7240
 12766  004346  0E1A               	movlw	26
 12767  004348  5C1A               	subwf	??___fladd^0,w,c
 12768  00434A  A0D8               	btfss	status,0,c
 12769  00434C  EFAA  F021         	goto	u7241
 12770  004350  EFAC  F021         	goto	u7240
 12771  004354                     u7241:
 12772  004354  EFE3  F021         	goto	l770
 12773  004358                     u7240:
 12774  004358  5012               	movf	___fladd@b^0,w,c
 12775  00435A  1013               	iorwf	(___fladd@b+1)^0,w,c
 12776  00435C  1014               	iorwf	(___fladd@b+2)^0,w,c
 12777  00435E  1015               	iorwf	(___fladd@b+3)^0,w,c
 12778  004360  A4D8               	btfss	status,2,c
 12779  004362  EFB5  F021         	goto	u7251
 12780  004366  EFB8  F021         	goto	u7250
 12781  00436A                     u7251:
 12782  00436A  0E01               	movlw	1
 12783  00436C  EFB9  F021         	goto	u7260
 12784  004370                     u7250:
 12785  004370  0E00               	movlw	0
 12786  004372                     u7260:
 12787  004372  6E21               	movwf	___fladd@grs^0,c
 12788  004374  0E00               	movlw	0
 12789  004376  6E12               	movwf	___fladd@b^0,c
 12790  004378  0E00               	movlw	0
 12791  00437A  6E13               	movwf	(___fladd@b+1)^0,c
 12792  00437C  0E00               	movlw	0
 12793  00437E  6E14               	movwf	(___fladd@b+2)^0,c
 12794  004380  0E00               	movlw	0
 12795  004382  6E15               	movwf	(___fladd@b+3)^0,c
 12796  004384  C01F  F020         	movff	___fladd@aexp,___fladd@bexp
 12797  004388  EFEC  F021         	goto	l769
 12798  00438C                     l771:
 12799  00438C  A021               	btfss	___fladd@grs^0,0,c
 12800  00438E  EFCB  F021         	goto	u7271
 12801  004392  EFCD  F021         	goto	u7270
 12802  004396                     u7271:
 12803  004396  EFD3  F021         	goto	l6048
 12804  00439A                     u7270:
 12805  00439A  90D8               	bcf	status,0,c
 12806  00439C  3021               	rrcf	___fladd@grs^0,w,c
 12807  00439E  0901               	iorlw	1
 12808  0043A0  6E21               	movwf	___fladd@grs^0,c
 12809  0043A2  EFD5  F021         	goto	l6050
 12810  0043A6                     l6048:
 12811  0043A6  90D8               	bcf	status,0,c
 12812  0043A8  3221               	rrcf	___fladd@grs^0,f,c
 12813  0043AA                     l6050:
 12814  0043AA  A012               	btfss	___fladd@b^0,0,c
 12815  0043AC  EFDA  F021         	goto	u7281
 12816  0043B0  EFDC  F021         	goto	u7280
 12817  0043B4                     u7281:
 12818  0043B4  EFDD  F021         	goto	l6054
 12819  0043B8                     u7280:
 12820  0043B8  8E21               	bsf	___fladd@grs^0,7,c
 12821  0043BA                     l6054:
 12822  0043BA  3415               	rlcf	(___fladd@b+3)^0,w,c
 12823  0043BC  3215               	rrcf	(___fladd@b+3)^0,f,c
 12824  0043BE  3214               	rrcf	(___fladd@b+2)^0,f,c
 12825  0043C0  3213               	rrcf	(___fladd@b+1)^0,f,c
 12826  0043C2  3212               	rrcf	___fladd@b^0,f,c
 12827  0043C4  2A20               	incf	___fladd@bexp^0,f,c
 12828  0043C6                     l770:
 12829  0043C6  501F               	movf	___fladd@aexp^0,w,c
 12830  0043C8  5C20               	subwf	___fladd@bexp^0,w,c
 12831  0043CA  A0D8               	btfss	status,0,c
 12832  0043CC  EFEA  F021         	goto	u7291
 12833  0043D0  EFEC  F021         	goto	u7290
 12834  0043D4                     u7291:
 12835  0043D4  EFC6  F021         	goto	l771
 12836  0043D8                     u7290:
 12837  0043D8                     l769:
 12838  0043D8  BC1E               	btfsc	___fladd@signs^0,6,c
 12839  0043DA  EFF1  F021         	goto	u7301
 12840  0043DE  EFF3  F021         	goto	u7300
 12841  0043E2                     u7301:
 12842  0043E2  EF33  F022         	goto	l6082
 12843  0043E6                     u7300:
 12844  0043E6  5020               	movf	___fladd@bexp^0,w,c
 12845  0043E8  A4D8               	btfss	status,2,c
 12846  0043EA  EFF9  F021         	goto	u7311
 12847  0043EE  EFFB  F021         	goto	u7310
 12848  0043F2                     u7311:
 12849  0043F2  EF05  F022         	goto	l6064
 12850  0043F6                     u7310:
 12851  0043F6  0E00               	movlw	0
 12852  0043F8  6E12               	movwf	?___fladd^0,c
 12853  0043FA  0E00               	movlw	0
 12854  0043FC  6E13               	movwf	(?___fladd+1)^0,c
 12855  0043FE  0E00               	movlw	0
 12856  004400  6E14               	movwf	(?___fladd+2)^0,c
 12857  004402  0E00               	movlw	0
 12858  004404  6E15               	movwf	(?___fladd+3)^0,c
 12859  004406  EF54  F023         	goto	l778
 12860  00440A                     l6064:
 12861  00440A  5016               	movf	___fladd@a^0,w,c
 12862  00440C  2612               	addwf	___fladd@b^0,f,c
 12863  00440E  5017               	movf	(___fladd@a+1)^0,w,c
 12864  004410  2213               	addwfc	(___fladd@b+1)^0,f,c
 12865  004412  5018               	movf	(___fladd@a+2)^0,w,c
 12866  004414  2214               	addwfc	(___fladd@b+2)^0,f,c
 12867  004416  5019               	movf	(___fladd@a+3)^0,w,c
 12868  004418  2215               	addwfc	(___fladd@b+3)^0,f,c
 12869  00441A  A015               	btfss	(___fladd@b+3)^0,0,c
 12870  00441C  EF12  F022         	goto	u7321
 12871  004420  EF14  F022         	goto	u7320
 12872  004424                     u7321:
 12873  004424  EFC0  F022         	goto	l6118
 12874  004428                     u7320:
 12875  004428  A021               	btfss	___fladd@grs^0,0,c
 12876  00442A  EF19  F022         	goto	u7331
 12877  00442E  EF1B  F022         	goto	u7330
 12878  004432                     u7331:
 12879  004432  EF21  F022         	goto	l6072
 12880  004436                     u7330:
 12881  004436  90D8               	bcf	status,0,c
 12882  004438  3021               	rrcf	___fladd@grs^0,w,c
 12883  00443A  0901               	iorlw	1
 12884  00443C  6E21               	movwf	___fladd@grs^0,c
 12885  00443E  EF23  F022         	goto	l6074
 12886  004442                     l6072:
 12887  004442  90D8               	bcf	status,0,c
 12888  004444  3221               	rrcf	___fladd@grs^0,f,c
 12889  004446                     l6074:
 12890  004446  A012               	btfss	___fladd@b^0,0,c
 12891  004448  EF28  F022         	goto	u7341
 12892  00444C  EF2A  F022         	goto	u7340
 12893  004450                     u7341:
 12894  004450  EF2B  F022         	goto	l6078
 12895  004454                     u7340:
 12896  004454  8E21               	bsf	___fladd@grs^0,7,c
 12897  004456                     l6078:
 12898  004456  3415               	rlcf	(___fladd@b+3)^0,w,c
 12899  004458  3215               	rrcf	(___fladd@b+3)^0,f,c
 12900  00445A  3214               	rrcf	(___fladd@b+2)^0,f,c
 12901  00445C  3213               	rrcf	(___fladd@b+1)^0,f,c
 12902  00445E  3212               	rrcf	___fladd@b^0,f,c
 12903  004460  2A20               	incf	___fladd@bexp^0,f,c
 12904  004462  EFC0  F022         	goto	l6118
 12905  004466                     l6082:
 12906  004466  5016               	movf	___fladd@a^0,w,c
 12907  004468  5C12               	subwf	___fladd@b^0,w,c
 12908  00446A  5017               	movf	(___fladd@a+1)^0,w,c
 12909  00446C  5813               	subwfb	(___fladd@b+1)^0,w,c
 12910  00446E  5018               	movf	(___fladd@a+2)^0,w,c
 12911  004470  5814               	subwfb	(___fladd@b+2)^0,w,c
 12912  004472  5015               	movf	(___fladd@b+3)^0,w,c
 12913  004474  0A80               	xorlw	128
 12914  004476  6E1A               	movwf	??___fladd^0,c
 12915  004478  5019               	movf	(___fladd@a+3)^0,w,c
 12916  00447A  0A80               	xorlw	128
 12917  00447C  581A               	subwfb	??___fladd^0,w,c
 12918  00447E  B0D8               	btfsc	status,0,c
 12919  004480  EF44  F022         	goto	u7351
 12920  004484  EF46  F022         	goto	u7350
 12921  004488                     u7351:
 12922  004488  EF71  F022         	goto	l6092
 12923  00448C                     u7350:
 12924  00448C  5012               	movf	___fladd@b^0,w,c
 12925  00448E  5C16               	subwf	___fladd@a^0,w,c
 12926  004490  6E1A               	movwf	??___fladd^0,c
 12927  004492  5013               	movf	(___fladd@b+1)^0,w,c
 12928  004494  5817               	subwfb	(___fladd@a+1)^0,w,c
 12929  004496  6E1B               	movwf	(??___fladd+1)^0,c
 12930  004498  5014               	movf	(___fladd@b+2)^0,w,c
 12931  00449A  5818               	subwfb	(___fladd@a+2)^0,w,c
 12932  00449C  6E1C               	movwf	(??___fladd+2)^0,c
 12933  00449E  5015               	movf	(___fladd@b+3)^0,w,c
 12934  0044A0  5819               	subwfb	(___fladd@a+3)^0,w,c
 12935  0044A2  6E1D               	movwf	(??___fladd+3)^0,c
 12936  0044A4  0EFF               	movlw	255
 12937  0044A6  241A               	addwf	??___fladd^0,w,c
 12938  0044A8  6E12               	movwf	___fladd@b^0,c
 12939  0044AA  0EFF               	movlw	255
 12940  0044AC  201B               	addwfc	(??___fladd+1)^0,w,c
 12941  0044AE  6E13               	movwf	(___fladd@b+1)^0,c
 12942  0044B0  0EFF               	movlw	255
 12943  0044B2  201C               	addwfc	(??___fladd+2)^0,w,c
 12944  0044B4  6E14               	movwf	(___fladd@b+2)^0,c
 12945  0044B6  0EFF               	movlw	255
 12946  0044B8  201D               	addwfc	(??___fladd+3)^0,w,c
 12947  0044BA  6E15               	movwf	(___fladd@b+3)^0,c
 12948  0044BC  0E80               	movlw	128
 12949  0044BE  1A1E               	xorwf	___fladd@signs^0,f,c
 12950  0044C0  6C21               	negf	___fladd@grs^0,c
 12951  0044C2  5021               	movf	___fladd@grs^0,w,c
 12952  0044C4  A4D8               	btfss	status,2,c
 12953  0044C6  EF67  F022         	goto	u7361
 12954  0044CA  EF69  F022         	goto	u7360
 12955  0044CE                     u7361:
 12956  0044CE  EF79  F022         	goto	l786
 12957  0044D2                     u7360:
 12958  0044D2  0E01               	movlw	1
 12959  0044D4  2612               	addwf	___fladd@b^0,f,c
 12960  0044D6  0E00               	movlw	0
 12961  0044D8  2213               	addwfc	(___fladd@b+1)^0,f,c
 12962  0044DA  2214               	addwfc	(___fladd@b+2)^0,f,c
 12963  0044DC  2215               	addwfc	(___fladd@b+3)^0,f,c
 12964  0044DE  EF79  F022         	goto	l786
 12965  0044E2                     l6092:
 12966  0044E2  5016               	movf	___fladd@a^0,w,c
 12967  0044E4  5E12               	subwf	___fladd@b^0,f,c
 12968  0044E6  5017               	movf	(___fladd@a+1)^0,w,c
 12969  0044E8  5A13               	subwfb	(___fladd@b+1)^0,f,c
 12970  0044EA  5018               	movf	(___fladd@a+2)^0,w,c
 12971  0044EC  5A14               	subwfb	(___fladd@b+2)^0,f,c
 12972  0044EE  5019               	movf	(___fladd@a+3)^0,w,c
 12973  0044F0  5A15               	subwfb	(___fladd@b+3)^0,f,c
 12974  0044F2                     l786:
 12975  0044F2  5012               	movf	___fladd@b^0,w,c
 12976  0044F4  1013               	iorwf	(___fladd@b+1)^0,w,c
 12977  0044F6  1014               	iorwf	(___fladd@b+2)^0,w,c
 12978  0044F8  1015               	iorwf	(___fladd@b+3)^0,w,c
 12979  0044FA  A4D8               	btfss	status,2,c
 12980  0044FC  EF82  F022         	goto	u7371
 12981  004500  EF84  F022         	goto	u7370
 12982  004504                     u7371:
 12983  004504  EFB9  F022         	goto	l6116
 12984  004508                     u7370:
 12985  004508  5021               	movf	___fladd@grs^0,w,c
 12986  00450A  A4D8               	btfss	status,2,c
 12987  00450C  EF8A  F022         	goto	u7381
 12988  004510  EF8C  F022         	goto	u7380
 12989  004514                     u7381:
 12990  004514  EFB9  F022         	goto	l6116
 12991  004518                     u7380:
 12992  004518  0E00               	movlw	0
 12993  00451A  6E12               	movwf	?___fladd^0,c
 12994  00451C  0E00               	movlw	0
 12995  00451E  6E13               	movwf	(?___fladd+1)^0,c
 12996  004520  0E00               	movlw	0
 12997  004522  6E14               	movwf	(?___fladd+2)^0,c
 12998  004524  0E00               	movlw	0
 12999  004526  6E15               	movwf	(?___fladd+3)^0,c
 13000  004528  EF54  F023         	goto	l778
 13001  00452C                     l6100:
 13002  00452C  90D8               	bcf	status,0,c
 13003  00452E  3612               	rlcf	___fladd@b^0,f,c
 13004  004530  3613               	rlcf	(___fladd@b+1)^0,f,c
 13005  004532  3614               	rlcf	(___fladd@b+2)^0,f,c
 13006  004534  3615               	rlcf	(___fladd@b+3)^0,f,c
 13007  004536  AE21               	btfss	___fladd@grs^0,7,c
 13008  004538  EFA0  F022         	goto	u7391
 13009  00453C  EFA2  F022         	goto	u7390
 13010  004540                     u7391:
 13011  004540  EFA3  F022         	goto	l6106
 13012  004544                     u7390:
 13013  004544  8012               	bsf	___fladd@b^0,0,c
 13014  004546                     l6106:
 13015  004546  A021               	btfss	___fladd@grs^0,0,c
 13016  004548  EFA8  F022         	goto	u7401
 13017  00454C  EFAA  F022         	goto	u7400
 13018  004550                     u7401:
 13019  004550  EFAE  F022         	goto	l6110
 13020  004554                     u7400:
 13021  004554  80D8               	bsf	status,0,c
 13022  004556  3621               	rlcf	___fladd@grs^0,f,c
 13023  004558  EFB0  F022         	goto	l6112
 13024  00455C                     l6110:
 13025  00455C  90D8               	bcf	status,0,c
 13026  00455E  3621               	rlcf	___fladd@grs^0,f,c
 13027  004560                     l6112:
 13028  004560  5020               	movf	___fladd@bexp^0,w,c
 13029  004562  B4D8               	btfsc	status,2,c
 13030  004564  EFB6  F022         	goto	u7411
 13031  004568  EFB8  F022         	goto	u7410
 13032  00456C                     u7411:
 13033  00456C  EFB9  F022         	goto	l6116
 13034  004570                     u7410:
 13035  004570  0620               	decf	___fladd@bexp^0,f,c
 13036  004572                     l6116:
 13037  004572  AE14               	btfss	(___fladd@b+2)^0,7,c
 13038  004574  EFBE  F022         	goto	u7421
 13039  004578  EFC0  F022         	goto	u7420
 13040  00457C                     u7421:
 13041  00457C  EF96  F022         	goto	l6100
 13042  004580                     u7420:
 13043  004580                     l6118:
 13044  004580  0E00               	movlw	0
 13045  004582  6E1F               	movwf	___fladd@aexp^0,c
 13046  004584  AE21               	btfss	___fladd@grs^0,7,c
 13047  004586  EFC7  F022         	goto	u7431
 13048  00458A  EFC9  F022         	goto	u7430
 13049  00458E                     u7431:
 13050  00458E  EFE1  F022         	goto	l795
 13051  004592                     u7430:
 13052  004592  C021  F01A         	movff	___fladd@grs,??___fladd
 13053  004596  0E7F               	movlw	127
 13054  004598  161A               	andwf	??___fladd^0,f,c
 13055  00459A  B4D8               	btfsc	status,2,c
 13056  00459C  EFD2  F022         	goto	u7441
 13057  0045A0  EFD4  F022         	goto	u7440
 13058  0045A4                     u7441:
 13059  0045A4  EFD8  F022         	goto	l796
 13060  0045A8                     u7440:
 13061  0045A8                     l6124:
 13062  0045A8  0E01               	movlw	1
 13063  0045AA  6E1F               	movwf	___fladd@aexp^0,c
 13064  0045AC  EFE1  F022         	goto	l795
 13065  0045B0                     l796:
 13066  0045B0  A012               	btfss	___fladd@b^0,0,c
 13067  0045B2  EFDD  F022         	goto	u7451
 13068  0045B6  EFDF  F022         	goto	u7450
 13069  0045BA                     u7451:
 13070  0045BA  EFE1  F022         	goto	l795
 13071  0045BE                     u7450:
 13072  0045BE  EFD4  F022         	goto	l6124
 13073  0045C2                     l795:
 13074  0045C2  501F               	movf	___fladd@aexp^0,w,c
 13075  0045C4  B4D8               	btfsc	status,2,c
 13076  0045C6  EFE7  F022         	goto	u7461
 13077  0045CA  EFE9  F022         	goto	u7460
 13078  0045CE                     u7461:
 13079  0045CE  EF14  F023         	goto	l6136
 13080  0045D2                     u7460:
 13081  0045D2  0E01               	movlw	1
 13082  0045D4  2612               	addwf	___fladd@b^0,f,c
 13083  0045D6  0E00               	movlw	0
 13084  0045D8  2213               	addwfc	(___fladd@b+1)^0,f,c
 13085  0045DA  2214               	addwfc	(___fladd@b+2)^0,f,c
 13086  0045DC  2215               	addwfc	(___fladd@b+3)^0,f,c
 13087  0045DE  A015               	btfss	(___fladd@b+3)^0,0,c
 13088  0045E0  EFF4  F022         	goto	u7471
 13089  0045E4  EFF6  F022         	goto	u7470
 13090  0045E8                     u7471:
 13091  0045E8  EF14  F023         	goto	l6136
 13092  0045EC                     u7470:
 13093  0045EC  C012  F01A         	movff	___fladd@b,??___fladd
 13094  0045F0  C013  F01B         	movff	___fladd@b+1,??___fladd+1
 13095  0045F4  C014  F01C         	movff	___fladd@b+2,??___fladd+2
 13096  0045F8  C015  F01D         	movff	___fladd@b+3,??___fladd+3
 13097  0045FC  341D               	rlcf	(??___fladd+3)^0,w,c
 13098  0045FE  321D               	rrcf	(??___fladd+3)^0,f,c
 13099  004600  321C               	rrcf	(??___fladd+2)^0,f,c
 13100  004602  321B               	rrcf	(??___fladd+1)^0,f,c
 13101  004604  321A               	rrcf	??___fladd^0,f,c
 13102  004606  C01A  F012         	movff	??___fladd,___fladd@b
 13103  00460A  C01B  F013         	movff	??___fladd+1,___fladd@b+1
 13104  00460E  C01C  F014         	movff	??___fladd+2,___fladd@b+2
 13105  004612  C01D  F015         	movff	??___fladd+3,___fladd@b+3
 13106  004616  2820               	incf	___fladd@bexp^0,w,c
 13107  004618  B4D8               	btfsc	status,2,c
 13108  00461A  EF11  F023         	goto	u7481
 13109  00461E  EF13  F023         	goto	u7480
 13110  004622                     u7481:
 13111  004622  EF14  F023         	goto	l6136
 13112  004626                     u7480:
 13113  004626  2A20               	incf	___fladd@bexp^0,f,c
 13114  004628                     l6136:
 13115  004628  2820               	incf	___fladd@bexp^0,w,c
 13116  00462A  B4D8               	btfsc	status,2,c
 13117  00462C  EF1A  F023         	goto	u7491
 13118  004630  EF1C  F023         	goto	u7490
 13119  004634                     u7491:
 13120  004634  EF24  F023         	goto	l6140
 13121  004638                     u7490:
 13122  004638  5020               	movf	___fladd@bexp^0,w,c
 13123  00463A  A4D8               	btfss	status,2,c
 13124  00463C  EF22  F023         	goto	u7501
 13125  004640  EF24  F023         	goto	u7500
 13126  004644                     u7501:
 13127  004644  EF36  F023         	goto	l6144
 13128  004648                     u7500:
 13129  004648                     l6140:
 13130  004648  0E00               	movlw	0
 13131  00464A  6E12               	movwf	___fladd@b^0,c
 13132  00464C  0E00               	movlw	0
 13133  00464E  6E13               	movwf	(___fladd@b+1)^0,c
 13134  004650  0E00               	movlw	0
 13135  004652  6E14               	movwf	(___fladd@b+2)^0,c
 13136  004654  0E00               	movlw	0
 13137  004656  6E15               	movwf	(___fladd@b+3)^0,c
 13138  004658  5020               	movf	___fladd@bexp^0,w,c
 13139  00465A  A4D8               	btfss	status,2,c
 13140  00465C  EF32  F023         	goto	u7511
 13141  004660  EF34  F023         	goto	u7510
 13142  004664                     u7511:
 13143  004664  EF36  F023         	goto	l6144
 13144  004668                     u7510:
 13145  004668  0E00               	movlw	0
 13146  00466A  6E1E               	movwf	___fladd@signs^0,c
 13147  00466C                     l6144:
 13148  00466C  A020               	btfss	___fladd@bexp^0,0,c
 13149  00466E  EF3B  F023         	goto	u7521
 13150  004672  EF3D  F023         	goto	u7520
 13151  004676                     u7521:
 13152  004676  EF40  F023         	goto	l6148
 13153  00467A                     u7520:
 13154  00467A  8E14               	bsf	(___fladd@b+2)^0,7,c
 13155  00467C  EF41  F023         	goto	l6150
 13156  004680                     l6148:
 13157  004680  9E14               	bcf	(___fladd@b+2)^0,7,c
 13158  004682                     l6150:
 13159  004682  90D8               	bcf	status,0,c
 13160  004684  3020               	rrcf	___fladd@bexp^0,w,c
 13161  004686  6E15               	movwf	(___fladd@b+3)^0,c
 13162  004688  AE1E               	btfss	___fladd@signs^0,7,c
 13163  00468A  EF49  F023         	goto	u7531
 13164  00468E  EF4B  F023         	goto	u7530
 13165  004692                     u7531:
 13166  004692  EF4C  F023         	goto	l6156
 13167  004696                     u7530:
 13168  004696  8E15               	bsf	(___fladd@b+3)^0,7,c
 13169  004698                     l6156:
 13170  004698  C012  F012         	movff	___fladd@b,?___fladd
 13171  00469C  C013  F013         	movff	___fladd@b+1,?___fladd+1
 13172  0046A0  C014  F014         	movff	___fladd@b+2,?___fladd+2
 13173  0046A4  C015  F015         	movff	___fladd@b+3,?___fladd+3
 13174  0046A8                     l778:
 13175  0046A8  0012               	return		;funcret
 13176  0046AA                     __end_of___fladd:
 13177                           	callstack 0
 13178                           
 13179 ;; *************** function ___flneg *****************
 13180 ;; Defined at:
 13181 ;;		line 15 in file "C:\Program Files\Microchip\xc8\v2.30\pic\sources\c99\common\flneg.c"
 13182 ;; Parameters:    Size  Location     Type
 13183 ;;  f1              4   17[COMRAM] unsigned char 
 13184 ;; Auto vars:     Size  Location     Type
 13185 ;;		None
 13186 ;; Return value:  Size  Location     Type
 13187 ;;                  4   17[COMRAM] unsigned char 
 13188 ;; Registers used:
 13189 ;;		wreg, status,2, status,0
 13190 ;; Tracked objects:
 13191 ;;		On entry : 0/0
 13192 ;;		On exit  : 0/0
 13193 ;;		Unchanged: 0/0
 13194 ;; Data sizes:     COMRAM   BANK0   BANK1   BANK2   BANK3   BANK4   BANK5
 13195 ;;      Params:         4       0       0       0       0       0       0
 13196 ;;      Locals:         0       0       0       0       0       0       0
 13197 ;;      Temps:          0       0       0       0       0       0       0
 13198 ;;      Totals:         4       0       0       0       0       0       0
 13199 ;;Total ram usage:        4 bytes
 13200 ;; Hardware stack levels used:    1
 13201 ;; Hardware stack levels required when called:    4
 13202 ;; This function calls:
 13203 ;;		Nothing
 13204 ;; This function is called by:
 13205 ;;		_efgtoa
 13206 ;;		_powf
 13207 ;; This function uses a non-reentrant model
 13208 ;;
 13209                           
 13210                           	psect	text33
 13211  006AEC                     __ptext33:
 13212                           	callstack 0
 13213  006AEC                     ___flneg:
 13214                           	callstack 22
 13215  006AEC  5012               	movf	___flneg@f1^0,w,c
 13216  006AEE  1013               	iorwf	(___flneg@f1+1)^0,w,c
 13217  006AF0  1014               	iorwf	(___flneg@f1+2)^0,w,c
 13218  006AF2  1015               	iorwf	(___flneg@f1+3)^0,w,c
 13219  006AF4  B4D8               	btfsc	status,2,c
 13220  006AF6  EF7F  F035         	goto	u8221
 13221  006AFA  EF81  F035         	goto	u8220
 13222  006AFE                     u8221:
 13223  006AFE  EF89  F035         	goto	l6588
 13224  006B02                     u8220:
 13225  006B02  0E00               	movlw	0
 13226  006B04  1A12               	xorwf	___flneg@f1^0,f,c
 13227  006B06  0E00               	movlw	0
 13228  006B08  1A13               	xorwf	(___flneg@f1+1)^0,f,c
 13229  006B0A  0E00               	movlw	0
 13230  006B0C  1A14               	xorwf	(___flneg@f1+2)^0,f,c
 13231  006B0E  0E80               	movlw	128
 13232  006B10  1A15               	xorwf	(___flneg@f1+3)^0,f,c
 13233  006B12                     l6588:
 13234  006B12  C012  F012         	movff	___flneg@f1,?___flneg
 13235  006B16  C013  F013         	movff	___flneg@f1+1,?___flneg+1
 13236  006B1A  C014  F014         	movff	___flneg@f1+2,?___flneg+2
 13237  006B1E  C015  F015         	movff	___flneg@f1+3,?___flneg+3
 13238  006B22  0012               	return		;funcret
 13239  006B24                     __end_of___flneg:
 13240                           	callstack 0
 13241                           
 13242 ;; *************** function ___fldiv *****************
 13243 ;; Defined at:
 13244 ;;		line 11 in file "C:\Program Files\Microchip\xc8\v2.30\pic\sources\c99\common\sprcdiv.c"
 13245 ;; Parameters:    Size  Location     Type
 13246 ;;  b               4   70[COMRAM] unsigned char 
 13247 ;;  a               4   74[COMRAM] unsigned char 
 13248 ;; Auto vars:     Size  Location     Type
 13249 ;;  grs             4    7[BANK0 ] unsigned long 
 13250 ;;  rem             4    0[BANK0 ] unsigned long 
 13251 ;;  new_exp         2    5[BANK0 ] short 
 13252 ;;  aexp            1   12[BANK0 ] unsigned char 
 13253 ;;  bexp            1   11[BANK0 ] unsigned char 
 13254 ;;  sign            1    4[BANK0 ] unsigned char 
 13255 ;; Return value:  Size  Location     Type
 13256 ;;                  4   70[COMRAM] unsigned char 
 13257 ;; Registers used:
 13258 ;;		wreg, status,2, status,0
 13259 ;; Tracked objects:
 13260 ;;		On entry : 0/0
 13261 ;;		On exit  : 0/0
 13262 ;;		Unchanged: 0/0
 13263 ;; Data sizes:     COMRAM   BANK0   BANK1   BANK2   BANK3   BANK4   BANK5
 13264 ;;      Params:         8       0       0       0       0       0       0
 13265 ;;      Locals:         0      13       0       0       0       0       0
 13266 ;;      Temps:          4       0       0       0       0       0       0
 13267 ;;      Totals:        12      13       0       0       0       0       0
 13268 ;;Total ram usage:       25 bytes
 13269 ;; Hardware stack levels used:    1
 13270 ;; Hardware stack levels required when called:    4
 13271 ;; This function calls:
 13272 ;;		Nothing
 13273 ;; This function is called by:
 13274 ;;		_efgtoa
 13275 ;;		_powf
 13276 ;; This function uses a non-reentrant model
 13277 ;;
 13278                           
 13279                           	psect	text34
 13280  004F40                     __ptext34:
 13281                           	callstack 0
 13282  004F40                     ___fldiv:
 13283                           	callstack 22
 13284  004F40  504A               	movf	(___fldiv@b+3)^0,w,c
 13285  004F42  0B80               	andlw	128
 13286  004F44  0100               	movlb	0	; () banked
 13287  004F46  6F84               	movwf	___fldiv@sign& (0+255),b
 13288  004F48  504A               	movf	(___fldiv@b+3)^0,w,c
 13289  004F4A  244A               	addwf	(___fldiv@b+3)^0,w,c
 13290  004F4C  6F8B               	movwf	___fldiv@bexp& (0+255),b
 13291  004F4E                     
 13292                           ; BSR set to: 0
 13293  004F4E  AE49               	btfss	(___fldiv@b+2)^0,7,c
 13294  004F50  EFAC  F027         	goto	u7601
 13295  004F54  EFAE  F027         	goto	u7600
 13296  004F58                     u7601:
 13297  004F58  EFAF  F027         	goto	l6198
 13298  004F5C                     u7600:
 13299  004F5C                     
 13300                           ; BSR set to: 0
 13301  004F5C  818B               	bsf	___fldiv@bexp& (0+255),0,b
 13302  004F5E                     l6198:
 13303                           
 13304                           ; BSR set to: 0
 13305  004F5E  518B               	movf	___fldiv@bexp& (0+255),w,b
 13306  004F60  B4D8               	btfsc	status,2,c
 13307  004F62  EFB5  F027         	goto	u7611
 13308  004F66  EFB7  F027         	goto	u7610
 13309  004F6A                     u7611:
 13310  004F6A  EFCC  F027         	goto	l6208
 13311  004F6E                     u7610:
 13312  004F6E                     
 13313                           ; BSR set to: 0
 13314  004F6E  298B               	incf	___fldiv@bexp& (0+255),w,b
 13315  004F70  A4D8               	btfss	status,2,c
 13316  004F72  EFBD  F027         	goto	u7621
 13317  004F76  EFBF  F027         	goto	u7620
 13318  004F7A                     u7621:
 13319  004F7A  EFC7  F027         	goto	l6204
 13320  004F7E                     u7620:
 13321  004F7E                     
 13322                           ; BSR set to: 0
 13323  004F7E  0E00               	movlw	0
 13324  004F80  6E47               	movwf	___fldiv@b^0,c
 13325  004F82  0E00               	movlw	0
 13326  004F84  6E48               	movwf	(___fldiv@b+1)^0,c
 13327  004F86  0E00               	movlw	0
 13328  004F88  6E49               	movwf	(___fldiv@b+2)^0,c
 13329  004F8A  0E00               	movlw	0
 13330  004F8C  6E4A               	movwf	(___fldiv@b+3)^0,c
 13331  004F8E                     l6204:
 13332                           
 13333                           ; BSR set to: 0
 13334  004F8E  8E49               	bsf	(___fldiv@b+2)^0,7,c
 13335  004F90                     
 13336                           ; BSR set to: 0
 13337  004F90  0E00               	movlw	0
 13338  004F92  6E4A               	movwf	(___fldiv@b+3)^0,c
 13339  004F94  EFD4  F027         	goto	l6210
 13340  004F98                     l6208:
 13341                           
 13342                           ; BSR set to: 0
 13343  004F98  0E00               	movlw	0
 13344  004F9A  6E47               	movwf	___fldiv@b^0,c
 13345  004F9C  0E00               	movlw	0
 13346  004F9E  6E48               	movwf	(___fldiv@b+1)^0,c
 13347  004FA0  0E00               	movlw	0
 13348  004FA2  6E49               	movwf	(___fldiv@b+2)^0,c
 13349  004FA4  0E00               	movlw	0
 13350  004FA6  6E4A               	movwf	(___fldiv@b+3)^0,c
 13351  004FA8                     l6210:
 13352                           
 13353                           ; BSR set to: 0
 13354  004FA8  504E               	movf	(___fldiv@a+3)^0,w,c
 13355  004FAA  0B80               	andlw	128
 13356  004FAC  1B84               	xorwf	___fldiv@sign& (0+255),f,b
 13357  004FAE                     
 13358                           ; BSR set to: 0
 13359  004FAE  504E               	movf	(___fldiv@a+3)^0,w,c
 13360  004FB0  244E               	addwf	(___fldiv@a+3)^0,w,c
 13361  004FB2  6F8C               	movwf	___fldiv@aexp& (0+255),b
 13362  004FB4                     
 13363                           ; BSR set to: 0
 13364  004FB4  AE4D               	btfss	(___fldiv@a+2)^0,7,c
 13365  004FB6  EFDF  F027         	goto	u7631
 13366  004FBA  EFE1  F027         	goto	u7630
 13367  004FBE                     u7631:
 13368  004FBE  EFE2  F027         	goto	l6218
 13369  004FC2                     u7630:
 13370  004FC2                     
 13371                           ; BSR set to: 0
 13372  004FC2  818C               	bsf	___fldiv@aexp& (0+255),0,b
 13373  004FC4                     l6218:
 13374                           
 13375                           ; BSR set to: 0
 13376  004FC4  518C               	movf	___fldiv@aexp& (0+255),w,b
 13377  004FC6  B4D8               	btfsc	status,2,c
 13378  004FC8  EFE8  F027         	goto	u7641
 13379  004FCC  EFEA  F027         	goto	u7640
 13380  004FD0                     u7641:
 13381  004FD0  EFFF  F027         	goto	l6228
 13382  004FD4                     u7640:
 13383  004FD4                     
 13384                           ; BSR set to: 0
 13385  004FD4  298C               	incf	___fldiv@aexp& (0+255),w,b
 13386  004FD6  A4D8               	btfss	status,2,c
 13387  004FD8  EFF0  F027         	goto	u7651
 13388  004FDC  EFF2  F027         	goto	u7650
 13389  004FE0                     u7651:
 13390  004FE0  EFFA  F027         	goto	l6224
 13391  004FE4                     u7650:
 13392  004FE4                     
 13393                           ; BSR set to: 0
 13394  004FE4  0E00               	movlw	0
 13395  004FE6  6E4B               	movwf	___fldiv@a^0,c
 13396  004FE8  0E00               	movlw	0
 13397  004FEA  6E4C               	movwf	(___fldiv@a+1)^0,c
 13398  004FEC  0E00               	movlw	0
 13399  004FEE  6E4D               	movwf	(___fldiv@a+2)^0,c
 13400  004FF0  0E00               	movlw	0
 13401  004FF2  6E4E               	movwf	(___fldiv@a+3)^0,c
 13402  004FF4                     l6224:
 13403                           
 13404                           ; BSR set to: 0
 13405  004FF4  8E4D               	bsf	(___fldiv@a+2)^0,7,c
 13406  004FF6                     
 13407                           ; BSR set to: 0
 13408  004FF6  0E00               	movlw	0
 13409  004FF8  6E4E               	movwf	(___fldiv@a+3)^0,c
 13410  004FFA  EF07  F028         	goto	l6230
 13411  004FFE                     l6228:
 13412                           
 13413                           ; BSR set to: 0
 13414  004FFE  0E00               	movlw	0
 13415  005000  6E4B               	movwf	___fldiv@a^0,c
 13416  005002  0E00               	movlw	0
 13417  005004  6E4C               	movwf	(___fldiv@a+1)^0,c
 13418  005006  0E00               	movlw	0
 13419  005008  6E4D               	movwf	(___fldiv@a+2)^0,c
 13420  00500A  0E00               	movlw	0
 13421  00500C  6E4E               	movwf	(___fldiv@a+3)^0,c
 13422  00500E                     l6230:
 13423                           
 13424                           ; BSR set to: 0
 13425  00500E  504B               	movf	___fldiv@a^0,w,c
 13426  005010  104C               	iorwf	(___fldiv@a+1)^0,w,c
 13427  005012  104D               	iorwf	(___fldiv@a+2)^0,w,c
 13428  005014  104E               	iorwf	(___fldiv@a+3)^0,w,c
 13429  005016  A4D8               	btfss	status,2,c
 13430  005018  EF10  F028         	goto	u7661
 13431  00501C  EF12  F028         	goto	u7660
 13432  005020                     u7661:
 13433  005020  EF2A  F028         	goto	l6242
 13434  005024                     u7660:
 13435  005024                     
 13436                           ; BSR set to: 0
 13437  005024  0E00               	movlw	0
 13438  005026  6E47               	movwf	___fldiv@b^0,c
 13439  005028  0E00               	movlw	0
 13440  00502A  6E48               	movwf	(___fldiv@b+1)^0,c
 13441  00502C  0E00               	movlw	0
 13442  00502E  6E49               	movwf	(___fldiv@b+2)^0,c
 13443  005030  0E00               	movlw	0
 13444  005032  6E4A               	movwf	(___fldiv@b+3)^0,c
 13445  005034                     
 13446                           ; BSR set to: 0
 13447  005034  0E80               	movlw	128
 13448  005036  1249               	iorwf	(___fldiv@b+2)^0,f,c
 13449  005038  0E7F               	movlw	127
 13450  00503A  124A               	iorwf	(___fldiv@b+3)^0,f,c
 13451  00503C                     l6236:
 13452                           
 13453                           ; BSR set to: 0
 13454  00503C  5184               	movf	___fldiv@sign& (0+255),w,b
 13455  00503E  124A               	iorwf	(___fldiv@b+3)^0,f,c
 13456  005040                     
 13457                           ; BSR set to: 0
 13458  005040  C047  F047         	movff	___fldiv@b,?___fldiv
 13459  005044  C048  F048         	movff	___fldiv@b+1,?___fldiv+1
 13460  005048  C049  F049         	movff	___fldiv@b+2,?___fldiv+2
 13461  00504C  C04A  F04A         	movff	___fldiv@b+3,?___fldiv+3
 13462  005050  EF6D  F029         	goto	l823
 13463  005054                     l6242:
 13464                           
 13465                           ; BSR set to: 0
 13466  005054  518B               	movf	___fldiv@bexp& (0+255),w,b
 13467  005056  A4D8               	btfss	status,2,c
 13468  005058  EF30  F028         	goto	u7671
 13469  00505C  EF32  F028         	goto	u7670
 13470  005060                     u7671:
 13471  005060  EF3C  F028         	goto	l6250
 13472  005064                     u7670:
 13473  005064                     
 13474                           ; BSR set to: 0
 13475  005064  0E00               	movlw	0
 13476  005066  6E47               	movwf	?___fldiv^0,c
 13477  005068  0E00               	movlw	0
 13478  00506A  6E48               	movwf	(?___fldiv+1)^0,c
 13479  00506C  0E00               	movlw	0
 13480  00506E  6E49               	movwf	(?___fldiv+2)^0,c
 13481  005070  0E00               	movlw	0
 13482  005072  6E4A               	movwf	(?___fldiv+3)^0,c
 13483  005074  EF6D  F029         	goto	l823
 13484  005078                     l6250:
 13485                           
 13486                           ; BSR set to: 0
 13487  005078  518C               	movf	___fldiv@aexp& (0+255),w,b
 13488  00507A  C08B  F04F         	movff	___fldiv@bexp,??___fldiv
 13489  00507E  6A50               	clrf	(??___fldiv+1)^0,c
 13490  005080  5E4F               	subwf	??___fldiv^0,f,c
 13491  005082  0E00               	movlw	0
 13492  005084  5A50               	subwfb	(??___fldiv+1)^0,f,c
 13493  005086  0E7F               	movlw	127
 13494  005088  244F               	addwf	??___fldiv^0,w,c
 13495  00508A  6F85               	movwf	___fldiv@new_exp& (0+255),b
 13496  00508C  0E00               	movlw	0
 13497  00508E  2050               	addwfc	(??___fldiv+1)^0,w,c
 13498  005090  6F86               	movwf	(___fldiv@new_exp+1)& (0+255),b
 13499  005092                     
 13500                           ; BSR set to: 0
 13501  005092  C047  F080         	movff	___fldiv@b,___fldiv@rem
 13502  005096  C048  F081         	movff	___fldiv@b+1,___fldiv@rem+1
 13503  00509A  C049  F082         	movff	___fldiv@b+2,___fldiv@rem+2
 13504  00509E  C04A  F083         	movff	___fldiv@b+3,___fldiv@rem+3
 13505  0050A2                     
 13506                           ; BSR set to: 0
 13507  0050A2  0E00               	movlw	0
 13508  0050A4  6E47               	movwf	___fldiv@b^0,c
 13509  0050A6  0E00               	movlw	0
 13510  0050A8  6E48               	movwf	(___fldiv@b+1)^0,c
 13511  0050AA  0E00               	movlw	0
 13512  0050AC  6E49               	movwf	(___fldiv@b+2)^0,c
 13513  0050AE  0E00               	movlw	0
 13514  0050B0  6E4A               	movwf	(___fldiv@b+3)^0,c
 13515  0050B2                     
 13516                           ; BSR set to: 0
 13517  0050B2  0E00               	movlw	0
 13518  0050B4  6F87               	movwf	___fldiv@grs& (0+255),b
 13519  0050B6  0E00               	movlw	0
 13520  0050B8  6F88               	movwf	(___fldiv@grs+1)& (0+255),b
 13521  0050BA  0E00               	movlw	0
 13522  0050BC  6F89               	movwf	(___fldiv@grs+2)& (0+255),b
 13523  0050BE  0E00               	movlw	0
 13524  0050C0  6F8A               	movwf	(___fldiv@grs+3)& (0+255),b
 13525  0050C2                     
 13526                           ; BSR set to: 0
 13527  0050C2  0E00               	movlw	0
 13528  0050C4  6F8C               	movwf	___fldiv@aexp& (0+255),b
 13529  0050C6  EF9D  F028         	goto	l825
 13530  0050CA                     l6260:
 13531                           
 13532                           ; BSR set to: 0
 13533  0050CA  518C               	movf	___fldiv@aexp& (0+255),w,b
 13534  0050CC  B4D8               	btfsc	status,2,c
 13535  0050CE  EF6B  F028         	goto	u7681
 13536  0050D2  EF6D  F028         	goto	u7680
 13537  0050D6                     u7681:
 13538  0050D6  EF84  F028         	goto	l6268
 13539  0050DA                     u7680:
 13540  0050DA                     
 13541                           ; BSR set to: 0
 13542  0050DA  90D8               	bcf	status,0,c
 13543  0050DC  3780               	rlcf	___fldiv@rem& (0+255),f,b
 13544  0050DE  3781               	rlcf	(___fldiv@rem+1)& (0+255),f,b
 13545  0050E0  3782               	rlcf	(___fldiv@rem+2)& (0+255),f,b
 13546  0050E2  3783               	rlcf	(___fldiv@rem+3)& (0+255),f,b
 13547  0050E4  90D8               	bcf	status,0,c
 13548  0050E6  3647               	rlcf	___fldiv@b^0,f,c
 13549  0050E8  3648               	rlcf	(___fldiv@b+1)^0,f,c
 13550  0050EA  3649               	rlcf	(___fldiv@b+2)^0,f,c
 13551  0050EC  364A               	rlcf	(___fldiv@b+3)^0,f,c
 13552  0050EE                     
 13553                           ; BSR set to: 0
 13554  0050EE  AF8A               	btfss	(___fldiv@grs+3)& (0+255),7,b
 13555  0050F0  EF7C  F028         	goto	u7691
 13556  0050F4  EF7E  F028         	goto	u7690
 13557  0050F8                     u7691:
 13558  0050F8  EF7F  F028         	goto	l828
 13559  0050FC                     u7690:
 13560  0050FC                     
 13561                           ; BSR set to: 0
 13562  0050FC  8047               	bsf	___fldiv@b^0,0,c
 13563  0050FE                     l828:
 13564                           
 13565                           ; BSR set to: 0
 13566  0050FE  90D8               	bcf	status,0,c
 13567  005100  3787               	rlcf	___fldiv@grs& (0+255),f,b
 13568  005102  3788               	rlcf	(___fldiv@grs+1)& (0+255),f,b
 13569  005104  3789               	rlcf	(___fldiv@grs+2)& (0+255),f,b
 13570  005106  378A               	rlcf	(___fldiv@grs+3)& (0+255),f,b
 13571  005108                     l6268:
 13572                           
 13573                           ; BSR set to: 0
 13574  005108  504B               	movf	___fldiv@a^0,w,c
 13575  00510A  5D80               	subwf	___fldiv@rem& (0+255),w,b
 13576  00510C  504C               	movf	(___fldiv@a+1)^0,w,c
 13577  00510E  5981               	subwfb	(___fldiv@rem+1)& (0+255),w,b
 13578  005110  504D               	movf	(___fldiv@a+2)^0,w,c
 13579  005112  5982               	subwfb	(___fldiv@rem+2)& (0+255),w,b
 13580  005114  504E               	movf	(___fldiv@a+3)^0,w,c
 13581  005116  5983               	subwfb	(___fldiv@rem+3)& (0+255),w,b
 13582  005118  A0D8               	btfss	status,0,c
 13583  00511A  EF91  F028         	goto	u7701
 13584  00511E  EF93  F028         	goto	u7700
 13585  005122                     u7701:
 13586  005122  EF9C  F028         	goto	l6274
 13587  005126                     u7700:
 13588  005126                     
 13589                           ; BSR set to: 0
 13590  005126  8D8A               	bsf	(___fldiv@grs+3)& (0+255),6,b
 13591  005128                     
 13592                           ; BSR set to: 0
 13593  005128  504B               	movf	___fldiv@a^0,w,c
 13594  00512A  5F80               	subwf	___fldiv@rem& (0+255),f,b
 13595  00512C  504C               	movf	(___fldiv@a+1)^0,w,c
 13596  00512E  5B81               	subwfb	(___fldiv@rem+1)& (0+255),f,b
 13597  005130  504D               	movf	(___fldiv@a+2)^0,w,c
 13598  005132  5B82               	subwfb	(___fldiv@rem+2)& (0+255),f,b
 13599  005134  504E               	movf	(___fldiv@a+3)^0,w,c
 13600  005136  5B83               	subwfb	(___fldiv@rem+3)& (0+255),f,b
 13601  005138                     l6274:
 13602                           
 13603                           ; BSR set to: 0
 13604  005138  2B8C               	incf	___fldiv@aexp& (0+255),f,b
 13605  00513A                     l825:
 13606                           
 13607                           ; BSR set to: 0
 13608  00513A  0E19               	movlw	25
 13609  00513C  658C               	cpfsgt	___fldiv@aexp& (0+255),b
 13610  00513E  EFA3  F028         	goto	u7711
 13611  005142  EFA5  F028         	goto	u7710
 13612  005146                     u7711:
 13613  005146  EF65  F028         	goto	l6260
 13614  00514A                     u7710:
 13615  00514A                     
 13616                           ; BSR set to: 0
 13617  00514A  5180               	movf	___fldiv@rem& (0+255),w,b
 13618  00514C  1181               	iorwf	(___fldiv@rem+1)& (0+255),w,b
 13619  00514E  1182               	iorwf	(___fldiv@rem+2)& (0+255),w,b
 13620  005150  1183               	iorwf	(___fldiv@rem+3)& (0+255),w,b
 13621  005152  B4D8               	btfsc	status,2,c
 13622  005154  EFAE  F028         	goto	u7721
 13623  005158  EFB0  F028         	goto	u7720
 13624  00515C                     u7721:
 13625  00515C  EFC8  F028         	goto	l6286
 13626  005160                     u7720:
 13627  005160                     
 13628                           ; BSR set to: 0
 13629  005160  8187               	bsf	___fldiv@grs& (0+255),0,b
 13630  005162  EFC8  F028         	goto	l6286
 13631  005166                     l6280:
 13632                           
 13633                           ; BSR set to: 0
 13634  005166  90D8               	bcf	status,0,c
 13635  005168  3647               	rlcf	___fldiv@b^0,f,c
 13636  00516A  3648               	rlcf	(___fldiv@b+1)^0,f,c
 13637  00516C  3649               	rlcf	(___fldiv@b+2)^0,f,c
 13638  00516E  364A               	rlcf	(___fldiv@b+3)^0,f,c
 13639  005170                     
 13640                           ; BSR set to: 0
 13641  005170  AF8A               	btfss	(___fldiv@grs+3)& (0+255),7,b
 13642  005172  EFBD  F028         	goto	u7731
 13643  005176  EFBF  F028         	goto	u7730
 13644  00517A                     u7731:
 13645  00517A  EFC0  F028         	goto	l834
 13646  00517E                     u7730:
 13647  00517E                     
 13648                           ; BSR set to: 0
 13649  00517E  8047               	bsf	___fldiv@b^0,0,c
 13650  005180                     l834:
 13651                           
 13652                           ; BSR set to: 0
 13653  005180  90D8               	bcf	status,0,c
 13654  005182  3787               	rlcf	___fldiv@grs& (0+255),f,b
 13655  005184  3788               	rlcf	(___fldiv@grs+1)& (0+255),f,b
 13656  005186  3789               	rlcf	(___fldiv@grs+2)& (0+255),f,b
 13657  005188  378A               	rlcf	(___fldiv@grs+3)& (0+255),f,b
 13658  00518A  0785               	decf	___fldiv@new_exp& (0+255),f,b
 13659  00518C  A0D8               	btfss	status,0,c
 13660  00518E  0786               	decf	(___fldiv@new_exp+1)& (0+255),f,b
 13661  005190                     l6286:
 13662                           
 13663                           ; BSR set to: 0
 13664  005190  AE49               	btfss	(___fldiv@b+2)^0,7,c
 13665  005192  EFCD  F028         	goto	u7741
 13666  005196  EFCF  F028         	goto	u7740
 13667  00519A                     u7741:
 13668  00519A  EFB3  F028         	goto	l6280
 13669  00519E                     u7740:
 13670  00519E                     
 13671                           ; BSR set to: 0
 13672  00519E  0E00               	movlw	0
 13673  0051A0  6F8C               	movwf	___fldiv@aexp& (0+255),b
 13674  0051A2                     
 13675                           ; BSR set to: 0
 13676  0051A2  AF8A               	btfss	(___fldiv@grs+3)& (0+255),7,b
 13677  0051A4  EFD6  F028         	goto	u7751
 13678  0051A8  EFD8  F028         	goto	u7750
 13679  0051AC                     u7751:
 13680  0051AC  EFFC  F028         	goto	l836
 13681  0051B0                     u7750:
 13682  0051B0                     
 13683                           ; BSR set to: 0
 13684  0051B0  0EFF               	movlw	255
 13685  0051B2  1587               	andwf	___fldiv@grs& (0+255),w,b
 13686  0051B4  6E4F               	movwf	??___fldiv^0,c
 13687  0051B6  0EFF               	movlw	255
 13688  0051B8  1588               	andwf	(___fldiv@grs+1)& (0+255),w,b
 13689  0051BA  6E50               	movwf	(??___fldiv+1)^0,c
 13690  0051BC  0EFF               	movlw	255
 13691  0051BE  1589               	andwf	(___fldiv@grs+2)& (0+255),w,b
 13692  0051C0  6E51               	movwf	(??___fldiv+2)^0,c
 13693  0051C2  0E7F               	movlw	127
 13694  0051C4  158A               	andwf	(___fldiv@grs+3)& (0+255),w,b
 13695  0051C6  6E52               	movwf	(??___fldiv+3)^0,c
 13696  0051C8  504F               	movf	??___fldiv^0,w,c
 13697  0051CA  1050               	iorwf	(??___fldiv+1)^0,w,c
 13698  0051CC  1051               	iorwf	(??___fldiv+2)^0,w,c
 13699  0051CE  1052               	iorwf	(??___fldiv+3)^0,w,c
 13700  0051D0  B4D8               	btfsc	status,2,c
 13701  0051D2  EFED  F028         	goto	u7761
 13702  0051D6  EFEF  F028         	goto	u7760
 13703  0051DA                     u7761:
 13704  0051DA  EFF3  F028         	goto	l837
 13705  0051DE                     u7760:
 13706  0051DE                     l6294:
 13707                           
 13708                           ; BSR set to: 0
 13709  0051DE  0E01               	movlw	1
 13710  0051E0  6F8C               	movwf	___fldiv@aexp& (0+255),b
 13711  0051E2  EFFC  F028         	goto	l836
 13712  0051E6                     l837:
 13713                           
 13714                           ; BSR set to: 0
 13715  0051E6  A047               	btfss	___fldiv@b^0,0,c
 13716  0051E8  EFF8  F028         	goto	u7771
 13717  0051EC  EFFA  F028         	goto	u7770
 13718  0051F0                     u7771:
 13719  0051F0  EFFC  F028         	goto	l836
 13720  0051F4                     u7770:
 13721  0051F4  EFEF  F028         	goto	l6294
 13722  0051F8                     l836:
 13723                           
 13724                           ; BSR set to: 0
 13725  0051F8  518C               	movf	___fldiv@aexp& (0+255),w,b
 13726  0051FA  B4D8               	btfsc	status,2,c
 13727  0051FC  EF02  F029         	goto	u7781
 13728  005200  EF04  F029         	goto	u7780
 13729  005204                     u7781:
 13730  005204  EF28  F029         	goto	l6306
 13731  005208                     u7780:
 13732  005208                     
 13733                           ; BSR set to: 0
 13734  005208  0E01               	movlw	1
 13735  00520A  2647               	addwf	___fldiv@b^0,f,c
 13736  00520C  0E00               	movlw	0
 13737  00520E  2248               	addwfc	(___fldiv@b+1)^0,f,c
 13738  005210  2249               	addwfc	(___fldiv@b+2)^0,f,c
 13739  005212  224A               	addwfc	(___fldiv@b+3)^0,f,c
 13740  005214                     
 13741                           ; BSR set to: 0
 13742  005214  A04A               	btfss	(___fldiv@b+3)^0,0,c
 13743  005216  EF0F  F029         	goto	u7791
 13744  00521A  EF11  F029         	goto	u7790
 13745  00521E                     u7791:
 13746  00521E  EF28  F029         	goto	l6306
 13747  005222                     u7790:
 13748  005222                     
 13749                           ; BSR set to: 0
 13750  005222  C047  F04F         	movff	___fldiv@b,??___fldiv
 13751  005226  C048  F050         	movff	___fldiv@b+1,??___fldiv+1
 13752  00522A  C049  F051         	movff	___fldiv@b+2,??___fldiv+2
 13753  00522E  C04A  F052         	movff	___fldiv@b+3,??___fldiv+3
 13754  005232  3452               	rlcf	(??___fldiv+3)^0,w,c
 13755  005234  3252               	rrcf	(??___fldiv+3)^0,f,c
 13756  005236  3251               	rrcf	(??___fldiv+2)^0,f,c
 13757  005238  3250               	rrcf	(??___fldiv+1)^0,f,c
 13758  00523A  324F               	rrcf	??___fldiv^0,f,c
 13759  00523C  C04F  F047         	movff	??___fldiv,___fldiv@b
 13760  005240  C050  F048         	movff	??___fldiv+1,___fldiv@b+1
 13761  005244  C051  F049         	movff	??___fldiv+2,___fldiv@b+2
 13762  005248  C052  F04A         	movff	??___fldiv+3,___fldiv@b+3
 13763  00524C                     
 13764                           ; BSR set to: 0
 13765  00524C  4B85               	infsnz	___fldiv@new_exp& (0+255),f,b
 13766  00524E  2B86               	incf	(___fldiv@new_exp+1)& (0+255),f,b
 13767  005250                     l6306:
 13768                           
 13769                           ; BSR set to: 0
 13770  005250  BF86               	btfsc	(___fldiv@new_exp+1)& (0+255),7,b
 13771  005252  EF33  F029         	goto	u7801
 13772  005256  5186               	movf	(___fldiv@new_exp+1)& (0+255),w,b
 13773  005258  E108               	bnz	u7800
 13774  00525A  2985               	incf	___fldiv@new_exp& (0+255),w,b
 13775  00525C  A0D8               	btfss	status,0,c
 13776  00525E  EF33  F029         	goto	u7801
 13777  005262  EF35  F029         	goto	u7800
 13778  005266                     u7801:
 13779  005266  EF40  F029         	goto	l6310
 13780  00526A                     u7800:
 13781  00526A                     
 13782                           ; BSR set to: 0
 13783  00526A  0E00               	movlw	0
 13784  00526C  6F86               	movwf	(___fldiv@new_exp+1)& (0+255),b
 13785  00526E  6985               	setf	___fldiv@new_exp& (0+255),b
 13786  005270  0E00               	movlw	0
 13787  005272  6E47               	movwf	___fldiv@b^0,c
 13788  005274  0E00               	movlw	0
 13789  005276  6E48               	movwf	(___fldiv@b+1)^0,c
 13790  005278  0E00               	movlw	0
 13791  00527A  6E49               	movwf	(___fldiv@b+2)^0,c
 13792  00527C  0E00               	movlw	0
 13793  00527E  6E4A               	movwf	(___fldiv@b+3)^0,c
 13794  005280                     l6310:
 13795                           
 13796                           ; BSR set to: 0
 13797  005280  BF86               	btfsc	(___fldiv@new_exp+1)& (0+255),7,b
 13798  005282  EF4D  F029         	goto	u7810
 13799  005286  5186               	movf	(___fldiv@new_exp+1)& (0+255),w,b
 13800  005288  E106               	bnz	u7811
 13801  00528A  0585               	decf	___fldiv@new_exp& (0+255),w,b
 13802  00528C  B0D8               	btfsc	status,0,c
 13803  00528E  EF4B  F029         	goto	u7811
 13804  005292  EF4D  F029         	goto	u7810
 13805  005296                     u7811:
 13806  005296  EF5B  F029         	goto	l6314
 13807  00529A                     u7810:
 13808  00529A                     
 13809                           ; BSR set to: 0
 13810  00529A  0E00               	movlw	0
 13811  00529C  6F86               	movwf	(___fldiv@new_exp+1)& (0+255),b
 13812  00529E  0E00               	movlw	0
 13813  0052A0  6F85               	movwf	___fldiv@new_exp& (0+255),b
 13814  0052A2  0E00               	movlw	0
 13815  0052A4  6E47               	movwf	___fldiv@b^0,c
 13816  0052A6  0E00               	movlw	0
 13817  0052A8  6E48               	movwf	(___fldiv@b+1)^0,c
 13818  0052AA  0E00               	movlw	0
 13819  0052AC  6E49               	movwf	(___fldiv@b+2)^0,c
 13820  0052AE  0E00               	movlw	0
 13821  0052B0  6E4A               	movwf	(___fldiv@b+3)^0,c
 13822  0052B2  0E00               	movlw	0
 13823  0052B4  6F84               	movwf	___fldiv@sign& (0+255),b
 13824  0052B6                     l6314:
 13825                           
 13826                           ; BSR set to: 0
 13827  0052B6  C085  F08B         	movff	___fldiv@new_exp,___fldiv@bexp
 13828  0052BA                     
 13829                           ; BSR set to: 0
 13830  0052BA  A18B               	btfss	___fldiv@bexp& (0+255),0,b
 13831  0052BC  EF62  F029         	goto	u7821
 13832  0052C0  EF64  F029         	goto	u7820
 13833  0052C4                     u7821:
 13834  0052C4  EF67  F029         	goto	l6320
 13835  0052C8                     u7820:
 13836  0052C8                     
 13837                           ; BSR set to: 0
 13838  0052C8  8E49               	bsf	(___fldiv@b+2)^0,7,c
 13839  0052CA  EF68  F029         	goto	l6322
 13840  0052CE                     l6320:
 13841                           
 13842                           ; BSR set to: 0
 13843  0052CE  9E49               	bcf	(___fldiv@b+2)^0,7,c
 13844  0052D0                     l6322:
 13845                           
 13846                           ; BSR set to: 0
 13847  0052D0  90D8               	bcf	status,0,c
 13848  0052D2  318B               	rrcf	___fldiv@bexp& (0+255),w,b
 13849  0052D4  6E4A               	movwf	(___fldiv@b+3)^0,c
 13850  0052D6  EF1E  F028         	goto	l6236
 13851  0052DA                     l823:
 13852                           
 13853                           ; BSR set to: 0
 13854  0052DA  0012               	return		;funcret
 13855  0052DC                     __end_of___fldiv:
 13856                           	callstack 0
 13857                           
 13858 ;; *************** function ___fltol *****************
 13859 ;; Defined at:
 13860 ;;		line 43 in file "C:\Program Files\Microchip\xc8\v2.30\pic\sources\c99\common\fltol.c"
 13861 ;; Parameters:    Size  Location     Type
 13862 ;;  f1              4   57[BANK0 ] unsigned char 
 13863 ;; Auto vars:     Size  Location     Type
 13864 ;;  exp1            1   92[COMRAM] unsigned char 
 13865 ;;  sign1           1   91[COMRAM] unsigned char 
 13866 ;; Return value:  Size  Location     Type
 13867 ;;                  4   57[BANK0 ] long 
 13868 ;; Registers used:
 13869 ;;		wreg, status,2, status,0
 13870 ;; Tracked objects:
 13871 ;;		On entry : 0/0
 13872 ;;		On exit  : 0/0
 13873 ;;		Unchanged: 0/0
 13874 ;; Data sizes:     COMRAM   BANK0   BANK1   BANK2   BANK3   BANK4   BANK5
 13875 ;;      Params:         0       4       0       0       0       0       0
 13876 ;;      Locals:         2       0       0       0       0       0       0
 13877 ;;      Temps:          0       4       0       0       0       0       0
 13878 ;;      Totals:         2       8       0       0       0       0       0
 13879 ;;Total ram usage:       10 bytes
 13880 ;; Hardware stack levels used:    1
 13881 ;; Hardware stack levels required when called:    4
 13882 ;; This function calls:
 13883 ;;		Nothing
 13884 ;; This function is called by:
 13885 ;;		_set_time
 13886 ;;		_efgtoa
 13887 ;; This function uses a non-reentrant model
 13888 ;;
 13889                           
 13890                           	psect	text35
 13891  005E24                     __ptext35:
 13892                           	callstack 0
 13893  005E24                     ___fltol:
 13894                           	callstack 22
 13895  005E24  0100               	movlb	0	; () banked
 13896  005E26  35BB               	rlcf	(___fltol@f1+2)& (0+255),w,b
 13897  005E28  35BC               	rlcf	(___fltol@f1+3)& (0+255),w,b
 13898  005E2A  6E5D               	movwf	___fltol@exp1^0,c
 13899  005E2C  505D               	movf	___fltol@exp1^0,w,c
 13900  005E2E  A4D8               	btfss	status,2,c
 13901  005E30  EF1C  F02F         	goto	u8231
 13902  005E34  EF1E  F02F         	goto	u8230
 13903  005E38                     u8231:
 13904  005E38  EF28  F02F         	goto	l6598
 13905  005E3C                     u8230:
 13906  005E3C                     l6594:
 13907                           
 13908                           ; BSR set to: 0
 13909  005E3C  0E00               	movlw	0
 13910  005E3E  6FB9               	movwf	?___fltol& (0+255),b
 13911  005E40  0E00               	movlw	0
 13912  005E42  6FBA               	movwf	(?___fltol+1)& (0+255),b
 13913  005E44  0E00               	movlw	0
 13914  005E46  6FBB               	movwf	(?___fltol+2)& (0+255),b
 13915  005E48  0E00               	movlw	0
 13916  005E4A  6FBC               	movwf	(?___fltol+3)& (0+255),b
 13917  005E4C  EF95  F02F         	goto	l538
 13918  005E50                     l6598:
 13919                           
 13920                           ; BSR set to: 0
 13921  005E50  C0B9  F0BD         	movff	___fltol@f1,??___fltol
 13922  005E54  C0BA  F0BE         	movff	___fltol@f1+1,??___fltol+1
 13923  005E58  C0BB  F0BF         	movff	___fltol@f1+2,??___fltol+2
 13924  005E5C  C0BC  F0C0         	movff	___fltol@f1+3,??___fltol+3
 13925  005E60  0E20               	movlw	32
 13926  005E62  EF38  F02F         	goto	u8240
 13927  005E66                     u8245:
 13928  005E66  90D8               	bcf	status,0,c
 13929  005E68  33C0               	rrcf	(??___fltol+3)& (0+255),f,b
 13930  005E6A  33BF               	rrcf	(??___fltol+2)& (0+255),f,b
 13931  005E6C  33BE               	rrcf	(??___fltol+1)& (0+255),f,b
 13932  005E6E  33BD               	rrcf	??___fltol& (0+255),f,b
 13933  005E70                     u8240:
 13934  005E70  2EE8               	decfsz	wreg,f,c
 13935  005E72  EF33  F02F         	goto	u8245
 13936  005E76  51BD               	movf	??___fltol& (0+255),w,b
 13937  005E78  6E5C               	movwf	___fltol@sign1^0,c
 13938  005E7A                     
 13939                           ; BSR set to: 0
 13940  005E7A  8FBB               	bsf	(___fltol@f1+2)& (0+255),7,b
 13941  005E7C                     
 13942                           ; BSR set to: 0
 13943  005E7C  0EFF               	movlw	255
 13944  005E7E  17B9               	andwf	___fltol@f1& (0+255),f,b
 13945  005E80  0EFF               	movlw	255
 13946  005E82  17BA               	andwf	(___fltol@f1+1)& (0+255),f,b
 13947  005E84  0EFF               	movlw	255
 13948  005E86  17BB               	andwf	(___fltol@f1+2)& (0+255),f,b
 13949  005E88  0E00               	movlw	0
 13950  005E8A  17BC               	andwf	(___fltol@f1+3)& (0+255),f,b
 13951  005E8C                     
 13952                           ; BSR set to: 0
 13953  005E8C  0E96               	movlw	150
 13954  005E8E  5E5D               	subwf	___fltol@exp1^0,f,c
 13955  005E90                     
 13956                           ; BSR set to: 0
 13957  005E90  BE5D               	btfsc	___fltol@exp1^0,7,c
 13958  005E92  EF4F  F02F         	goto	u8250
 13959  005E96  EF4D  F02F         	goto	u8251
 13960  005E9A                     u8251:
 13961  005E9A  EF65  F02F         	goto	l6618
 13962  005E9E                     u8250:
 13963  005E9E                     
 13964                           ; BSR set to: 0
 13965  005E9E  505D               	movf	___fltol@exp1^0,w,c
 13966  005EA0  0A80               	xorlw	128
 13967  005EA2  0F97               	addlw	151
 13968  005EA4  B0D8               	btfsc	status,0,c
 13969  005EA6  EF57  F02F         	goto	u8261
 13970  005EAA  EF59  F02F         	goto	u8260
 13971  005EAE                     u8261:
 13972  005EAE  EF5B  F02F         	goto	l6614
 13973  005EB2                     u8260:
 13974  005EB2  EF1E  F02F         	goto	l6594
 13975  005EB6                     l6614:
 13976                           
 13977                           ; BSR set to: 0
 13978  005EB6  90D8               	bcf	status,0,c
 13979  005EB8  33BC               	rrcf	(___fltol@f1+3)& (0+255),f,b
 13980  005EBA  33BB               	rrcf	(___fltol@f1+2)& (0+255),f,b
 13981  005EBC  33BA               	rrcf	(___fltol@f1+1)& (0+255),f,b
 13982  005EBE  33B9               	rrcf	___fltol@f1& (0+255),f,b
 13983  005EC0                     
 13984                           ; BSR set to: 0
 13985  005EC0  3E5D               	incfsz	___fltol@exp1^0,f,c
 13986  005EC2  EF5B  F02F         	goto	l6614
 13987  005EC6  EF7D  F02F         	goto	l6628
 13988  005ECA                     l6618:
 13989                           
 13990                           ; BSR set to: 0
 13991  005ECA  0E1F               	movlw	31
 13992  005ECC  645D               	cpfsgt	___fltol@exp1^0,c
 13993  005ECE  EF6B  F02F         	goto	u8271
 13994  005ED2  EF6D  F02F         	goto	u8270
 13995  005ED6                     u8271:
 13996  005ED6  EF75  F02F         	goto	l6626
 13997  005EDA                     u8270:
 13998  005EDA  EF1E  F02F         	goto	l6594
 13999  005EDE                     l6624:
 14000                           
 14001                           ; BSR set to: 0
 14002  005EDE  90D8               	bcf	status,0,c
 14003  005EE0  37B9               	rlcf	___fltol@f1& (0+255),f,b
 14004  005EE2  37BA               	rlcf	(___fltol@f1+1)& (0+255),f,b
 14005  005EE4  37BB               	rlcf	(___fltol@f1+2)& (0+255),f,b
 14006  005EE6  37BC               	rlcf	(___fltol@f1+3)& (0+255),f,b
 14007  005EE8  065D               	decf	___fltol@exp1^0,f,c
 14008  005EEA                     l6626:
 14009                           
 14010                           ; BSR set to: 0
 14011  005EEA  505D               	movf	___fltol@exp1^0,w,c
 14012  005EEC  A4D8               	btfss	status,2,c
 14013  005EEE  EF7B  F02F         	goto	u8281
 14014  005EF2  EF7D  F02F         	goto	u8280
 14015  005EF6                     u8281:
 14016  005EF6  EF6F  F02F         	goto	l6624
 14017  005EFA                     u8280:
 14018  005EFA                     l6628:
 14019                           
 14020                           ; BSR set to: 0
 14021  005EFA  505C               	movf	___fltol@sign1^0,w,c
 14022  005EFC  B4D8               	btfsc	status,2,c
 14023  005EFE  EF83  F02F         	goto	u8291
 14024  005F02  EF85  F02F         	goto	u8290
 14025  005F06                     u8291:
 14026  005F06  EF8D  F02F         	goto	l6632
 14027  005F0A                     u8290:
 14028  005F0A                     
 14029                           ; BSR set to: 0
 14030  005F0A  1FBC               	comf	(___fltol@f1+3)& (0+255),f,b
 14031  005F0C  1FBB               	comf	(___fltol@f1+2)& (0+255),f,b
 14032  005F0E  1FBA               	comf	(___fltol@f1+1)& (0+255),f,b
 14033  005F10  6DB9               	negf	___fltol@f1& (0+255),b
 14034  005F12  0E00               	movlw	0
 14035  005F14  23BA               	addwfc	(___fltol@f1+1)& (0+255),f,b
 14036  005F16  23BB               	addwfc	(___fltol@f1+2)& (0+255),f,b
 14037  005F18  23BC               	addwfc	(___fltol@f1+3)& (0+255),f,b
 14038  005F1A                     l6632:
 14039                           
 14040                           ; BSR set to: 0
 14041  005F1A  C0B9  F0B9         	movff	___fltol@f1,?___fltol
 14042  005F1E  C0BA  F0BA         	movff	___fltol@f1+1,?___fltol+1
 14043  005F22  C0BB  F0BB         	movff	___fltol@f1+2,?___fltol+2
 14044  005F26  C0BC  F0BC         	movff	___fltol@f1+3,?___fltol+3
 14045  005F2A                     l538:
 14046                           
 14047                           ; BSR set to: 0
 14048  005F2A  0012               	return		;funcret
 14049  005F2C                     __end_of___fltol:
 14050                           	callstack 0
 14051                           
 14052 ;; *************** function ___awdiv *****************
 14053 ;; Defined at:
 14054 ;;		line 7 in file "C:\Program Files\Microchip\xc8\v2.30\pic\sources\c99\common\awdiv.c"
 14055 ;; Parameters:    Size  Location     Type
 14056 ;;  dividend        2   17[COMRAM] int 
 14057 ;;  divisor         2   19[COMRAM] int 
 14058 ;; Auto vars:     Size  Location     Type
 14059 ;;  quotient        2   23[COMRAM] int 
 14060 ;;  sign            1   22[COMRAM] unsigned char 
 14061 ;;  counter         1   21[COMRAM] unsigned char 
 14062 ;; Return value:  Size  Location     Type
 14063 ;;                  2   17[COMRAM] int 
 14064 ;; Registers used:
 14065 ;;		wreg, status,2, status,0
 14066 ;; Tracked objects:
 14067 ;;		On entry : 0/0
 14068 ;;		On exit  : 0/0
 14069 ;;		Unchanged: 0/0
 14070 ;; Data sizes:     COMRAM   BANK0   BANK1   BANK2   BANK3   BANK4   BANK5
 14071 ;;      Params:         4       0       0       0       0       0       0
 14072 ;;      Locals:         4       0       0       0       0       0       0
 14073 ;;      Temps:          0       0       0       0       0       0       0
 14074 ;;      Totals:         8       0       0       0       0       0       0
 14075 ;;Total ram usage:        8 bytes
 14076 ;; Hardware stack levels used:    1
 14077 ;; Hardware stack levels required when called:    4
 14078 ;; This function calls:
 14079 ;;		Nothing
 14080 ;; This function is called by:
 14081 ;;		_set_time
 14082 ;;		_efgtoa
 14083 ;; This function uses a non-reentrant model
 14084 ;;
 14085                           
 14086                           	psect	text36
 14087  0063C0                     __ptext36:
 14088                           	callstack 0
 14089  0063C0                     ___awdiv:
 14090                           	callstack 22
 14091  0063C0  0E00               	movlw	0
 14092  0063C2  6E17               	movwf	___awdiv@sign^0,c
 14093  0063C4  BE15               	btfsc	(___awdiv@divisor+1)^0,7,c
 14094  0063C6  EFE9  F031         	goto	u8020
 14095  0063CA  EFE7  F031         	goto	u8021
 14096  0063CE                     u8021:
 14097  0063CE  EFEF  F031         	goto	l6474
 14098  0063D2                     u8020:
 14099  0063D2  6C14               	negf	___awdiv@divisor^0,c
 14100  0063D4  1E15               	comf	(___awdiv@divisor+1)^0,f,c
 14101  0063D6  B0D8               	btfsc	status,0,c
 14102  0063D8  2A15               	incf	(___awdiv@divisor+1)^0,f,c
 14103  0063DA  0E01               	movlw	1
 14104  0063DC  6E17               	movwf	___awdiv@sign^0,c
 14105  0063DE                     l6474:
 14106  0063DE  BE13               	btfsc	(___awdiv@dividend+1)^0,7,c
 14107  0063E0  EFF6  F031         	goto	u8030
 14108  0063E4  EFF4  F031         	goto	u8031
 14109  0063E8                     u8031:
 14110  0063E8  EFFC  F031         	goto	l6480
 14111  0063EC                     u8030:
 14112  0063EC  6C12               	negf	___awdiv@dividend^0,c
 14113  0063EE  1E13               	comf	(___awdiv@dividend+1)^0,f,c
 14114  0063F0  B0D8               	btfsc	status,0,c
 14115  0063F2  2A13               	incf	(___awdiv@dividend+1)^0,f,c
 14116  0063F4  0E01               	movlw	1
 14117  0063F6  1A17               	xorwf	___awdiv@sign^0,f,c
 14118  0063F8                     l6480:
 14119  0063F8  0E00               	movlw	0
 14120  0063FA  6E19               	movwf	(___awdiv@quotient+1)^0,c
 14121  0063FC  0E00               	movlw	0
 14122  0063FE  6E18               	movwf	___awdiv@quotient^0,c
 14123  006400  5014               	movf	___awdiv@divisor^0,w,c
 14124  006402  1015               	iorwf	(___awdiv@divisor+1)^0,w,c
 14125  006404  B4D8               	btfsc	status,2,c
 14126  006406  EF07  F032         	goto	u8041
 14127  00640A  EF09  F032         	goto	u8040
 14128  00640E                     u8041:
 14129  00640E  EF31  F032         	goto	l6502
 14130  006412                     u8040:
 14131  006412  0E01               	movlw	1
 14132  006414  6E16               	movwf	___awdiv@counter^0,c
 14133  006416  EF11  F032         	goto	l6488
 14134  00641A                     l6486:
 14135  00641A  90D8               	bcf	status,0,c
 14136  00641C  3614               	rlcf	___awdiv@divisor^0,f,c
 14137  00641E  3615               	rlcf	(___awdiv@divisor+1)^0,f,c
 14138  006420  2A16               	incf	___awdiv@counter^0,f,c
 14139  006422                     l6488:
 14140  006422  AE15               	btfss	(___awdiv@divisor+1)^0,7,c
 14141  006424  EF16  F032         	goto	u8051
 14142  006428  EF18  F032         	goto	u8050
 14143  00642C                     u8051:
 14144  00642C  EF0D  F032         	goto	l6486
 14145  006430                     u8050:
 14146  006430                     l6490:
 14147  006430  90D8               	bcf	status,0,c
 14148  006432  3618               	rlcf	___awdiv@quotient^0,f,c
 14149  006434  3619               	rlcf	(___awdiv@quotient+1)^0,f,c
 14150  006436  5014               	movf	___awdiv@divisor^0,w,c
 14151  006438  5C12               	subwf	___awdiv@dividend^0,w,c
 14152  00643A  5015               	movf	(___awdiv@divisor+1)^0,w,c
 14153  00643C  5813               	subwfb	(___awdiv@dividend+1)^0,w,c
 14154  00643E  A0D8               	btfss	status,0,c
 14155  006440  EF24  F032         	goto	u8061
 14156  006444  EF26  F032         	goto	u8060
 14157  006448                     u8061:
 14158  006448  EF2B  F032         	goto	l6498
 14159  00644C                     u8060:
 14160  00644C  5014               	movf	___awdiv@divisor^0,w,c
 14161  00644E  5E12               	subwf	___awdiv@dividend^0,f,c
 14162  006450  5015               	movf	(___awdiv@divisor+1)^0,w,c
 14163  006452  5A13               	subwfb	(___awdiv@dividend+1)^0,f,c
 14164  006454  8018               	bsf	___awdiv@quotient^0,0,c
 14165  006456                     l6498:
 14166  006456  90D8               	bcf	status,0,c
 14167  006458  3215               	rrcf	(___awdiv@divisor+1)^0,f,c
 14168  00645A  3214               	rrcf	___awdiv@divisor^0,f,c
 14169  00645C  2E16               	decfsz	___awdiv@counter^0,f,c
 14170  00645E  EF18  F032         	goto	l6490
 14171  006462                     l6502:
 14172  006462  5017               	movf	___awdiv@sign^0,w,c
 14173  006464  B4D8               	btfsc	status,2,c
 14174  006466  EF37  F032         	goto	u8071
 14175  00646A  EF39  F032         	goto	u8070
 14176  00646E                     u8071:
 14177  00646E  EF3D  F032         	goto	l6506
 14178  006472                     u8070:
 14179  006472  6C18               	negf	___awdiv@quotient^0,c
 14180  006474  1E19               	comf	(___awdiv@quotient+1)^0,f,c
 14181  006476  B0D8               	btfsc	status,0,c
 14182  006478  2A19               	incf	(___awdiv@quotient+1)^0,f,c
 14183  00647A                     l6506:
 14184  00647A  C018  F012         	movff	___awdiv@quotient,?___awdiv
 14185  00647E  C019  F013         	movff	___awdiv@quotient+1,?___awdiv+1
 14186  006482  0012               	return		;funcret
 14187  006484                     __end_of___awdiv:
 14188                           	callstack 0
 14189                           
 14190 ;; *************** function _GetString *****************
 14191 ;; Defined at:
 14192 ;;		line 46 in file "setting_hardaware/uart.c"
 14193 ;; Parameters:    Size  Location     Type
 14194 ;;		None
 14195 ;; Auto vars:     Size  Location     Type
 14196 ;;		None
 14197 ;; Return value:  Size  Location     Type
 14198 ;;                  2   17[COMRAM] PTR unsigned char 
 14199 ;; Registers used:
 14200 ;;		wreg, status,2, status,0
 14201 ;; Tracked objects:
 14202 ;;		On entry : 0/0
 14203 ;;		On exit  : 0/0
 14204 ;;		Unchanged: 0/0
 14205 ;; Data sizes:     COMRAM   BANK0   BANK1   BANK2   BANK3   BANK4   BANK5
 14206 ;;      Params:         2       0       0       0       0       0       0
 14207 ;;      Locals:         0       0       0       0       0       0       0
 14208 ;;      Temps:          0       0       0       0       0       0       0
 14209 ;;      Totals:         2       0       0       0       0       0       0
 14210 ;;Total ram usage:        2 bytes
 14211 ;; Hardware stack levels used:    1
 14212 ;; Hardware stack levels required when called:    4
 14213 ;; This function calls:
 14214 ;;		Nothing
 14215 ;; This function is called by:
 14216 ;;		_set_time
 14217 ;;		_main
 14218 ;;		_motor
 14219 ;; This function uses a non-reentrant model
 14220 ;;
 14221                           
 14222                           	psect	text37
 14223  006CA2                     __ptext37:
 14224                           	callstack 0
 14225  006CA2                     _GetString:
 14226                           	callstack 25
 14227  006CA2                     
 14228                           ;setting_hardaware/uart.c: 47:     return mystring;
 14229  006CA2  0E6C               	movlw	low _mystring
 14230  006CA4  6E12               	movwf	?_GetString^0,c
 14231  006CA6  0E02               	movlw	high _mystring
 14232  006CA8  6E13               	movwf	(?_GetString+1)^0,c
 14233  006CAA  0012               	return		;funcret
 14234  006CAC                     __end_of_GetString:
 14235                           	callstack 0
 14236                           
 14237 ;; *************** function _ClearBuffer *****************
 14238 ;; Defined at:
 14239 ;;		line 55 in file "setting_hardaware/uart.c"
 14240 ;; Parameters:    Size  Location     Type
 14241 ;;		None
 14242 ;; Auto vars:     Size  Location     Type
 14243 ;;  i               2   17[COMRAM] int 
 14244 ;; Return value:  Size  Location     Type
 14245 ;;                  1    wreg      void 
 14246 ;; Registers used:
 14247 ;;		wreg, fsr2l, fsr2h, status,2, status,0
 14248 ;; Tracked objects:
 14249 ;;		On entry : 0/0
 14250 ;;		On exit  : 0/0
 14251 ;;		Unchanged: 0/0
 14252 ;; Data sizes:     COMRAM   BANK0   BANK1   BANK2   BANK3   BANK4   BANK5
 14253 ;;      Params:         0       0       0       0       0       0       0
 14254 ;;      Locals:         2       0       0       0       0       0       0
 14255 ;;      Temps:          0       0       0       0       0       0       0
 14256 ;;      Totals:         2       0       0       0       0       0       0
 14257 ;;Total ram usage:        2 bytes
 14258 ;; Hardware stack levels used:    1
 14259 ;; Hardware stack levels required when called:    4
 14260 ;; This function calls:
 14261 ;;		Nothing
 14262 ;; This function is called by:
 14263 ;;		_set_time
 14264 ;;		_main
 14265 ;;		_motor
 14266 ;; This function uses a non-reentrant model
 14267 ;;
 14268                           
 14269                           	psect	text38
 14270  006A3A                     __ptext38:
 14271                           	callstack 0
 14272  006A3A                     _ClearBuffer:
 14273                           	callstack 25
 14274  006A3A                     
 14275                           ;setting_hardaware/uart.c: 56:     for(int i = 0; i < 10 ; i++)
 14276  006A3A  0E00               	movlw	0
 14277  006A3C  6E13               	movwf	(ClearBuffer@i+1)^0,c
 14278  006A3E  0E00               	movlw	0
 14279  006A40  6E12               	movwf	ClearBuffer@i^0,c
 14280  006A42                     l7414:
 14281                           
 14282                           ;setting_hardaware/uart.c: 57:         mystring[i] = '\0';
 14283  006A42  0E6C               	movlw	low _mystring
 14284  006A44  2412               	addwf	ClearBuffer@i^0,w,c
 14285  006A46  6ED9               	movwf	fsr2l,c
 14286  006A48  0E02               	movlw	high _mystring
 14287  006A4A  2013               	addwfc	(ClearBuffer@i+1)^0,w,c
 14288  006A4C  6EDA               	movwf	fsr2h,c
 14289  006A4E  0E00               	movlw	0
 14290  006A50  6EDF               	movwf	indf2,c
 14291  006A52  4A12               	infsnz	ClearBuffer@i^0,f,c
 14292  006A54  2A13               	incf	(ClearBuffer@i+1)^0,f,c
 14293  006A56  BE13               	btfsc	(ClearBuffer@i+1)^0,7,c
 14294  006A58  EF37  F035         	goto	u9691
 14295  006A5C  5013               	movf	(ClearBuffer@i+1)^0,w,c
 14296  006A5E  E109               	bnz	u9690
 14297  006A60  0E0A               	movlw	10
 14298  006A62  5C12               	subwf	ClearBuffer@i^0,w,c
 14299  006A64  A0D8               	btfss	status,0,c
 14300  006A66  EF37  F035         	goto	u9691
 14301  006A6A  EF39  F035         	goto	u9690
 14302  006A6E                     u9691:
 14303  006A6E  EF21  F035         	goto	l7414
 14304  006A72                     u9690:
 14305  006A72                     
 14306                           ;setting_hardaware/uart.c: 58:     lenStr = 0;
 14307  006A72  0E00               	movlw	0
 14308  006A74  6E6D               	movwf	(_lenStr+1)^0,c
 14309  006A76  0E00               	movlw	0
 14310  006A78  6E6C               	movwf	_lenStr^0,c
 14311  006A7A  0012               	return		;funcret
 14312  006A7C                     __end_of_ClearBuffer:
 14313                           	callstack 0
 14314                           
 14315 ;; *************** function _delay *****************
 14316 ;; Defined at:
 14317 ;;		line 14 in file "main.c"
 14318 ;; Parameters:    Size  Location     Type
 14319 ;;  val             2   17[COMRAM] unsigned int 
 14320 ;; Auto vars:     Size  Location     Type
 14321 ;;  j               2   21[COMRAM] unsigned int 
 14322 ;;  i               2   19[COMRAM] unsigned int 
 14323 ;; Return value:  Size  Location     Type
 14324 ;;                  1    wreg      void 
 14325 ;; Registers used:
 14326 ;;		wreg, status,2, status,0
 14327 ;; Tracked objects:
 14328 ;;		On entry : 0/0
 14329 ;;		On exit  : 0/0
 14330 ;;		Unchanged: 0/0
 14331 ;; Data sizes:     COMRAM   BANK0   BANK1   BANK2   BANK3   BANK4   BANK5
 14332 ;;      Params:         2       0       0       0       0       0       0
 14333 ;;      Locals:         4       0       0       0       0       0       0
 14334 ;;      Temps:          0       0       0       0       0       0       0
 14335 ;;      Totals:         6       0       0       0       0       0       0
 14336 ;;Total ram usage:        6 bytes
 14337 ;; Hardware stack levels used:    1
 14338 ;; Hardware stack levels required when called:    4
 14339 ;; This function calls:
 14340 ;;		Nothing
 14341 ;; This function is called by:
 14342 ;;		_main
 14343 ;;		_motor
 14344 ;; This function uses a non-reentrant model
 14345 ;;
 14346                           
 14347                           	psect	text39
 14348  006922                     __ptext39:
 14349                           	callstack 0
 14350  006922                     _delay:
 14351                           	callstack 26
 14352  006922                     
 14353                           ;main.c: 14: void delay(unsigned int val);main.c: 15: {;main.c: 16:      unsigned int i,
      +                          j;;main.c: 17:         for(i=0;i<val;i++)
 14354  006922  0E00               	movlw	0
 14355  006924  6E15               	movwf	(delay@i+1)^0,c
 14356  006926  0E00               	movlw	0
 14357  006928  6E14               	movwf	delay@i^0,c
 14358  00692A  EFAA  F034         	goto	l7910
 14359  00692E                     l7898:
 14360                           
 14361                           ;main.c: 18:             for(j=0;j<165;j++);
 14362  00692E  0E00               	movlw	0
 14363  006930  6E17               	movwf	(delay@j+1)^0,c
 14364  006932  0E00               	movlw	0
 14365  006934  6E16               	movwf	delay@j^0,c
 14366  006936                     l7904:
 14367  006936  4A16               	infsnz	delay@j^0,f,c
 14368  006938  2A17               	incf	(delay@j+1)^0,f,c
 14369  00693A  5017               	movf	(delay@j+1)^0,w,c
 14370  00693C  E109               	bnz	u10290
 14371  00693E  0EA5               	movlw	165
 14372  006940  5C16               	subwf	delay@j^0,w,c
 14373  006942  A0D8               	btfss	status,0,c
 14374  006944  EFA6  F034         	goto	u10291
 14375  006948  EFA8  F034         	goto	u10290
 14376  00694C                     u10291:
 14377  00694C  EF9B  F034         	goto	l7904
 14378  006950                     u10290:
 14379  006950  4A14               	infsnz	delay@i^0,f,c
 14380  006952  2A15               	incf	(delay@i+1)^0,f,c
 14381  006954                     l7910:
 14382  006954  5012               	movf	delay@val^0,w,c
 14383  006956  5C14               	subwf	delay@i^0,w,c
 14384  006958  5013               	movf	(delay@val+1)^0,w,c
 14385  00695A  5815               	subwfb	(delay@i+1)^0,w,c
 14386  00695C  A0D8               	btfss	status,0,c
 14387  00695E  EFB3  F034         	goto	u10301
 14388  006962  EFB5  F034         	goto	u10300
 14389  006966                     u10301:
 14390  006966  EF97  F034         	goto	l7898
 14391  00696A                     u10300:
 14392  00696A  0012               	return		;funcret
 14393  00696C                     __end_of_delay:
 14394                           	callstack 0
 14395                           
 14396 ;; *************** function _SYSTEM_Initialize *****************
 14397 ;; Defined at:
 14398 ;;		line 60 in file "setting_hardaware/setting.c"
 14399 ;; Parameters:    Size  Location     Type
 14400 ;;		None
 14401 ;; Auto vars:     Size  Location     Type
 14402 ;;		None
 14403 ;; Return value:  Size  Location     Type
 14404 ;;                  1    wreg      void 
 14405 ;; Registers used:
 14406 ;;		wreg, status,2, cstack
 14407 ;; Tracked objects:
 14408 ;;		On entry : 0/0
 14409 ;;		On exit  : 0/0
 14410 ;;		Unchanged: 0/0
 14411 ;; Data sizes:     COMRAM   BANK0   BANK1   BANK2   BANK3   BANK4   BANK5
 14412 ;;      Params:         0       0       0       0       0       0       0
 14413 ;;      Locals:         0       0       0       0       0       0       0
 14414 ;;      Temps:          0       0       0       0       0       0       0
 14415 ;;      Totals:         0       0       0       0       0       0       0
 14416 ;;Total ram usage:        0 bytes
 14417 ;; Hardware stack levels used:    1
 14418 ;; Hardware stack levels required when called:    5
 14419 ;; This function calls:
 14420 ;;		_ADC_Initialize
 14421 ;;		_CCP1_Initialize
 14422 ;;		_INTERRUPT_Initialize
 14423 ;;		_OSCILLATOR_Initialize
 14424 ;;		_UART_Initialize
 14425 ;; This function is called by:
 14426 ;;		_main
 14427 ;; This function uses a non-reentrant model
 14428 ;;
 14429                           
 14430                           	psect	text40
 14431  006C60                     __ptext40:
 14432                           	callstack 0
 14433  006C60                     _SYSTEM_Initialize:
 14434                           	callstack 25
 14435  006C60                     
 14436                           ;setting_hardaware/setting.c: 63:     OSCILLATOR_Initialize();
 14437  006C60  EC56  F036         	call	_OSCILLATOR_Initialize	;wreg free
 14438                           
 14439                           ;setting_hardaware/setting.c: 67:     INTERRUPT_Initialize();
 14440  006C64  EC5A  F036         	call	_INTERRUPT_Initialize	;wreg free
 14441  006C68                     
 14442                           ;setting_hardaware/setting.c: 68:     UART_Initialize();
 14443  006C68  EC1F  F036         	call	_UART_Initialize	;wreg free
 14444  006C6C                     
 14445                           ;setting_hardaware/setting.c: 69:     CCP1_Initialize();
 14446  006C6C  EC5F  F036         	call	_CCP1_Initialize	;wreg free
 14447                           
 14448                           ;setting_hardaware/setting.c: 70:     ADC_Initialize();
 14449  006C70  EC3B  F036         	call	_ADC_Initialize	;wreg free
 14450  006C74  0012               	return		;funcret
 14451  006C76                     __end_of_SYSTEM_Initialize:
 14452                           	callstack 0
 14453                           
 14454 ;; *************** function _UART_Initialize *****************
 14455 ;; Defined at:
 14456 ;;		line 7 in file "setting_hardaware/uart.c"
 14457 ;; Parameters:    Size  Location     Type
 14458 ;;		None
 14459 ;; Auto vars:     Size  Location     Type
 14460 ;;		None
 14461 ;; Return value:  Size  Location     Type
 14462 ;;                  1    wreg      void 
 14463 ;; Registers used:
 14464 ;;		wreg, status,2
 14465 ;; Tracked objects:
 14466 ;;		On entry : 0/0
 14467 ;;		On exit  : 0/0
 14468 ;;		Unchanged: 0/0
 14469 ;; Data sizes:     COMRAM   BANK0   BANK1   BANK2   BANK3   BANK4   BANK5
 14470 ;;      Params:         0       0       0       0       0       0       0
 14471 ;;      Locals:         0       0       0       0       0       0       0
 14472 ;;      Temps:          0       0       0       0       0       0       0
 14473 ;;      Totals:         0       0       0       0       0       0       0
 14474 ;;Total ram usage:        0 bytes
 14475 ;; Hardware stack levels used:    1
 14476 ;; Hardware stack levels required when called:    4
 14477 ;; This function calls:
 14478 ;;		Nothing
 14479 ;; This function is called by:
 14480 ;;		_SYSTEM_Initialize
 14481 ;; This function uses a non-reentrant model
 14482 ;;
 14483                           
 14484                           	psect	text41
 14485  006C3E                     __ptext41:
 14486                           	callstack 0
 14487  006C3E                     _UART_Initialize:
 14488                           	callstack 25
 14489  006C3E                     
 14490                           ;setting_hardaware/uart.c: 10:     TRISCbits.TRISC6 = 1;
 14491  006C3E  8C94               	bsf	148,6,c	;volatile
 14492                           
 14493                           ;setting_hardaware/uart.c: 11:     TRISCbits.TRISC7 = 1;
 14494  006C40  8E94               	bsf	148,7,c	;volatile
 14495                           
 14496                           ;setting_hardaware/uart.c: 22:     TXSTAbits.SYNC = 0;
 14497  006C42  98AC               	bcf	172,4,c	;volatile
 14498                           
 14499                           ;setting_hardaware/uart.c: 23:     BAUDCONbits.BRG16 = 0 ;
 14500  006C44  96B8               	bcf	184,3,c	;volatile
 14501                           
 14502                           ;setting_hardaware/uart.c: 24:     TXSTAbits.BRGH = 1;
 14503  006C46  84AC               	bsf	172,2,c	;volatile
 14504  006C48                     
 14505                           ;setting_hardaware/uart.c: 25:     SPBRG = 25;
 14506  006C48  0E19               	movlw	25
 14507  006C4A  6EAF               	movwf	175,c	;volatile
 14508  006C4C                     
 14509                           ;setting_hardaware/uart.c: 28:     RCSTAbits.SPEN = 1;
 14510  006C4C  8EAB               	bsf	171,7,c	;volatile
 14511  006C4E                     
 14512                           ;setting_hardaware/uart.c: 29:     PIR1bits.TXIF = 1;
 14513  006C4E  889E               	bsf	158,4,c	;volatile
 14514  006C50                     
 14515                           ;setting_hardaware/uart.c: 30:     PIR1bits.RCIF = 0;
 14516  006C50  9A9E               	bcf	158,5,c	;volatile
 14517  006C52                     
 14518                           ;setting_hardaware/uart.c: 31:     TXSTAbits.TXEN = 1;
 14519  006C52  8AAC               	bsf	172,5,c	;volatile
 14520  006C54                     
 14521                           ;setting_hardaware/uart.c: 32:     RCSTAbits.CREN = 1;
 14522  006C54  88AB               	bsf	171,4,c	;volatile
 14523  006C56                     
 14524                           ;setting_hardaware/uart.c: 34:     PIE1bits.TXIE = 0;
 14525  006C56  989D               	bcf	157,4,c	;volatile
 14526  006C58                     
 14527                           ;setting_hardaware/uart.c: 35:     IPR1bits.TXIP = 0;
 14528  006C58  989F               	bcf	159,4,c	;volatile
 14529  006C5A                     
 14530                           ;setting_hardaware/uart.c: 36:     PIE1bits.RCIE = 1;
 14531  006C5A  8A9D               	bsf	157,5,c	;volatile
 14532  006C5C                     
 14533                           ;setting_hardaware/uart.c: 37:     IPR1bits.RCIP = 0;
 14534  006C5C  9A9F               	bcf	159,5,c	;volatile
 14535  006C5E  0012               	return		;funcret
 14536  006C60                     __end_of_UART_Initialize:
 14537                           	callstack 0
 14538                           
 14539 ;; *************** function _OSCILLATOR_Initialize *****************
 14540 ;; Defined at:
 14541 ;;		line 73 in file "setting_hardaware/setting.c"
 14542 ;; Parameters:    Size  Location     Type
 14543 ;;		None
 14544 ;; Auto vars:     Size  Location     Type
 14545 ;;		None
 14546 ;; Return value:  Size  Location     Type
 14547 ;;                  1    wreg      void 
 14548 ;; Registers used:
 14549 ;;		None
 14550 ;; Tracked objects:
 14551 ;;		On entry : 0/0
 14552 ;;		On exit  : 0/0
 14553 ;;		Unchanged: 0/0
 14554 ;; Data sizes:     COMRAM   BANK0   BANK1   BANK2   BANK3   BANK4   BANK5
 14555 ;;      Params:         0       0       0       0       0       0       0
 14556 ;;      Locals:         0       0       0       0       0       0       0
 14557 ;;      Temps:          0       0       0       0       0       0       0
 14558 ;;      Totals:         0       0       0       0       0       0       0
 14559 ;;Total ram usage:        0 bytes
 14560 ;; Hardware stack levels used:    1
 14561 ;; Hardware stack levels required when called:    4
 14562 ;; This function calls:
 14563 ;;		Nothing
 14564 ;; This function is called by:
 14565 ;;		_SYSTEM_Initialize
 14566 ;; This function uses a non-reentrant model
 14567 ;;
 14568                           
 14569                           	psect	text42
 14570  006CAC                     __ptext42:
 14571                           	callstack 0
 14572  006CAC                     _OSCILLATOR_Initialize:
 14573                           	callstack 25
 14574  006CAC                     
 14575                           ;setting_hardaware/setting.c: 75:     IRCF2 = 1;
 14576  006CAC  8CD3               	bsf	4051,6,c	;volatile
 14577                           
 14578                           ;setting_hardaware/setting.c: 76:     IRCF1 = 0;
 14579  006CAE  9AD3               	bcf	4051,5,c	;volatile
 14580                           
 14581                           ;setting_hardaware/setting.c: 77:     IRCF0 = 0;
 14582  006CB0  98D3               	bcf	4051,4,c	;volatile
 14583  006CB2  0012               	return		;funcret
 14584  006CB4                     __end_of_OSCILLATOR_Initialize:
 14585                           	callstack 0
 14586                           
 14587 ;; *************** function _INTERRUPT_Initialize *****************
 14588 ;; Defined at:
 14589 ;;		line 3 in file "setting_hardaware/interrupt_manager.c"
 14590 ;; Parameters:    Size  Location     Type
 14591 ;;		None
 14592 ;; Auto vars:     Size  Location     Type
 14593 ;;		None
 14594 ;; Return value:  Size  Location     Type
 14595 ;;                  1    wreg      void 
 14596 ;; Registers used:
 14597 ;;		None
 14598 ;; Tracked objects:
 14599 ;;		On entry : 0/0
 14600 ;;		On exit  : 0/0
 14601 ;;		Unchanged: 0/0
 14602 ;; Data sizes:     COMRAM   BANK0   BANK1   BANK2   BANK3   BANK4   BANK5
 14603 ;;      Params:         0       0       0       0       0       0       0
 14604 ;;      Locals:         0       0       0       0       0       0       0
 14605 ;;      Temps:          0       0       0       0       0       0       0
 14606 ;;      Totals:         0       0       0       0       0       0       0
 14607 ;;Total ram usage:        0 bytes
 14608 ;; Hardware stack levels used:    1
 14609 ;; Hardware stack levels required when called:    4
 14610 ;; This function calls:
 14611 ;;		Nothing
 14612 ;; This function is called by:
 14613 ;;		_SYSTEM_Initialize
 14614 ;; This function uses a non-reentrant model
 14615 ;;
 14616                           
 14617                           	psect	text43
 14618  006CB4                     __ptext43:
 14619                           	callstack 0
 14620  006CB4                     _INTERRUPT_Initialize:
 14621                           	callstack 25
 14622  006CB4                     
 14623                           ;setting_hardaware/interrupt_manager.c: 6:     RCONbits.IPEN = 1;
 14624  006CB4  8ED0               	bsf	208,7,c	;volatile
 14625                           
 14626                           ;setting_hardaware/interrupt_manager.c: 7:     INTCONbits.GIEH = 1;
 14627  006CB6  8EF2               	bsf	242,7,c	;volatile
 14628                           
 14629                           ;setting_hardaware/interrupt_manager.c: 8:     INTCONbits.GIEL = 1;
 14630  006CB8  8CF2               	bsf	242,6,c	;volatile
 14631  006CBA  0012               	return		;funcret
 14632  006CBC                     __end_of_INTERRUPT_Initialize:
 14633                           	callstack 0
 14634                           
 14635 ;; *************** function _CCP1_Initialize *****************
 14636 ;; Defined at:
 14637 ;;		line 3 in file "setting_hardaware/ccp1.c"
 14638 ;; Parameters:    Size  Location     Type
 14639 ;;		None
 14640 ;; Auto vars:     Size  Location     Type
 14641 ;;		None
 14642 ;; Return value:  Size  Location     Type
 14643 ;;                  1    wreg      void 
 14644 ;; Registers used:
 14645 ;;		None
 14646 ;; Tracked objects:
 14647 ;;		On entry : 0/0
 14648 ;;		On exit  : 0/0
 14649 ;;		Unchanged: 0/0
 14650 ;; Data sizes:     COMRAM   BANK0   BANK1   BANK2   BANK3   BANK4   BANK5
 14651 ;;      Params:         0       0       0       0       0       0       0
 14652 ;;      Locals:         0       0       0       0       0       0       0
 14653 ;;      Temps:          0       0       0       0       0       0       0
 14654 ;;      Totals:         0       0       0       0       0       0       0
 14655 ;;Total ram usage:        0 bytes
 14656 ;; Hardware stack levels used:    1
 14657 ;; Hardware stack levels required when called:    4
 14658 ;; This function calls:
 14659 ;;		Nothing
 14660 ;; This function is called by:
 14661 ;;		_SYSTEM_Initialize
 14662 ;; This function uses a non-reentrant model
 14663 ;;
 14664                           
 14665                           	psect	text44
 14666  006CBE                     __ptext44:
 14667                           	callstack 0
 14668  006CBE                     _CCP1_Initialize:
 14669                           	callstack 25
 14670  006CBE  0012               	return		;funcret
 14671  006CC0                     __end_of_CCP1_Initialize:
 14672                           	callstack 0
 14673                           
 14674 ;; *************** function _ADC_Initialize *****************
 14675 ;; Defined at:
 14676 ;;		line 3 in file "setting_hardaware/adc.c"
 14677 ;; Parameters:    Size  Location     Type
 14678 ;;		None
 14679 ;; Auto vars:     Size  Location     Type
 14680 ;;		None
 14681 ;; Return value:  Size  Location     Type
 14682 ;;                  1    wreg      void 
 14683 ;; Registers used:
 14684 ;;		wreg, status,2
 14685 ;; Tracked objects:
 14686 ;;		On entry : 0/0
 14687 ;;		On exit  : 0/0
 14688 ;;		Unchanged: 0/0
 14689 ;; Data sizes:     COMRAM   BANK0   BANK1   BANK2   BANK3   BANK4   BANK5
 14690 ;;      Params:         0       0       0       0       0       0       0
 14691 ;;      Locals:         0       0       0       0       0       0       0
 14692 ;;      Temps:          0       0       0       0       0       0       0
 14693 ;;      Totals:         0       0       0       0       0       0       0
 14694 ;;Total ram usage:        0 bytes
 14695 ;; Hardware stack levels used:    1
 14696 ;; Hardware stack levels required when called:    4
 14697 ;; This function calls:
 14698 ;;		Nothing
 14699 ;; This function is called by:
 14700 ;;		_SYSTEM_Initialize
 14701 ;; This function uses a non-reentrant model
 14702 ;;
 14703                           
 14704                           	psect	text45
 14705  006C76                     __ptext45:
 14706                           	callstack 0
 14707  006C76                     _ADC_Initialize:
 14708                           	callstack 25
 14709  006C76                     
 14710                           ;setting_hardaware/adc.c: 4:     TRISA = 0xff;
 14711  006C76  6892               	setf	146,c	;volatile
 14712  006C78                     
 14713                           ;setting_hardaware/adc.c: 5:     ADCON1 = 0x0F;
 14714  006C78  0E0F               	movlw	15
 14715  006C7A  6EC1               	movwf	193,c	;volatile
 14716  006C7C                     
 14717                           ;setting_hardaware/adc.c: 7:     ADFM = 1 ;
 14718  006C7C  8EC0               	bsf	4032,7,c	;volatile
 14719                           
 14720                           ;setting_hardaware/adc.c: 8:     ADCON2bits.ADCS = 7;
 14721  006C7E  0E07               	movlw	7
 14722  006C80  12C0               	iorwf	192,f,c	;volatile
 14723                           
 14724                           ;setting_hardaware/adc.c: 9:     ADRESH=0;
 14725  006C82  0E00               	movlw	0
 14726  006C84  6EC4               	movwf	196,c	;volatile
 14727                           
 14728                           ;setting_hardaware/adc.c: 10:     ADRESL=0;
 14729  006C86  0E00               	movlw	0
 14730  006C88  6EC3               	movwf	195,c	;volatile
 14731  006C8A  0012               	return		;funcret
 14732  006C8C                     __end_of_ADC_Initialize:
 14733                           	callstack 0
 14734                           
 14735 ;; *************** function _ADC_Read *****************
 14736 ;; Defined at:
 14737 ;;		line 13 in file "setting_hardaware/adc.c"
 14738 ;; Parameters:    Size  Location     Type
 14739 ;;  channel         2   17[COMRAM] int 
 14740 ;; Auto vars:     Size  Location     Type
 14741 ;;  digital         2   21[COMRAM] int 
 14742 ;; Return value:  Size  Location     Type
 14743 ;;                  2   17[COMRAM] int 
 14744 ;; Registers used:
 14745 ;;		wreg, status,2, status,0
 14746 ;; Tracked objects:
 14747 ;;		On entry : 0/0
 14748 ;;		On exit  : 0/0
 14749 ;;		Unchanged: 0/0
 14750 ;; Data sizes:     COMRAM   BANK0   BANK1   BANK2   BANK3   BANK4   BANK5
 14751 ;;      Params:         2       0       0       0       0       0       0
 14752 ;;      Locals:         2       0       0       0       0       0       0
 14753 ;;      Temps:          2       0       0       0       0       0       0
 14754 ;;      Totals:         6       0       0       0       0       0       0
 14755 ;;Total ram usage:        6 bytes
 14756 ;; Hardware stack levels used:    1
 14757 ;; Hardware stack levels required when called:    4
 14758 ;; This function calls:
 14759 ;;		Nothing
 14760 ;; This function is called by:
 14761 ;;		_main
 14762 ;;		_motor
 14763 ;; This function uses a non-reentrant model
 14764 ;;
 14765                           
 14766                           	psect	text46
 14767  006B5A                     __ptext46:
 14768                           	callstack 0
 14769  006B5A                     _ADC_Read:
 14770                           	callstack 26
 14771  006B5A                     
 14772                           ;setting_hardaware/adc.c: 13: int ADC_Read(int channel);setting_hardaware/adc.c: 14: {;s
      +                          etting_hardaware/adc.c: 15:     int digital;;setting_hardaware/adc.c: 17:     ADCON0bits
      +                          .CHS = 0x00;
 14773  006B5A  0EC3               	movlw	-61
 14774  006B5C  16C2               	andwf	194,f,c	;volatile
 14775  006B5E                     
 14776                           ;setting_hardaware/adc.c: 18:     ADCON0bits.GO = 1;
 14777  006B5E  82C2               	bsf	194,1,c	;volatile
 14778  006B60                     
 14779                           ;setting_hardaware/adc.c: 19:     ADCON0bits.ADON = 1;
 14780  006B60  80C2               	bsf	194,0,c	;volatile
 14781  006B62                     l115:
 14782  006B62  B2C2               	btfsc	194,1,c	;volatile
 14783  006B64  EFB6  F035         	goto	u10281
 14784  006B68  EFB8  F035         	goto	u10280
 14785  006B6C                     u10281:
 14786  006B6C  EFB1  F035         	goto	l115
 14787  006B70                     u10280:
 14788  006B70                     
 14789                           ;setting_hardaware/adc.c: 23:     digital = (ADRESH*256) | (ADRESL);
 14790  006B70  50C3               	movf	195,w,c	;volatile
 14791  006B72  CFC4 F014          	movff	4036,??_ADC_Read	;volatile
 14792  006B76  6A15               	clrf	(??_ADC_Read+1)^0,c
 14793  006B78  C014  F015         	movff	??_ADC_Read,??_ADC_Read+1
 14794  006B7C  6A14               	clrf	??_ADC_Read^0,c
 14795  006B7E  1014               	iorwf	??_ADC_Read^0,w,c
 14796  006B80  6E16               	movwf	ADC_Read@digital^0,c
 14797  006B82  5015               	movf	(??_ADC_Read+1)^0,w,c
 14798  006B84  6E17               	movwf	(ADC_Read@digital+1)^0,c
 14799  006B86                     
 14800                           ;setting_hardaware/adc.c: 24:     return(digital);
 14801  006B86  C016  F012         	movff	ADC_Read@digital,?_ADC_Read
 14802  006B8A  C017  F013         	movff	ADC_Read@digital+1,?_ADC_Read+1
 14803  006B8E  0012               	return		;funcret
 14804  006B90                     __end_of_ADC_Read:
 14805                           	callstack 0
 14806                           
 14807 ;; *************** function _Lo_ISR *****************
 14808 ;; Defined at:
 14809 ;;		line 75 in file "setting_hardaware/uart.c"
 14810 ;; Parameters:    Size  Location     Type
 14811 ;;		None
 14812 ;; Auto vars:     Size  Location     Type
 14813 ;;		None
 14814 ;; Return value:  Size  Location     Type
 14815 ;;                  1    wreg      void 
 14816 ;; Registers used:
 14817 ;;		wreg, fsr2l, fsr2h, status,2, status,0, cstack
 14818 ;; Tracked objects:
 14819 ;;		On entry : 0/0
 14820 ;;		On exit  : 0/0
 14821 ;;		Unchanged: 0/0
 14822 ;; Data sizes:     COMRAM   BANK0   BANK1   BANK2   BANK3   BANK4   BANK5
 14823 ;;      Params:         0       0       0       0       0       0       0
 14824 ;;      Locals:         0       0       0       0       0       0       0
 14825 ;;      Temps:          5       0       0       0       0       0       0
 14826 ;;      Totals:         5       0       0       0       0       0       0
 14827 ;;Total ram usage:        5 bytes
 14828 ;; Hardware stack levels used:    1
 14829 ;; Hardware stack levels required when called:    3
 14830 ;; This function calls:
 14831 ;;		_MyusartRead
 14832 ;; This function is called by:
 14833 ;;		Interrupt level 1
 14834 ;; This function uses a non-reentrant model
 14835 ;;
 14836                           
 14837                           	psect	intcodelo
 14838  000018                     __pintcodelo:
 14839                           	callstack 0
 14840  000018                     _Lo_ISR:
 14841                           	callstack 19
 14842                           
 14843                           ;incstack = 0
 14844  000018  806E               	bsf	int$flags,0,c	;set compiler interrupt flag (level 1)
 14845  00001A  CFD8 F00D          	movff	status,??_Lo_ISR
 14846  00001E  CFE8 F00E          	movff	wreg,??_Lo_ISR+1
 14847  000022  CFE0 F00F          	movff	bsr,??_Lo_ISR+2
 14848  000026  CFD9 F010          	movff	fsr2l,??_Lo_ISR+3
 14849  00002A  CFDA F011          	movff	fsr2h,??_Lo_ISR+4
 14850  00002E                     
 14851                           ;setting_hardaware/uart.c: 77:     if(RCIF)
 14852  00002E  AA9E               	btfss	3998,5,c	;volatile
 14853  000030  EF1C  F000         	goto	i1u694_21
 14854  000034  EF1E  F000         	goto	i1u694_20
 14855  000038                     i1u694_21:
 14856  000038  EF2A  F000         	goto	i1l85
 14857  00003C                     i1u694_20:
 14858  00003C                     
 14859                           ;setting_hardaware/uart.c: 78:     {;setting_hardaware/uart.c: 79:         if(RCSTAbits.
      +                          OERR)
 14860  00003C  A2AB               	btfss	171,1,c	;volatile
 14861  00003E  EF23  F000         	goto	i1u695_21
 14862  000042  EF25  F000         	goto	i1u695_20
 14863  000046                     i1u695_21:
 14864  000046  EF28  F000         	goto	i1l5808
 14865  00004A                     i1u695_20:
 14866  00004A                     
 14867                           ;setting_hardaware/uart.c: 80:         {;setting_hardaware/uart.c: 81:             CREN 
      +                          = 0;
 14868  00004A  98AB               	bcf	4011,4,c	;volatile
 14869                           
 14870                           ;setting_hardaware/uart.c: 82:             __nop();
 14871  00004C  F000               	nop	
 14872                           
 14873                           ;setting_hardaware/uart.c: 83:             CREN = 1;
 14874  00004E  88AB               	bsf	4011,4,c	;volatile
 14875  000050                     i1l5808:
 14876                           
 14877                           ;setting_hardaware/uart.c: 86:         MyusartRead();
 14878  000050  ECFB  F034         	call	_MyusartRead	;wreg free
 14879  000054                     i1l85:
 14880  000054  C011  FFDA         	movff	??_Lo_ISR+4,fsr2h
 14881  000058  C010  FFD9         	movff	??_Lo_ISR+3,fsr2l
 14882  00005C  C00F  FFE0         	movff	??_Lo_ISR+2,bsr
 14883  000060  C00E  FFE8         	movff	??_Lo_ISR+1,wreg
 14884  000064  C00D  FFD8         	movff	??_Lo_ISR,status
 14885  000068  906E               	bcf	int$flags,0,c	;clear compiler interrupt flag (level 1)
 14886  00006A  0010               	retfie	
 14887  00006C                     __end_of_Lo_ISR:
 14888                           	callstack 0
 14889                           
 14890 ;; *************** function _MyusartRead *****************
 14891 ;; Defined at:
 14892 ;;		line 61 in file "setting_hardaware/uart.c"
 14893 ;; Parameters:    Size  Location     Type
 14894 ;;		None
 14895 ;; Auto vars:     Size  Location     Type
 14896 ;;		None
 14897 ;; Return value:  Size  Location     Type
 14898 ;;                  1    wreg      void 
 14899 ;; Registers used:
 14900 ;;		wreg, fsr2l, fsr2h, status,2, status,0, cstack
 14901 ;; Tracked objects:
 14902 ;;		On entry : 0/0
 14903 ;;		On exit  : 0/0
 14904 ;;		Unchanged: 0/0
 14905 ;; Data sizes:     COMRAM   BANK0   BANK1   BANK2   BANK3   BANK4   BANK5
 14906 ;;      Params:         0       0       0       0       0       0       0
 14907 ;;      Locals:         0       0       0       0       0       0       0
 14908 ;;      Temps:          0       0       0       0       0       0       0
 14909 ;;      Totals:         0       0       0       0       0       0       0
 14910 ;;Total ram usage:        0 bytes
 14911 ;; Hardware stack levels used:    1
 14912 ;; Hardware stack levels required when called:    2
 14913 ;; This function calls:
 14914 ;;		_UART_Write
 14915 ;;		i1___awmod
 14916 ;; This function is called by:
 14917 ;;		_Lo_ISR
 14918 ;; This function uses a non-reentrant model
 14919 ;;
 14920                           
 14921                           	psect	text48
 14922  0069F6                     __ptext48:
 14923                           	callstack 0
 14924  0069F6                     _MyusartRead:
 14925                           	callstack 19
 14926  0069F6                     
 14927                           ;setting_hardaware/uart.c: 63:     mystring[lenStr] = RCREG;
 14928  0069F6  0E6C               	movlw	low _mystring
 14929  0069F8  246C               	addwf	_lenStr^0,w,c
 14930  0069FA  6ED9               	movwf	fsr2l,c
 14931  0069FC  0E02               	movlw	high _mystring
 14932  0069FE  206D               	addwfc	(_lenStr+1)^0,w,c
 14933  006A00  6EDA               	movwf	fsr2h,c
 14934  006A02  CFAE FFDF          	movff	4014,indf2	;volatile
 14935  006A06                     
 14936                           ;setting_hardaware/uart.c: 64:     UART_Write(mystring[lenStr]);
 14937  006A06  0E6C               	movlw	low _mystring
 14938  006A08  246C               	addwf	_lenStr^0,w,c
 14939  006A0A  6ED9               	movwf	fsr2l,c
 14940  006A0C  0E02               	movlw	high _mystring
 14941  006A0E  206D               	addwfc	(_lenStr+1)^0,w,c
 14942  006A10  6EDA               	movwf	fsr2h,c
 14943  006A12  50DF               	movf	indf2,w,c
 14944  006A14  EC46  F036         	call	_UART_Write
 14945  006A18                     
 14946                           ;setting_hardaware/uart.c: 65:     lenStr++;
 14947  006A18  4A6C               	infsnz	_lenStr^0,f,c
 14948  006A1A  2A6D               	incf	(_lenStr+1)^0,f,c
 14949  006A1C                     
 14950                           ;setting_hardaware/uart.c: 66:     lenStr %= 10;
 14951  006A1C  C06C  F007         	movff	_lenStr,i1___awmod@dividend
 14952  006A20  C06D  F008         	movff	_lenStr+1,i1___awmod@dividend+1
 14953  006A24  0E00               	movlw	0
 14954  006A26  6E0A               	movwf	(i1___awmod@divisor+1)^0,c
 14955  006A28  0E0A               	movlw	10
 14956  006A2A  6E09               	movwf	i1___awmod@divisor^0,c
 14957  006A2C  ECFB  F032         	call	i1___awmod	;wreg free
 14958  006A30  C007  F06C         	movff	?i1___awmod,_lenStr
 14959  006A34  C008  F06D         	movff	?i1___awmod+1,_lenStr+1
 14960  006A38  0012               	return		;funcret
 14961  006A3A                     __end_of_MyusartRead:
 14962                           	callstack 0
 14963                           
 14964 ;; *************** function i1___awmod *****************
 14965 ;; Defined at:
 14966 ;;		line 7 in file "C:\Program Files\Microchip\xc8\v2.30\pic\sources\c99\common\awmod.c"
 14967 ;; Parameters:    Size  Location     Type
 14968 ;;  dividend        2    6[COMRAM] int 
 14969 ;;  divisor         2    8[COMRAM] int 
 14970 ;; Auto vars:     Size  Location     Type
 14971 ;;  sign            1   11[COMRAM] unsigned char 
 14972 ;;  counter         1   10[COMRAM] unsigned char 
 14973 ;; Return value:  Size  Location     Type
 14974 ;;                  2    6[COMRAM] int 
 14975 ;; Registers used:
 14976 ;;		wreg, status,2, status,0
 14977 ;; Tracked objects:
 14978 ;;		On entry : 0/0
 14979 ;;		On exit  : 0/0
 14980 ;;		Unchanged: 0/0
 14981 ;; Data sizes:     COMRAM   BANK0   BANK1   BANK2   BANK3   BANK4   BANK5
 14982 ;;      Params:         4       0       0       0       0       0       0
 14983 ;;      Locals:         2       0       0       0       0       0       0
 14984 ;;      Temps:          0       0       0       0       0       0       0
 14985 ;;      Totals:         6       0       0       0       0       0       0
 14986 ;;Total ram usage:        6 bytes
 14987 ;; Hardware stack levels used:    1
 14988 ;; Hardware stack levels required when called:    1
 14989 ;; This function calls:
 14990 ;;		Nothing
 14991 ;; This function is called by:
 14992 ;;		_MyusartRead
 14993 ;; This function uses a non-reentrant model
 14994 ;;
 14995                           
 14996                           	psect	text49
 14997  0065F6                     __ptext49:
 14998                           	callstack 0
 14999  0065F6                     i1___awmod:
 15000                           	callstack 19
 15001  0065F6  0E00               	movlw	0
 15002  0065F8  6E0C               	movwf	i1___awmod@sign^0,c
 15003  0065FA  BE08               	btfsc	(i1___awmod@dividend+1)^0,7,c
 15004  0065FC  EF04  F033         	goto	i1u677_20
 15005  006600  EF02  F033         	goto	i1u677_21
 15006  006604                     i1u677_21:
 15007  006604  EF0A  F033         	goto	i1l5668
 15008  006608                     i1u677_20:
 15009  006608  6C07               	negf	i1___awmod@dividend^0,c
 15010  00660A  1E08               	comf	(i1___awmod@dividend+1)^0,f,c
 15011  00660C  B0D8               	btfsc	status,0,c
 15012  00660E  2A08               	incf	(i1___awmod@dividend+1)^0,f,c
 15013  006610  0E01               	movlw	1
 15014  006612  6E0C               	movwf	i1___awmod@sign^0,c
 15015  006614                     i1l5668:
 15016  006614  BE0A               	btfsc	(i1___awmod@divisor+1)^0,7,c
 15017  006616  EF11  F033         	goto	i1u678_20
 15018  00661A  EF0F  F033         	goto	i1u678_21
 15019  00661E                     i1u678_21:
 15020  00661E  EF15  F033         	goto	i1l5672
 15021  006622                     i1u678_20:
 15022  006622  6C09               	negf	i1___awmod@divisor^0,c
 15023  006624  1E0A               	comf	(i1___awmod@divisor+1)^0,f,c
 15024  006626  B0D8               	btfsc	status,0,c
 15025  006628  2A0A               	incf	(i1___awmod@divisor+1)^0,f,c
 15026  00662A                     i1l5672:
 15027  00662A  5009               	movf	i1___awmod@divisor^0,w,c
 15028  00662C  100A               	iorwf	(i1___awmod@divisor+1)^0,w,c
 15029  00662E  B4D8               	btfsc	status,2,c
 15030  006630  EF1C  F033         	goto	i1u679_21
 15031  006634  EF1E  F033         	goto	i1u679_20
 15032  006638                     i1u679_21:
 15033  006638  EF42  F033         	goto	i1l5688
 15034  00663C                     i1u679_20:
 15035  00663C  0E01               	movlw	1
 15036  00663E  6E0B               	movwf	i1___awmod@counter^0,c
 15037  006640  EF26  F033         	goto	i1l5678
 15038  006644                     i1l5676:
 15039  006644  90D8               	bcf	status,0,c
 15040  006646  3609               	rlcf	i1___awmod@divisor^0,f,c
 15041  006648  360A               	rlcf	(i1___awmod@divisor+1)^0,f,c
 15042  00664A  2A0B               	incf	i1___awmod@counter^0,f,c
 15043  00664C                     i1l5678:
 15044  00664C  AE0A               	btfss	(i1___awmod@divisor+1)^0,7,c
 15045  00664E  EF2B  F033         	goto	i1u680_21
 15046  006652  EF2D  F033         	goto	i1u680_20
 15047  006656                     i1u680_21:
 15048  006656  EF22  F033         	goto	i1l5676
 15049  00665A                     i1u680_20:
 15050  00665A                     i1l5680:
 15051  00665A  5009               	movf	i1___awmod@divisor^0,w,c
 15052  00665C  5C07               	subwf	i1___awmod@dividend^0,w,c
 15053  00665E  500A               	movf	(i1___awmod@divisor+1)^0,w,c
 15054  006660  5808               	subwfb	(i1___awmod@dividend+1)^0,w,c
 15055  006662  A0D8               	btfss	status,0,c
 15056  006664  EF36  F033         	goto	i1u681_21
 15057  006668  EF38  F033         	goto	i1u681_20
 15058  00666C                     i1u681_21:
 15059  00666C  EF3C  F033         	goto	i1l5684
 15060  006670                     i1u681_20:
 15061  006670  5009               	movf	i1___awmod@divisor^0,w,c
 15062  006672  5E07               	subwf	i1___awmod@dividend^0,f,c
 15063  006674  500A               	movf	(i1___awmod@divisor+1)^0,w,c
 15064  006676  5A08               	subwfb	(i1___awmod@dividend+1)^0,f,c
 15065  006678                     i1l5684:
 15066  006678  90D8               	bcf	status,0,c
 15067  00667A  320A               	rrcf	(i1___awmod@divisor+1)^0,f,c
 15068  00667C  3209               	rrcf	i1___awmod@divisor^0,f,c
 15069  00667E  2E0B               	decfsz	i1___awmod@counter^0,f,c
 15070  006680  EF2D  F033         	goto	i1l5680
 15071  006684                     i1l5688:
 15072  006684  500C               	movf	i1___awmod@sign^0,w,c
 15073  006686  B4D8               	btfsc	status,2,c
 15074  006688  EF48  F033         	goto	i1u682_21
 15075  00668C  EF4A  F033         	goto	i1u682_20
 15076  006690                     i1u682_21:
 15077  006690  EF4E  F033         	goto	i1l5692
 15078  006694                     i1u682_20:
 15079  006694  6C07               	negf	i1___awmod@dividend^0,c
 15080  006696  1E08               	comf	(i1___awmod@dividend+1)^0,f,c
 15081  006698  B0D8               	btfsc	status,0,c
 15082  00669A  2A08               	incf	(i1___awmod@dividend+1)^0,f,c
 15083  00669C                     i1l5692:
 15084  00669C  C007  F007         	movff	i1___awmod@dividend,?i1___awmod
 15085  0066A0  C008  F008         	movff	i1___awmod@dividend+1,?i1___awmod+1
 15086  0066A4  0012               	return		;funcret
 15087  0066A6                     __end_ofi1___awmod:
 15088                           	callstack 0
 15089                           
 15090 ;; *************** function _UART_Write *****************
 15091 ;; Defined at:
 15092 ;;		line 40 in file "setting_hardaware/uart.c"
 15093 ;; Parameters:    Size  Location     Type
 15094 ;;  data            1    wreg     unsigned char 
 15095 ;; Auto vars:     Size  Location     Type
 15096 ;;  data            1    6[COMRAM] unsigned char 
 15097 ;; Return value:  Size  Location     Type
 15098 ;;                  1    wreg      void 
 15099 ;; Registers used:
 15100 ;;		wreg
 15101 ;; Tracked objects:
 15102 ;;		On entry : 0/0
 15103 ;;		On exit  : 0/0
 15104 ;;		Unchanged: 0/0
 15105 ;; Data sizes:     COMRAM   BANK0   BANK1   BANK2   BANK3   BANK4   BANK5
 15106 ;;      Params:         0       0       0       0       0       0       0
 15107 ;;      Locals:         1       0       0       0       0       0       0
 15108 ;;      Temps:          0       0       0       0       0       0       0
 15109 ;;      Totals:         1       0       0       0       0       0       0
 15110 ;;Total ram usage:        1 bytes
 15111 ;; Hardware stack levels used:    1
 15112 ;; Hardware stack levels required when called:    1
 15113 ;; This function calls:
 15114 ;;		Nothing
 15115 ;; This function is called by:
 15116 ;;		_MyusartRead
 15117 ;;		_UART_Write_Text
 15118 ;; This function uses a non-reentrant model
 15119 ;;
 15120                           
 15121                           	psect	text50
 15122  006C8C                     __ptext50:
 15123                           	callstack 0
 15124  006C8C                     _UART_Write:
 15125                           	callstack 19
 15126                           
 15127                           ;incstack = 0
 15128                           ;UART_Write@data stored from wreg
 15129  006C8C  6E07               	movwf	UART_Write@data^0,c
 15130  006C8E                     i1l58:
 15131  006C8E  A2AC               	btfss	172,1,c	;volatile
 15132  006C90  EF4C  F036         	goto	i1u617_21
 15133  006C94  EF4E  F036         	goto	i1u617_20
 15134  006C98                     i1u617_21:
 15135  006C98  EF47  F036         	goto	i1l58
 15136  006C9C                     i1u617_20:
 15137  006C9C                     
 15138                           ;setting_hardaware/uart.c: 43:     TXREG = data;
 15139  006C9C  C007  FFAD         	movff	UART_Write@data,4013	;volatile
 15140  006CA0  0012               	return		;funcret
 15141  006CA2                     __end_of_UART_Write:
 15142                           	callstack 0
 15143                           
 15144 ;; *************** function _my_isr_routine *****************
 15145 ;; Defined at:
 15146 ;;		line 21 in file "main.c"
 15147 ;; Parameters:    Size  Location     Type
 15148 ;;		None
 15149 ;; Auto vars:     Size  Location     Type
 15150 ;;  i               2    4[COMRAM] int 
 15151 ;;  counter         2    2[COMRAM] int 
 15152 ;; Return value:  Size  Location     Type
 15153 ;;                  1    wreg      void 
 15154 ;; Registers used:
 15155 ;;		wreg, status,2, status,0
 15156 ;; Tracked objects:
 15157 ;;		On entry : 0/0
 15158 ;;		On exit  : 0/0
 15159 ;;		Unchanged: 0/0
 15160 ;; Data sizes:     COMRAM   BANK0   BANK1   BANK2   BANK3   BANK4   BANK5
 15161 ;;      Params:         0       0       0       0       0       0       0
 15162 ;;      Locals:         4       0       0       0       0       0       0
 15163 ;;      Temps:          2       0       0       0       0       0       0
 15164 ;;      Totals:         6       0       0       0       0       0       0
 15165 ;;Total ram usage:        6 bytes
 15166 ;; Hardware stack levels used:    1
 15167 ;; This function calls:
 15168 ;;		Nothing
 15169 ;; This function is called by:
 15170 ;;		Interrupt level 2
 15171 ;; This function uses a non-reentrant model
 15172 ;;
 15173                           
 15174                           	psect	intcode
 15175  000008                     __pintcode:
 15176                           	callstack 0
 15177  000008                     _my_isr_routine:
 15178                           	callstack 19
 15179                           
 15180                           ;incstack = 0
 15181  000008  826E               	bsf	int$flags,1,c	;set compiler interrupt flag (level 2)
 15182  00000A  ED97  F030         	call	int_func,f	;refresh shadow registers
 15183                           
 15184                           	psect	intcode_body
 15185  00612E                     __pintcode_body:
 15186                           	callstack 19
 15187  00612E                     int_func:
 15188                           	callstack 19
 15189  00612E  0006               	pop		; remove dummy address from shadow register refresh
 15190  006130                     
 15191                           ;main.c: 23:     T1CONbits.TMR1ON = 0;
 15192  006130  90CD               	bcf	205,0,c	;volatile
 15193  006132                     
 15194                           ;main.c: 24:     CCPR1L = 37;
 15195  006132  0E25               	movlw	37
 15196  006134  6EBE               	movwf	190,c	;volatile
 15197                           
 15198                           ;main.c: 25:     CCP1CONbits.DC1B = 0b11;
 15199  006136  0E30               	movlw	48
 15200  006138  12BD               	iorwf	189,f,c	;volatile
 15201  00613A                     
 15202                           ;main.c: 27:     if(in == 1) {
 15203  00613A  0464               	decf	_in^0,w,c
 15204  00613C  1065               	iorwf	(_in+1)^0,w,c
 15205  00613E  A4D8               	btfss	status,2,c
 15206  006140  EFA4  F030         	goto	i2u338_41
 15207  006144  EFA6  F030         	goto	i2u338_40
 15208  006148                     i2u338_41:
 15209  006148  EF0C  F031         	goto	i2l3584
 15210  00614C                     i2u338_40:
 15211  00614C                     
 15212                           ;main.c: 28:         if(count==delay_cycle){
 15213  00614C  5068               	movf	_delay_cycle^0,w,c
 15214  00614E  1866               	xorwf	_count^0,w,c
 15215  006150  E107               	bnz	i2u339_41
 15216  006152  5069               	movf	(_delay_cycle+1)^0,w,c
 15217  006154  1867               	xorwf	(_count+1)^0,w,c
 15218  006156  A4D8               	btfss	status,2,c
 15219  006158  EFB0  F030         	goto	i2u339_41
 15220  00615C  EFB2  F030         	goto	i2u339_40
 15221  006160                     i2u339_41:
 15222  006160  EF0A  F031         	goto	i2l3582
 15223  006164                     i2u339_40:
 15224  006164                     
 15225                           ;main.c: 30:             for(int i=0;i<4;i++){
 15226  006164  0E00               	movlw	0
 15227  006166  6E06               	movwf	(my_isr_routine@i+1)^0,c
 15228  006168  0E00               	movlw	0
 15229  00616A  6E05               	movwf	my_isr_routine@i^0,c
 15230  00616C  EFEA  F030         	goto	i2l3572
 15231  006170                     i2l3558:
 15232                           
 15233                           ;main.c: 33:                     if(CCP2CONbits.DC2B==0){
 15234  006170  38BA               	swapf	186,w,c	;volatile
 15235  006172  0B03               	andlw	3
 15236  006174  0900               	iorlw	0
 15237  006176  A4D8               	btfss	status,2,c
 15238  006178  EFC0  F030         	goto	i2u340_41
 15239  00617C  EFC2  F030         	goto	i2u340_40
 15240  006180                     i2u340_41:
 15241  006180  EFC7  F030         	goto	i2l3564
 15242  006184                     i2u340_40:
 15243  006184                     
 15244                           ;main.c: 34:                         CCP2CONbits.DC2B = 0b11;
 15245  006184  0E30               	movlw	48
 15246  006186  12BA               	iorwf	186,f,c	;volatile
 15247  006188                     
 15248                           ;main.c: 35:                         CCPR2L--;
 15249  006188  06BB               	decf	187,f,c	;volatile
 15250                           
 15251                           ;main.c: 36:                     }
 15252  00618A  EFD4  F030         	goto	i2l3566
 15253  00618E                     i2l3564:
 15254                           
 15255                           ;main.c: 38:                         CCP2CONbits.DC2B --;
 15256  00618E  0E01               	movlw	1
 15257  006190  6E01               	movwf	??_my_isr_routine^0,c
 15258  006192  38BA               	swapf	186,w,c	;volatile
 15259  006194  0B03               	andlw	3
 15260  006196  6E02               	movwf	(??_my_isr_routine+1)^0,c
 15261  006198  5001               	movf	??_my_isr_routine^0,w,c
 15262  00619A  5E02               	subwf	(??_my_isr_routine+1)^0,f,c
 15263  00619C  3A02               	swapf	(??_my_isr_routine+1)^0,f,c
 15264  00619E  50BA               	movf	186,w,c	;volatile
 15265  0061A0  1802               	xorwf	(??_my_isr_routine+1)^0,w,c
 15266  0061A2  0BCF               	andlw	-49
 15267  0061A4  1802               	xorwf	(??_my_isr_routine+1)^0,w,c
 15268  0061A6  6EBA               	movwf	186,c	;volatile
 15269  0061A8                     i2l3566:
 15270                           
 15271                           ;main.c: 40:                     counter=0;
 15272  0061A8  0E00               	movlw	0
 15273  0061AA  6E04               	movwf	(my_isr_routine@counter+1)^0,c
 15274  0061AC  0E00               	movlw	0
 15275  0061AE  6E03               	movwf	my_isr_routine@counter^0,c
 15276                           
 15277                           ;main.c: 41:                     while(counter<500)
 15278  0061B0  EFDC  F030         	goto	i2l3570
 15279  0061B4                     i2l3568:
 15280                           
 15281                           ;main.c: 42:                         counter++;
 15282  0061B4  4A03               	infsnz	my_isr_routine@counter^0,f,c
 15283  0061B6  2A04               	incf	(my_isr_routine@counter+1)^0,f,c
 15284  0061B8                     i2l3570:
 15285                           
 15286                           ;main.c: 41:                     while(counter<500)
 15287  0061B8  BE04               	btfsc	(my_isr_routine@counter+1)^0,7,c
 15288  0061BA  EFE8  F030         	goto	i2u341_41
 15289  0061BE  0EF4               	movlw	244
 15290  0061C0  5C03               	subwf	my_isr_routine@counter^0,w,c
 15291  0061C2  0E01               	movlw	1
 15292  0061C4  5804               	subwfb	(my_isr_routine@counter+1)^0,w,c
 15293  0061C6  A0D8               	btfss	status,0,c
 15294  0061C8  EFE8  F030         	goto	i2u341_41
 15295  0061CC  EFEA  F030         	goto	i2u341_40
 15296  0061D0                     i2u341_41:
 15297  0061D0  EFDA  F030         	goto	i2l3568
 15298  0061D4                     i2u341_40:
 15299  0061D4                     i2l3572:
 15300                           
 15301                           ;main.c: 31:                 while(CCPR2L >= 7){
 15302  0061D4  0E07               	movlw	7
 15303  0061D6  60BB               	cpfslt	187,c	;volatile
 15304  0061D8  EFF0  F030         	goto	i2u342_41
 15305  0061DC  EFF2  F030         	goto	i2u342_40
 15306  0061E0                     i2u342_41:
 15307  0061E0  EFB8  F030         	goto	i2l3558
 15308  0061E4                     i2u342_40:
 15309  0061E4                     
 15310                           ;main.c: 47:                 CCPR2L = 37;
 15311  0061E4  0E25               	movlw	37
 15312  0061E6  6EBB               	movwf	187,c	;volatile
 15313  0061E8                     
 15314                           ;main.c: 48:             }
 15315  0061E8  4A05               	infsnz	my_isr_routine@i^0,f,c
 15316  0061EA  2A06               	incf	(my_isr_routine@i+1)^0,f,c
 15317  0061EC  BE06               	btfsc	(my_isr_routine@i+1)^0,7,c
 15318  0061EE  EF02  F031         	goto	i2u343_41
 15319  0061F2  5006               	movf	(my_isr_routine@i+1)^0,w,c
 15320  0061F4  E109               	bnz	i2u343_40
 15321  0061F6  0E04               	movlw	4
 15322  0061F8  5C05               	subwf	my_isr_routine@i^0,w,c
 15323  0061FA  A0D8               	btfss	status,0,c
 15324  0061FC  EF02  F031         	goto	i2u343_41
 15325  006200  EF04  F031         	goto	i2u343_40
 15326  006204                     i2u343_41:
 15327  006204  EFEA  F030         	goto	i2l3572
 15328  006208                     i2u343_40:
 15329  006208                     
 15330                           ;main.c: 49:             count = 0;
 15331  006208  0E00               	movlw	0
 15332  00620A  6E67               	movwf	(_count+1)^0,c
 15333  00620C  0E00               	movlw	0
 15334  00620E  6E66               	movwf	_count^0,c
 15335                           
 15336                           ;main.c: 50:         }
 15337  006210  EF0C  F031         	goto	i2l3584
 15338  006214                     i2l3582:
 15339                           
 15340                           ;main.c: 52:             count++;
 15341  006214  4A66               	infsnz	_count^0,f,c
 15342  006216  2A67               	incf	(_count+1)^0,f,c
 15343  006218                     i2l3584:
 15344                           
 15345                           ;main.c: 55:     T1CONbits.TMR1ON = 1;
 15346  006218  80CD               	bsf	205,0,c	;volatile
 15347  00621A                     
 15348                           ;main.c: 56:     PIR1bits.TMR1IF = 0;
 15349  00621A  909E               	bcf	158,0,c	;volatile
 15350  00621C  926E               	bcf	int$flags,1,c	;clear compiler interrupt flag (level 2)
 15351  00621E  0011               	retfie		f
 15352  006220                     __end_of_my_isr_routine:
 15353                           	callstack 0
 15354                           
 15355                           	psect	rparam
 15356  0000                     
 15357                           	psect	temp
 15358  00006E                     btemp:
 15359                           	callstack 0
 15360  00006E                     	ds	1
 15361  0000                     int$flags	set	btemp
 15362  0000                     wtemp8	set	btemp+1
 15363  0000                     ttemp5	set	btemp+1
 15364  0000                     ttemp6	set	btemp+4
 15365  0000                     ttemp7	set	btemp+8
 15366                           
 15367                           	psect	idloc
 15368                           
 15369                           ;Config register IDLOC0 @ 0x200000
 15370                           ;	unspecified, using default values
 15371  200000                     	org	2097152
 15372  200000  FF                 	db	255
 15373                           
 15374                           ;Config register IDLOC1 @ 0x200001
 15375                           ;	unspecified, using default values
 15376  200001                     	org	2097153
 15377  200001  FF                 	db	255
 15378                           
 15379                           ;Config register IDLOC2 @ 0x200002
 15380                           ;	unspecified, using default values
 15381  200002                     	org	2097154
 15382  200002  FF                 	db	255
 15383                           
 15384                           ;Config register IDLOC3 @ 0x200003
 15385                           ;	unspecified, using default values
 15386  200003                     	org	2097155
 15387  200003  FF                 	db	255
 15388                           
 15389                           ;Config register IDLOC4 @ 0x200004
 15390                           ;	unspecified, using default values
 15391  200004                     	org	2097156
 15392  200004  FF                 	db	255
 15393                           
 15394                           ;Config register IDLOC5 @ 0x200005
 15395                           ;	unspecified, using default values
 15396  200005                     	org	2097157
 15397  200005  FF                 	db	255
 15398                           
 15399                           ;Config register IDLOC6 @ 0x200006
 15400                           ;	unspecified, using default values
 15401  200006                     	org	2097158
 15402  200006  FF                 	db	255
 15403                           
 15404                           ;Config register IDLOC7 @ 0x200007
 15405                           ;	unspecified, using default values
 15406  200007                     	org	2097159
 15407  200007  FF                 	db	255
 15408                           
 15409                           	psect	config
 15410                           
 15411                           ; Padding undefined space
 15412  300000                     	org	3145728
 15413  300000  FF                 	db	255
 15414                           
 15415                           ;Config register CONFIG1H @ 0x300001
 15416                           ;	Oscillator Selection bits
 15417                           ;	OSC = INTIO67, Internal oscillator block, port function on RA6 and RA7
 15418                           ;	Fail-Safe Clock Monitor Enable bit
 15419                           ;	FCMEN = OFF, Fail-Safe Clock Monitor disabled
 15420                           ;	Internal/External Oscillator Switchover bit
 15421                           ;	IESO = ON, Oscillator Switchover mode enabled
 15422  300001                     	org	3145729
 15423  300001  88                 	db	136
 15424                           
 15425                           ;Config register CONFIG2L @ 0x300002
 15426                           ;	Power-up Timer Enable bit
 15427                           ;	PWRT = OFF, PWRT disabled
 15428                           ;	Brown-out Reset Enable bits
 15429                           ;	BOREN = SBORDIS, Brown-out Reset enabled in hardware only (SBOREN is disabled)
 15430                           ;	Brown Out Reset Voltage bits
 15431                           ;	BORV = 3, Minimum setting
 15432  300002                     	org	3145730
 15433  300002  1F                 	db	31
 15434                           
 15435                           ;Config register CONFIG2H @ 0x300003
 15436                           ;	Watchdog Timer Enable bit
 15437                           ;	WDT = OFF, WDT disabled (control is placed on the SWDTEN bit)
 15438                           ;	Watchdog Timer Postscale Select bits
 15439                           ;	WDTPS = 1, 1:1
 15440  300003                     	org	3145731
 15441  300003  00                 	db	0
 15442                           
 15443                           ; Padding undefined space
 15444  300004                     	org	3145732
 15445  300004  FF                 	db	255
 15446                           
 15447                           ;Config register CONFIG3H @ 0x300005
 15448                           ;	CCP2 MUX bit
 15449                           ;	CCP2MX = PORTC, CCP2 input/output is multiplexed with RC1
 15450                           ;	PORTB A/D Enable bit
 15451                           ;	PBADEN = ON, PORTB<4:0> pins are configured as analog input channels on Reset
 15452                           ;	Low-Power Timer1 Oscillator Enable bit
 15453                           ;	LPT1OSC = OFF, Timer1 configured for higher power operation
 15454                           ;	MCLR Pin Enable bit
 15455                           ;	MCLRE = ON, MCLR pin enabled; RE3 input pin disabled
 15456  300005                     	org	3145733
 15457  300005  83                 	db	131
 15458                           
 15459                           ;Config register CONFIG4L @ 0x300006
 15460                           ;	Stack Full/Underflow Reset Enable bit
 15461                           ;	STVREN = ON, Stack full/underflow will cause Reset
 15462                           ;	Single-Supply ICSP Enable bit
 15463                           ;	LVP = OFF, Single-Supply ICSP disabled
 15464                           ;	Extended Instruction Set Enable bit
 15465                           ;	XINST = OFF, Instruction set extension and Indexed Addressing mode disabled (Legacy mo
      +                          de)
 15466                           ;	Background Debugger Enable bit
 15467                           ;	DEBUG = 0x1, unprogrammed default
 15468  300006                     	org	3145734
 15469  300006  81                 	db	129
 15470                           
 15471                           ; Padding undefined space
 15472  300007                     	org	3145735
 15473  300007  FF                 	db	255
 15474                           
 15475                           ;Config register CONFIG5L @ 0x300008
 15476                           ;	Code Protection bit
 15477                           ;	CP0 = OFF, Block 0 (000800-001FFFh) not code-protected
 15478                           ;	Code Protection bit
 15479                           ;	CP1 = OFF, Block 1 (002000-003FFFh) not code-protected
 15480                           ;	Code Protection bit
 15481                           ;	CP2 = OFF, Block 2 (004000-005FFFh) not code-protected
 15482                           ;	Code Protection bit
 15483                           ;	CP3 = OFF, Block 3 (006000-007FFFh) not code-protected
 15484  300008                     	org	3145736
 15485  300008  0F                 	db	15
 15486                           
 15487                           ;Config register CONFIG5H @ 0x300009
 15488                           ;	Boot Block Code Protection bit
 15489                           ;	CPB = OFF, Boot block (000000-0007FFh) not code-protected
 15490                           ;	Data EEPROM Code Protection bit
 15491                           ;	CPD = OFF, Data EEPROM not code-protected
 15492  300009                     	org	3145737
 15493  300009  C0                 	db	192
 15494                           
 15495                           ;Config register CONFIG6L @ 0x30000A
 15496                           ;	Write Protection bit
 15497                           ;	WRT0 = OFF, Block 0 (000800-001FFFh) not write-protected
 15498                           ;	Write Protection bit
 15499                           ;	WRT1 = OFF, Block 1 (002000-003FFFh) not write-protected
 15500                           ;	Write Protection bit
 15501                           ;	WRT2 = OFF, Block 2 (004000-005FFFh) not write-protected
 15502                           ;	Write Protection bit
 15503                           ;	WRT3 = OFF, Block 3 (006000-007FFFh) not write-protected
 15504  30000A                     	org	3145738
 15505  30000A  0F                 	db	15
 15506                           
 15507                           ;Config register CONFIG6H @ 0x30000B
 15508                           ;	Configuration Register Write Protection bit
 15509                           ;	WRTC = OFF, Configuration registers (300000-3000FFh) not write-protected
 15510                           ;	Boot Block Write Protection bit
 15511                           ;	WRTB = OFF, Boot block (000000-0007FFh) not write-protected
 15512                           ;	Data EEPROM Write Protection bit
 15513                           ;	WRTD = OFF, Data EEPROM not write-protected
 15514  30000B                     	org	3145739
 15515  30000B  E0                 	db	224
 15516                           
 15517                           ;Config register CONFIG7L @ 0x30000C
 15518                           ;	Table Read Protection bit
 15519                           ;	EBTR0 = OFF, Block 0 (000800-001FFFh) not protected from table reads executed in other
      +                           blocks
 15520                           ;	Table Read Protection bit
 15521                           ;	EBTR1 = OFF, Block 1 (002000-003FFFh) not protected from table reads executed in other
      +                           blocks
 15522                           ;	Table Read Protection bit
 15523                           ;	EBTR2 = OFF, Block 2 (004000-005FFFh) not protected from table reads executed in other
      +                           blocks
 15524                           ;	Table Read Protection bit
 15525                           ;	EBTR3 = OFF, Block 3 (006000-007FFFh) not protected from table reads executed in other
      +                           blocks
 15526  30000C                     	org	3145740
 15527  30000C  0F                 	db	15
 15528                           
 15529                           ;Config register CONFIG7H @ 0x30000D
 15530                           ;	Boot Block Table Read Protection bit
 15531                           ;	EBTRB = OFF, Boot block (000000-0007FFh) not protected from table reads executed in ot
      +                          her blocks
 15532  30000D                     	org	3145741
 15533  30000D  40                 	db	64
 15534                           tosu	equ	0xFFF
 15535                           tosh	equ	0xFFE
 15536                           tosl	equ	0xFFD
 15537                           stkptr	equ	0xFFC
 15538                           pclatu	equ	0xFFB
 15539                           pclath	equ	0xFFA
 15540                           pcl	equ	0xFF9
 15541                           tblptru	equ	0xFF8
 15542                           tblptrh	equ	0xFF7
 15543                           tblptrl	equ	0xFF6
 15544                           tablat	equ	0xFF5
 15545                           prodh	equ	0xFF4
 15546                           prodl	equ	0xFF3
 15547                           indf0	equ	0xFEF
 15548                           postinc0	equ	0xFEE
 15549                           postdec0	equ	0xFED
 15550                           preinc0	equ	0xFEC
 15551                           plusw0	equ	0xFEB
 15552                           fsr0h	equ	0xFEA
 15553                           fsr0l	equ	0xFE9
 15554                           wreg	equ	0xFE8
 15555                           indf1	equ	0xFE7
 15556                           postinc1	equ	0xFE6
 15557                           postdec1	equ	0xFE5
 15558                           preinc1	equ	0xFE4
 15559                           plusw1	equ	0xFE3
 15560                           fsr1h	equ	0xFE2
 15561                           fsr1l	equ	0xFE1
 15562                           bsr	equ	0xFE0
 15563                           indf2	equ	0xFDF
 15564                           postinc2	equ	0xFDE
 15565                           postdec2	equ	0xFDD
 15566                           preinc2	equ	0xFDC
 15567                           plusw2	equ	0xFDB
 15568                           fsr2h	equ	0xFDA
 15569                           fsr2l	equ	0xFD9
 15570                           status	equ	0xFD8

Data Sizes:
    Strings     27
    Constant    124
    Data        0
    BSS         152
    Persistent  0
    Stack       0

Auto Spaces:
    Space          Size  Autos    Used
    COMRAM          126     93     109
    BANK0           128    127     127
    BANK1           256    244     252
    BANK2           256     14     142
    BANK3           256      0       0
    BANK4           256      0       0
    BANK5           256      0       0

Pointer List with Targets:

    nanf@s	PTR const unsigned char  size(2) Largest target is 1
		 -> STR_17(CODE[1]), 

    strncmp@_r	PTR const unsigned char  size(2) Largest target is 3
		 -> STR_14(CODE[3]), 

    strncmp@r	PTR const unsigned char  size(2) Largest target is 3
		 -> STR_14(CODE[3]), 

    strncmp@_l	PTR const unsigned char  size(2) Largest target is 3
		 -> vfpfcnvrt@ct(BANK0[3]), 

    strncmp@l	PTR const unsigned char  size(2) Largest target is 3
		 -> vfpfcnvrt@ct(BANK0[3]), 

    strlen@s	PTR const unsigned char  size(2) Largest target is 80
		 -> dbuf(BANK2[80]), 

    strlen@a	PTR const unsigned char  size(2) Largest target is 80
		 -> dbuf(BANK2[80]), 

    strcpy@dest	PTR unsigned char  size(2) Largest target is 80
		 -> dbuf(BANK2[80]), str(BANK2[20]), 

    strcpy@d	PTR unsigned char  size(2) Largest target is 80
		 -> dbuf(BANK2[80]), str(BANK2[20]), 

    strcpy@src	PTR const unsigned char  size(2) Largest target is 80
		 -> STR_9(CODE[4]), STR_8(CODE[4]), STR_5(CODE[4]), STR_4(CODE[4]), 
		 -> dbuf(BANK2[80]), mystring(BANK2[20]), 

    strcpy@s	PTR const unsigned char  size(2) Largest target is 80
		 -> STR_9(CODE[4]), STR_8(CODE[4]), STR_5(CODE[4]), STR_4(CODE[4]), 
		 -> dbuf(BANK2[80]), mystring(BANK2[20]), 

    fputs@s	PTR const unsigned char  size(2) Largest target is 80
		 -> dbuf(BANK2[80]), 

    fputs@fp	PTR struct _IO_FILE size(2) Largest target is 7
		 -> sprintf@f(BANK0[6]), 

    fputc@fp.buffer	PTR unsigned char  size(2) Largest target is 10
		 -> main@m2(BANK0[10]), motor@m2(COMRAM[10]), 

    fputc@fp	PTR struct _IO_FILE size(2) Largest target is 7
		 -> sprintf@f(BANK0[6]), 

    atoi@s	PTR const unsigned char  size(2) Largest target is 5
		 -> STR_3(CODE[5]), STR_1(CODE[5]), 

    vfprintf@ap	PTR PTR void  size(2) Largest target is 2
		 -> sprintf@ap(BANK0[2]), 

    vfprintf@fp	PTR struct _IO_FILE size(2) Largest target is 7
		 -> sprintf@f(BANK0[6]), 

    vfprintf@fmt	PTR const unsigned char  size(2) Largest target is 5
		 -> STR_3(CODE[5]), STR_1(CODE[5]), 

    vfprintf@cfmt	PTR unsigned char  size(2) Largest target is 5
		 -> STR_3(CODE[5]), STR_1(CODE[5]), 

    vfpfcnvrt@fp	PTR struct _IO_FILE size(2) Largest target is 7
		 -> sprintf@f(BANK0[6]), 

    vfpfcnvrt@ap	PTR PTR void  size(2) Largest target is 2
		 -> sprintf@ap(BANK0[2]), 

    vfpfcnvrt@fmt	PTR PTR unsigned char  size(2) Largest target is 2
		 -> vfprintf@cfmt(BANK0[2]), 

    efgtoa@fp	PTR struct _IO_FILE size(2) Largest target is 7
		 -> sprintf@f(BANK0[6]), 

    pad@fp	PTR struct _IO_FILE size(2) Largest target is 7
		 -> sprintf@f(BANK0[6]), 

    pad@buf	PTR unsigned char  size(2) Largest target is 80
		 -> dbuf(BANK2[80]), 

    sprintf@fmt	PTR const unsigned char  size(2) Largest target is 5
		 -> STR_3(CODE[5]), STR_1(CODE[5]), 

    sprintf@s	PTR unsigned char  size(2) Largest target is 10
		 -> main@m2(BANK0[10]), motor@m2(COMRAM[10]), 

    sprintf@ap	PTR void [1] size(2) Largest target is 2
		 -> ?_sprintf(BANK2[2]), 

    S1342_IO_FILE$buffer	PTR unsigned char  size(2) Largest target is 10
		 -> main@m2(BANK0[10]), motor@m2(COMRAM[10]), 

    f.buffer	PTR unsigned char  size(2) Largest target is 10
		 -> main@m2(BANK0[10]), motor@m2(COMRAM[10]), 

    sp__strcpy	PTR unsigned char  size(2) Largest target is 80
		 -> dbuf(BANK2[80]), str(BANK2[20]), 

    sp__GetString	PTR unsigned char  size(2) Largest target is 20
		 -> mystring(BANK2[20]), 


Critical Paths under _main in COMRAM

    _efgtoa->___fltol
    _tolower->_isupper
    _pad->_fputs
    _fputs->_fputc
    _floorf->___fldiv
    _atoi->_isspace
    _set_time->___fltol
    _strcpy->_GetString
    _powf->_sqrtf
    _sqrtf->___flge
    ___flge->___flsub
    _scalbnf->___flmul
    ___flmul->___xxtofl
    ___xxtofl->_ADC_Read
    ___flsub->___flmul
    ___fldiv->___flsub

Critical Paths under _Lo_ISR in COMRAM

    _MyusartRead->i1___awmod

Critical Paths under _my_isr_routine in COMRAM

    None.

Critical Paths under _main in BANK0

    _main->_sprintf
    _sprintf->_vfprintf
    _vfprintf->_vfpfcnvrt
    _vfpfcnvrt->_efgtoa
    _efgtoa->___fltol
    _floorf->___fldiv
    _set_time->___fltol
    _powf->_sqrtf
    ___fltol->_powf

Critical Paths under _Lo_ISR in BANK0

    None.

Critical Paths under _my_isr_routine in BANK0

    None.

Critical Paths under _main in BANK1

    _vfpfcnvrt->_efgtoa
    _set_time->_powf
    ___fltol->_powf

Critical Paths under _Lo_ISR in BANK1

    None.

Critical Paths under _my_isr_routine in BANK1

    None.

Critical Paths under _main in BANK2

    _main->_sprintf
    _sprintf->_vfprintf

Critical Paths under _Lo_ISR in BANK2

    None.

Critical Paths under _my_isr_routine in BANK2

    None.

Critical Paths under _main in BANK3

    None.

Critical Paths under _Lo_ISR in BANK3

    None.

Critical Paths under _my_isr_routine in BANK3

    None.

Critical Paths under _main in BANK4

    None.

Critical Paths under _Lo_ISR in BANK4

    None.

Critical Paths under _my_isr_routine in BANK4

    None.

Critical Paths under _main in BANK5

    None.

Critical Paths under _Lo_ISR in BANK5

    None.

Critical Paths under _my_isr_routine in BANK5

    None.

Call Graph Tables:

 ---------------------------------------------------------------------------------
 (Depth) Function   	        Calls       Base Space   Used Autos Params    Refs
 ---------------------------------------------------------------------------------
 (0) _main                                                16    16      0  200744
                                            111 BANK0     16    16      0
                           _ADC_Read
                        _ClearBuffer
                          _GetString
                  _SYSTEM_Initialize
                             ___flge
                           ___xxtofl
                              _delay
                           _set_time
                            _sprintf
                             _strcpy
 ---------------------------------------------------------------------------------
 (1) _sprintf                                             18    10      8   71240
                                            101 BANK0     10    10      0
                                              6 BANK2      8     0      8
                           _vfprintf
 ---------------------------------------------------------------------------------
 (2) _vfprintf                                             8     2      6   70556
                                             99 BANK0      2     2      0
                                              0 BANK2      6     0      6
                          _vfpfcnvrt
 ---------------------------------------------------------------------------------
 (3) _vfpfcnvrt                                           48    42      6   70029
                                             77 BANK0     22    16      6
                               _atoi
                             _efgtoa
                              _fputc
                            _isdigit
                            _isupper
                            _strncmp
                            _tolower
 ---------------------------------------------------------------------------------
 (4) _strncmp                                             11     5      6     595
                                             17 COMRAM    11     5      6
 ---------------------------------------------------------------------------------
 (4) _efgtoa                                              68    61      7   63220
                                             65 BANK0     12     5      7
                                            188 BANK1     56    56      0
                            ___awdiv
                            ___awmod
                            ___fladd
                            ___fldiv
                             ___fleq
                             ___flge
                            ___flmul
                            ___flneg
                            ___flsub
                            ___fltol
                      ___fpclassifyf
                             _floorf
                            _isupper
                                _pad
                             _strcpy
                            _tolower
 ---------------------------------------------------------------------------------
 (4) _tolower                                              8     6      2    1142
                                             23 COMRAM     8     6      2
                            _isupper
 ---------------------------------------------------------------------------------
 (5) _isupper                                              6     4      2     551
                                             17 COMRAM     6     4      2
 ---------------------------------------------------------------------------------
 (5) _pad                                                 11     5      6    3957
                                             33 COMRAM    11     5      6
                              _fputc
                              _fputs
                             _strlen
 ---------------------------------------------------------------------------------
 (6) _strlen                                               4     2      2     220
                                             17 COMRAM     4     2      2
 ---------------------------------------------------------------------------------
 (6) _fputs                                                7     3      4    1537
                                             26 COMRAM     7     3      4
                              _fputc
 ---------------------------------------------------------------------------------
 (4) _fputc                                                9     5      4    1037
                                             17 COMRAM     9     5      4
                              _putch
 ---------------------------------------------------------------------------------
 (5) _putch                                                1     1      0       0
 ---------------------------------------------------------------------------------
 (5) _floorf                                              20    16      4     669
                                             82 COMRAM    10     6      4
                                             13 BANK0     10    10      0
                            ___fldiv (ARG)
 ---------------------------------------------------------------------------------
 (5) ___fpclassifyf                                       14    10      4     375
                                             17 COMRAM    14    10      4
 ---------------------------------------------------------------------------------
 (5) ___fleq                                              12     4      8     770
                                             17 COMRAM    12     4      8
 ---------------------------------------------------------------------------------
 (5) ___awmod                                              6     2      4     723
                                             17 COMRAM     6     2      4
 ---------------------------------------------------------------------------------
 (4) _atoi                                                15    13      2    1515
                                             24 COMRAM    15    13      2
                             ___wmul
                            _isdigit
                            _isspace
 ---------------------------------------------------------------------------------
 (5) _isspace                                              7     5      2     259
                                             17 COMRAM     7     5      2
 ---------------------------------------------------------------------------------
 (4) _isdigit                                              6     4      2     281
                                             17 COMRAM     6     4      2
 ---------------------------------------------------------------------------------
 (5) ___wmul                                               6     2      4     412
                                             17 COMRAM     6     2      4
 ---------------------------------------------------------------------------------
 (1) _set_time                                            18    18      0  124198
                                             65 BANK0     18    18      0
                        _ClearBuffer
                          _GetString
                            ___awdiv
                            ___flmul
                            ___fltol
                           ___xxtofl
                               _powf
                             _strcpy
 ---------------------------------------------------------------------------------
 (1) _strcpy                                              10     6      4    1577
                                             19 COMRAM    10     6      4
                          _GetString (ARG)
 ---------------------------------------------------------------------------------
 (2) _powf                                               205   197      8  104135
                                             40 BANK0     17     9      8
                                              0 BANK1    188   188      0
                            ___fladd
                            ___fldiv
                             ___flge
                            ___flmul
                            ___flneg
                            ___flsub
                           ___xxtofl
                              _fabsf
                            _scalbnf
                              _sqrtf
 ---------------------------------------------------------------------------------
 (3) _sqrtf                                               49    45      4   28763
                                             82 COMRAM     9     5      4
                                              0 BANK0     40    40      0
                            ___fladd
                             ___flge
                            ___flmul
                               _nanf
 ---------------------------------------------------------------------------------
 (4) _nanf                                                 8     4      4     124
                                             17 COMRAM     8     4      4
 ---------------------------------------------------------------------------------
 (5) ___flge                                              12     4      8    2066
                                             70 COMRAM    12     4      8
                            ___fladd (ARG)
                            ___flmul (ARG)
                            ___flsub (ARG)
 ---------------------------------------------------------------------------------
 (3) _scalbnf                                             18    12      6   16337
                                             62 COMRAM    18    12      6
                            ___flmul
 ---------------------------------------------------------------------------------
 (5) ___flmul                                             25    17      8   15653
                                             37 COMRAM    25    17      8
                            ___fladd (ARG)
                           ___xxtofl (ARG)
 ---------------------------------------------------------------------------------
 (3) _fabsf                                                8     4      4     161
                                             17 COMRAM     8     4      4
 ---------------------------------------------------------------------------------
 (3) ___xxtofl                                            14    10      4     926
                                             23 COMRAM    14    10      4
                           _ADC_Read (ARG)
 ---------------------------------------------------------------------------------
 (5) ___flsub                                              8     0      8   16247
                                             62 COMRAM     8     0      8
                            ___fladd
                            ___flmul (ARG)
 ---------------------------------------------------------------------------------
 (6) ___fladd                                             16     8      8    9562
                                             17 COMRAM    16     8      8
 ---------------------------------------------------------------------------------
 (5) ___flneg                                              4     0      4     335
                                             17 COMRAM     4     0      4
 ---------------------------------------------------------------------------------
 (5) ___fldiv                                             25    17      8    3803
                                             70 COMRAM    12     4      8
                                              0 BANK0     13    13      0
                            ___fladd (ARG)
                            ___flmul (ARG)
                            ___flsub (ARG)
 ---------------------------------------------------------------------------------
 (5) ___fltol                                             10     6      4     607
                                             91 COMRAM     2     2      0
                                             57 BANK0      8     4      4
                            ___flmul (ARG)
                           ___xxtofl (ARG)
                               _powf (ARG)
 ---------------------------------------------------------------------------------
 (5) ___awdiv                                              8     4      4     805
                                             17 COMRAM     8     4      4
 ---------------------------------------------------------------------------------
 (2) _GetString                                            2     0      2       0
                                             17 COMRAM     2     0      2
 ---------------------------------------------------------------------------------
 (2) _ClearBuffer                                          2     2      0      99
                                             17 COMRAM     2     2      0
 ---------------------------------------------------------------------------------
 (1) _delay                                                6     4      2     316
                                             17 COMRAM     6     4      2
 ---------------------------------------------------------------------------------
 (1) _SYSTEM_Initialize                                    0     0      0       0
                     _ADC_Initialize
                    _CCP1_Initialize
               _INTERRUPT_Initialize
              _OSCILLATOR_Initialize
                    _UART_Initialize
 ---------------------------------------------------------------------------------
 (2) _UART_Initialize                                      0     0      0       0
 ---------------------------------------------------------------------------------
 (2) _OSCILLATOR_Initialize                                0     0      0       0
 ---------------------------------------------------------------------------------
 (2) _INTERRUPT_Initialize                                 0     0      0       0
 ---------------------------------------------------------------------------------
 (2) _CCP1_Initialize                                      0     0      0       0
 ---------------------------------------------------------------------------------
 (2) _ADC_Initialize                                       0     0      0       0
 ---------------------------------------------------------------------------------
 (1) _ADC_Read                                             6     4      2     214
                                             17 COMRAM     6     4      2
 ---------------------------------------------------------------------------------
 Estimated maximum stack depth 6
 ---------------------------------------------------------------------------------
 (Depth) Function   	        Calls       Base Space   Used Autos Params    Refs
 ---------------------------------------------------------------------------------
 (9) _Lo_ISR                                               5     5      0     370
                                             12 COMRAM     5     5      0
                        _MyusartRead
 ---------------------------------------------------------------------------------
 (10) _MyusartRead                                         0     0      0     370
                         _UART_Write
                          i1___awmod
 ---------------------------------------------------------------------------------
 (11) i1___awmod                                           6     2      4     348
                                              6 COMRAM     6     2      4
 ---------------------------------------------------------------------------------
 (11) _UART_Write                                          1     1      0      22
                                              6 COMRAM     1     1      0
 ---------------------------------------------------------------------------------
 Estimated maximum stack depth 11
 ---------------------------------------------------------------------------------
 (Depth) Function   	        Calls       Base Space   Used Autos Params    Refs
 ---------------------------------------------------------------------------------
 (12) _my_isr_routine                                      6     6      0      45
                                              0 COMRAM     6     6      0
 ---------------------------------------------------------------------------------
 Estimated maximum stack depth 12
 ---------------------------------------------------------------------------------

 Call Graph Graphs:

 _main (ROOT)
   _ADC_Read
   _ClearBuffer
   _GetString
   _SYSTEM_Initialize
     _ADC_Initialize
     _CCP1_Initialize
     _INTERRUPT_Initialize
     _OSCILLATOR_Initialize
     _UART_Initialize
   ___flge
     ___fladd (ARG)
     ___flmul (ARG)
       ___fladd (ARG)
       ___xxtofl (ARG)
         _ADC_Read (ARG)
     ___flsub (ARG)
       ___fladd
       ___flmul (ARG)
         ___fladd (ARG)
         ___xxtofl (ARG)
           _ADC_Read (ARG)
   ___xxtofl
     _ADC_Read (ARG)
   _delay
   _set_time
     _ClearBuffer
     _GetString
     ___awdiv
     ___flmul
       ___fladd (ARG)
       ___xxtofl (ARG)
         _ADC_Read (ARG)
     ___fltol
       ___flmul (ARG)
         ___fladd (ARG)
         ___xxtofl (ARG)
           _ADC_Read (ARG)
       ___xxtofl (ARG)
         _ADC_Read (ARG)
       _powf (ARG)
         ___fladd
         ___fldiv
           ___fladd (ARG)
           ___flmul (ARG)
             ___fladd (ARG)
             ___xxtofl (ARG)
               _ADC_Read (ARG)
           ___flsub (ARG)
             ___fladd
             ___flmul (ARG)
               ___fladd (ARG)
               ___xxtofl (ARG)
                 _ADC_Read (ARG)
         ___flge
           ___fladd (ARG)
           ___flmul (ARG)
             ___fladd (ARG)
             ___xxtofl (ARG)
               _ADC_Read (ARG)
           ___flsub (ARG)
             ___fladd
             ___flmul (ARG)
               ___fladd (ARG)
               ___xxtofl (ARG)
                 _ADC_Read (ARG)
         ___flmul
           ___fladd (ARG)
           ___xxtofl (ARG)
             _ADC_Read (ARG)
         ___flneg
         ___flsub
           ___fladd
           ___flmul (ARG)
             ___fladd (ARG)
             ___xxtofl (ARG)
               _ADC_Read (ARG)
         ___xxtofl
           _ADC_Read (ARG)
         _fabsf
         _scalbnf
           ___flmul
             ___fladd (ARG)
             ___xxtofl (ARG)
               _ADC_Read (ARG)
         _sqrtf
           ___fladd
           ___flge
             ___fladd (ARG)
             ___flmul (ARG)
               ___fladd (ARG)
               ___xxtofl (ARG)
                 _ADC_Read (ARG)
             ___flsub (ARG)
               ___fladd
               ___flmul (ARG)
                 ___fladd (ARG)
                 ___xxtofl (ARG)
                   _ADC_Read (ARG)
           ___flmul
             ___fladd (ARG)
             ___xxtofl (ARG)
               _ADC_Read (ARG)
           _nanf
     ___xxtofl
       _ADC_Read (ARG)
     _powf
       ___fladd
       ___fldiv
         ___fladd (ARG)
         ___flmul (ARG)
           ___fladd (ARG)
           ___xxtofl (ARG)
             _ADC_Read (ARG)
         ___flsub (ARG)
           ___fladd
           ___flmul (ARG)
             ___fladd (ARG)
             ___xxtofl (ARG)
               _ADC_Read (ARG)
       ___flge
         ___fladd (ARG)
         ___flmul (ARG)
           ___fladd (ARG)
           ___xxtofl (ARG)
             _ADC_Read (ARG)
         ___flsub (ARG)
           ___fladd
           ___flmul (ARG)
             ___fladd (ARG)
             ___xxtofl (ARG)
               _ADC_Read (ARG)
       ___flmul
         ___fladd (ARG)
         ___xxtofl (ARG)
           _ADC_Read (ARG)
       ___flneg
       ___flsub
         ___fladd
         ___flmul (ARG)
           ___fladd (ARG)
           ___xxtofl (ARG)
             _ADC_Read (ARG)
       ___xxtofl
         _ADC_Read (ARG)
       _fabsf
       _scalbnf
         ___flmul
           ___fladd (ARG)
           ___xxtofl (ARG)
             _ADC_Read (ARG)
       _sqrtf
         ___fladd
         ___flge
           ___fladd (ARG)
           ___flmul (ARG)
             ___fladd (ARG)
             ___xxtofl (ARG)
               _ADC_Read (ARG)
           ___flsub (ARG)
             ___fladd
             ___flmul (ARG)
               ___fladd (ARG)
               ___xxtofl (ARG)
                 _ADC_Read (ARG)
         ___flmul
           ___fladd (ARG)
           ___xxtofl (ARG)
             _ADC_Read (ARG)
         _nanf
     _strcpy
       _GetString (ARG)
   _sprintf
     _vfprintf
       _vfpfcnvrt
         _atoi
           ___wmul
           _isdigit
           _isspace
         _efgtoa
           ___awdiv
           ___awmod
           ___fladd
           ___fldiv
             ___fladd (ARG)
             ___flmul (ARG)
               ___fladd (ARG)
               ___xxtofl (ARG)
                 _ADC_Read (ARG)
             ___flsub (ARG)
               ___fladd
               ___flmul (ARG)
                 ___fladd (ARG)
                 ___xxtofl (ARG)
                   _ADC_Read (ARG)
           ___fleq
           ___flge
             ___fladd (ARG)
             ___flmul (ARG)
               ___fladd (ARG)
               ___xxtofl (ARG)
                 _ADC_Read (ARG)
             ___flsub (ARG)
               ___fladd
               ___flmul (ARG)
                 ___fladd (ARG)
                 ___xxtofl (ARG)
                   _ADC_Read (ARG)
           ___flmul
             ___fladd (ARG)
             ___xxtofl (ARG)
               _ADC_Read (ARG)
           ___flneg
           ___flsub
             ___fladd
             ___flmul (ARG)
               ___fladd (ARG)
               ___xxtofl (ARG)
                 _ADC_Read (ARG)
           ___fltol
             ___flmul (ARG)
               ___fladd (ARG)
               ___xxtofl (ARG)
                 _ADC_Read (ARG)
             ___xxtofl (ARG)
               _ADC_Read (ARG)
             _powf (ARG)
               ___fladd
               ___fldiv
                 ___fladd (ARG)
                 ___flmul (ARG)
                   ___fladd (ARG)
                   ___xxtofl (ARG)
                     _ADC_Read (ARG)
                 ___flsub (ARG)
                   ___fladd
                   ___flmul (ARG)
                     ___fladd (ARG)
                     ___xxtofl (ARG)
                       _ADC_Read (ARG)
               ___flge
                 ___fladd (ARG)
                 ___flmul (ARG)
                   ___fladd (ARG)
                   ___xxtofl (ARG)
                     _ADC_Read (ARG)
                 ___flsub (ARG)
                   ___fladd
                   ___flmul (ARG)
                     ___fladd (ARG)
                     ___xxtofl (ARG)
                       _ADC_Read (ARG)
               ___flmul
                 ___fladd (ARG)
                 ___xxtofl (ARG)
                   _ADC_Read (ARG)
               ___flneg
               ___flsub
                 ___fladd
                 ___flmul (ARG)
                   ___fladd (ARG)
                   ___xxtofl (ARG)
                     _ADC_Read (ARG)
               ___xxtofl
                 _ADC_Read (ARG)
               _fabsf
               _scalbnf
                 ___flmul
                   ___fladd (ARG)
                   ___xxtofl (ARG)
                     _ADC_Read (ARG)
               _sqrtf
                 ___fladd
                 ___flge
                   ___fladd (ARG)
                   ___flmul (ARG)
                     ___fladd (ARG)
                     ___xxtofl (ARG)
                       _ADC_Read (ARG)
                   ___flsub (ARG)
                     ___fladd
                     ___flmul (ARG)
                       ___fladd (ARG)
                       ___xxtofl (ARG)
                         _ADC_Read (ARG)
                 ___flmul
                   ___fladd (ARG)
                   ___xxtofl (ARG)
                     _ADC_Read (ARG)
                 _nanf
           ___fpclassifyf
           _floorf
             ___fldiv (ARG)
               ___fladd (ARG)
               ___flmul (ARG)
                 ___fladd (ARG)
                 ___xxtofl (ARG)
                   _ADC_Read (ARG)
               ___flsub (ARG)
                 ___fladd
                 ___flmul (ARG)
                   ___fladd (ARG)
                   ___xxtofl (ARG)
                     _ADC_Read (ARG)
           _isupper
           _pad
             _fputc
               _putch
             _fputs
               _fputc
                 _putch
             _strlen
           _strcpy
             _GetString (ARG)
           _tolower
             _isupper
         _fputc
           _putch
         _isdigit
         _isupper
         _strncmp
         _tolower
           _isupper
   _strcpy
     _GetString (ARG)

 _Lo_ISR (ROOT)
   _MyusartRead
     _UART_Write
     i1___awmod

 _my_isr_routine (ROOT)

 Address spaces:
Name               Size   Autos  Total    Cost      Usage
BIGRAM             5FF      0       0      17        0.0%
EEDATA             100      0       0       0        0.0%
BITBANK5           100      0       0      16        0.0%
BANK5              100      0       0      14        0.0%
BITBANK4           100      0       0      12        0.0%
BANK4              100      0       0      13        0.0%
BITBANK3           100      0       0      10        0.0%
BANK3              100      0       0      11        0.0%
BITBANK2           100      0       0       8        0.0%
BANK2              100      E      8E       9       55.5%
BITBANK1           100      0       0       6        0.0%
BANK1              100     F4      FC       7       98.4%
BITBANK0            80      0       0       4        0.0%
BANK0               80     7F      7F       5       99.2%
BITCOMRAM           7E      0       0       0        0.0%
COMRAM              7E     5D      6D       1       86.5%
BITSFR               0      0       0     200        0.0%
SFR                  0      0       0     200        0.0%
STACK                0      0       0       2        0.0%
NULL                 0      0       0       0        0.0%
ABS                  0      0     276      15        0.0%
DATA                 0      0     276       3        0.0%
CODE                 0      0       0       0        0.0%


Microchip Technology PIC18 Macro Assembler V2.30 build 20200825195618 
Symbol Table                                                                                   Mon Jan 18 21:19:33 2021

                  ___fldiv@aexp 008C                    ___fldiv@bexp 008B                    ___fldiv@sign 0084  
                            _L1 0659                              l22 6CB2                              _L2 0655  
                            _L3 0651                              _L4 064D                              _L5 0649  
                            _L6 0645                              l19 6C74                              _P1 0641  
                            _P2 063D                              l55 6C5E                              _P3 0639  
                            l64 6CAA                              _P4 0635                              _P5 0631  
                            l75 6A7A                              l92 6CBA                              l95 6CBE  
                  ___awdiv@sign 0017                              _bp 0669                              _cp 061D  
                            _in 0064                              bsr 000FE0             ___wmul@multiplicand 0014  
       __end_of_CCP1_Initialize 6CC0                             l112 6C8A                             l115 6B62  
                           l118 6B8E                             l223 5ADE                             l241 6C1A  
                           l219 5A84                             l180 696A                             l500 674E  
                           l511 602E                             l506 5FE8                             l515 6B22  
                           l472 6482                             l538 5F2A                             l811 69B0  
                           l485 65F4                             l910 5C2A                             l823 52DA  
                           l903 5BCE                             l825 513A                             l834 5180  
                           l770 43C6                             l771 438C                             l836 51F8  
                           l828 50FE                             l837 51E6                             l862 4DD0  
                           l855 4BDA                             l919 68CE                             l872 4F00  
                           l864 4E48                             l960 64C8                             l769 43D8  
                           l865 4E36                             l786 44F2                             l778 46A8  
                           l795 45C2                             l859 4F3E                             l963 650A  
                           l796 45B0                             l965 6544                             l983 3D26  
                           l896 5B36                             l899 5C92                             _PR2 000FCB  
                           _lg2 062D                             _pad 6484                             _ovt 0621  
                           _str 0258                    ___awmod@sign 0017                             wreg 000FE8  
                  ___flmul@aexp 0033                    ___flmul@bexp 0038                    ___flmul@sign 0032  
                  ___flmul@temp 003D                    ___flmul@prod 0039                    ___fltol@exp1 005D  
                          l1001 3498                            l1131 5E22                            l1140 5668  
                          l1029 38EC                            l1128 5E1A                            l1137 5724  
                          l1161 6AB2                            l1082 4A5A                            l1403 3F86  
                          l1147 6AEA                            l1155 6920                            l1075 4B14  
                          l1252 30A6                            l1406 404A                            l1430 6B58  
                          l1247 069A                            l1408 4152                            l1424 6874  
                          l1176 63BE                            l1184 69F4                            l1088 67B0  
                          l1353 28A0                            l1257 099C                            l1249 06BA  
                          l1089 67B8                            l1370 6BC2                            l1418 6C3C  
                          l1354 291C                            l1434 62F4                            l1267 0A32  
                          l1099 612C                            l1364 3052                            l1444 6810  
                          l1285 0C1A                            l1277 0AF4                            l1373 6CBC  
                          l1383 550E                            l1449 6818                            l1395 41E8  
                          l1399 3F28                            l6000 42CA                            l6010 42F6  
                          l6002 42DC                            l6100 452C                            l6020 430A  
                          l6012 42FA                            l6004 42EA                            l6110 455C  
                          l6102 4536                            l6030 431E                            l6022 430E  
                          l6014 42FE                            l6006 42EE                            l6200 4F6E  
                          l6120 4584                            l6112 4560                            l6104 4544  
                          l6040 4358                            l6032 4322                            l6024 4312  
                          l6016 4302                            l6008 42F2                            l7000 3C10  
                          l6210 4FA8                            l6202 4F7E                            l6130 45DE  
                          l6122 4592                            l6114 4570                            l6106 4546  
                          l6050 43AA                            l6042 4374                            l6034 4326  
                          l6026 4316                            l6018 4306                            l7010 3C50  
                          l7002 3C18                            l6300 5214                            l6220 4FD4  
                          l6212 4FAE                            l6204 4F8E                            l6140 4648  
                          l6132 45EC                            l6124 45A8                            l6108 4554  
                          l6116 4572                            l6060 43F6                            l6052 43B8  
                          l6044 4384                            l6028 431A                            l6036 432A  
                          l7020 3C8C                            l7012 3C62                            l7004 3C1E  
                          l7100 62D2                            l6310 5280                            l6302 5222  
                          l6230 500E                            l6222 4FE4                            l6214 4FB4  
                          l6206 4F90                            l6150 4682                            l6142 4668  
                          l6134 4626                            l6070 4436                            l6118 4580  
                          l6054 43BA                            l6046 439A                            l6038 432E  
                          l7110 5AE2                            l7030 3CE8                            l7022 3C92  
                          l7014 3C6E                            l7006 3C30                            ?_pad 0022  
                          l6320 52CE                            l6312 529A                            l6304 524C  
                          l6232 5024                            l6224 4FF4                            l6216 4FC2  
                          l6208 4F98                            l6152 4688                            l6144 466C  
                          l6128 45D2                            l6136 4628                            l6080 4460  
                          l6072 4442                            l6064 440A                            l6056 43C4  
                          l6048 43A6                            l7112 5AF2                            l6400 4D02  
                          l7104 6C1C                            l6160 69B2                            l7032 3CF0  
                          l7016 3C76                            l7008 3C4A                            l7200 48EC  
                          l8000 5726                            l6322 52D0                            l6314 52B6  
                          l6306 5250                            l6250 5078                            l6234 5034  
                          l6242 5054                            l6226 4FF6                            l6218 4FC4  
                          l6154 4696                            l6146 467A                            l6138 4638  
                          l6090 44D2                            l6074 4446                            l6066 441A  
                          l6058 43E6                            l6082 4466                            l7130 5BB8  
                          l7122 5B70                            l7114 5B00                            l6410 4D98  
                          l6402 4D0E                            l6330 4B16                            l7106 6C2C  
                          l7050 5CCC                            l7042 5C94                            l6162 69BE  
                          l6170 6B30                            l7034 3D00                            l7026 3CCA  
                          l7018 3C86                            l7202 491C                            l8010 573E  
                          l8002 572A                            l6500 645C                            l6316 52BA  
                          l6308 526A                            l6260 50CA                            l6252 5092  
                          l6244 5064                            l6236 503C                            l6228 4FFE  
                          l6156 4698                            l6148 4680                            l6084 448C  
                          l6092 44E2                            l6076 4454                            l6068 4428  
                          l7140 5C38                            l7132 5BC4                            l7124 5B78  
                          l7116 5B46                            l6420 4DEE                            l6412 4DB6  
                          l6404 4D2A                            l6340 4B52                            l6332 4B22  
                          l7300 407A                            l7060 5D22                            l7052 5D02  
                          l7044 5CA8                            l6164 69D0                            l6172 6B34  
                          l7036 3D06                            l7028 3CDC                            l7212 49E4  
                          l8020 5750                            l8012 5740                            l8004 572E  
                          l6502 6462                            l6318 52C8                            l6270 5126  
                          l6262 50DA                            l6254 50A2                            l6246 5064  
                          l6238 5040                            l6094 4508                            l6086 44C0  
                          l6078 4456                            l7150 5C80                            l7142 5C3A  
                          l7134 5C00                            l7126 5B84                            l7118 5B5C  
                          l6430 4E58                            l6422 4DF2                            l6414 4DC0  
                          l6406 4D54                            l6350 4B84                            l6342 4B62  
                          l6334 4B30                            l7310 4116                            l7302 4090  
                          l6182 681A                            l7070 5D9C                            l7062 5D2A  
                          l7054 5D06                            l7046 5CAC                            l6510 6546  
                          l6166 69D4                            l6174 6B4C                            l7214 49F6  
                          l7222 4A6E                            l7206 4948                            l8030 5762  
                          l8022 5754                            l8014 5744                            l8006 5736  
                          l7400 6C78                            l6504 6472                            l6600 5E7A  
                          l6280 5166                            l6272 5128                            l6264 50EE  
                          l6256 50B2                            l6192 4F40                            l6096 4518  
                          l6088 44C2                            l7152 5C82                            l7144 5C3E  
                          l7136 5C0C                            l7128 5BB6                            l6440 4EBA  
                          l6432 4E64                            l6424 4E00                            l6416 4DCE  
                          l6408 4D8A                            l6360 4BC4                            l6352 4B92  
                          l6344 4B68                            l6336 4B32                            l7312 4128  
                          l7304 40A0                            l6184 682A                            l7064 5D32  
                          l7048 5CB0                            l6520 6572                            l6512 654A  
                          l6168 6B24                            l7240 4B02                            l7224 4A92  
                          l7232 4AC2                            l7216 4A2A                            l7208 4976  
                          l7160 46DC                            l8040 57A8                            l8032 5766  
                          l8024 5756                            l8016 5748                            l8008 573A  
                          l7402 6C7C                            l6506 647A                            l6602 5E7C  
                          l6290 51A2                            l6282 5170                            l6274 5138  
                          l6266 50FC                            l6258 50C2                            l6194 4F4E  
                          l7146 5C62                            l7138 5C1A                            l7322 6B90  
                          l6450 4F22                            l6442 4ECE                            l6434 4E72  
                          l6426 4E2E                            l6418 4DE0                            l6370 4C0E  
                          l6362 4BCA                            l6354 4B94                            l6346 4B78  
                          l6338 4B42                            l7330 52DC                            l7314 41B8  
                          l7306 40D2                            l7250 3D38                            l6186 6BF6  
                          l7074 5DDA                            l7066 5D66                            l7058 5D0C  
                          l6530 65AA                            l6522 657A                            l6514 6558  
                          l6178 6A7C                            l7090 6256                            l7234 4AD0  
                          l7226 4AA0                            l7170 472A                            l7162 46EC  
                          l8050 5802                            l8042 57BA                            l8034 576A  
                          l8026 5758                            l8018 574C                            l7420 6A72  
                          l7404 6CA2                            l6604 5E8C                            l6292 51B0  
                          l6284 517E                            l6276 514A                            l6268 5108  
                          l6196 4F5C                            l6460 696C                            l7148 5C72  
                          l7324 6BB0                            l6452 4F24                            l6444 4EE8  
                          l6436 4E9C                            l6380 4C5E                            l6372 4C1A  
                          l6364 4BEA                            l6356 4BA4                            l6348 4B7E  
                          l7340 5360                            l7332 52EC                            l7316 41C8  
                          l7308 40E4                            l7260 3DF8                            l7252 3D48  
                          l7500 0BA6                            l6188 6C12                            l7076 5DEC  
                          l6540 65E4                            l6532 65C0                            l6524 658C  
                          l6516 6560                            l7092 6264                            l7084 6220  
                          l7228 4AB4                            l7172 474E                            l7164 46F0  
                          l7156 46AA                            l8060 5876                            l8052 5814  
                          l8044 57CC                            l8036 5782                            l8028 575A  
                          l7414 6A42                            l6470 63D2                            l6630 5F0A  
                          l6614 5EB6                            l6606 5E90                            l6294 51DE  
                          l6278 5160                            l6286 5190                            l6198 4F5E  
                          l6462 697C                            l7326 6BB2                            l6446 4F04  
                          l6454 4F2A                            l6438 4EA0                            l6390 4CA0  
                          l6382 4C6A                            l6374 4C24                            l6366 4BFA  
                          l6358 4BB4                            l7350 53E0                            l7342 5394  
                          l7334 5308                            l7318 41D8                            l7262 3E26  
                          l7254 3D7E                            l7246 3D28                            l7510 0C38  
                          l7502 0BCA                            l7430 0754                            l7422 06DA  
                          l7078 5DFE                            l6542 65EC                            l6534 65C8  
                          l6526 6594                            l6518 6564                            l6550 66E4  
                          l6710 56DC                            l6702 561C                            l7094 627C  
                          l7086 624A                            l7190 4874                            l7182 47FE  
                          l7174 4788                            l7166 4714                            l7158 46CE  
                          l7238 4ADE                            l8070 58CA                            l8054 5818  
                          l8046 57DE                            l8038 5796                            l7416 6A52  
                          l7408 6A3A                            l6480 63F8                            l6472 63DA  
                          l6632 5F1A                            l6624 5EDE                            l6616 5EC0  
                          l6608 5E9E                            l6288 519E                            l6456 4F2E  
                          l6448 4F14                            l6392 4CAC                            l6384 4C76  
                          l6376 4C3A                            l7360 5474                            l7352 5414  
                          l7344 539C                            l7336 533C                            l7280 3EF2  
                          l7264 3E3A                            l7272 3E72                            l7248 3D28  
                          l7600 1448                            l7520 0D78                            l7512 0C6C  
                          l7504 0BE8                            l7424 0722                            l6536 65CE  
                          l6528 659C                            l6552 6712                            l6712 5704  
                          l6704 5658                            l6640 64A6                            l6800 32E0  
                          l7096 6298                            l7192 4884                            l7176 47A8  
                          l7168 471C                            l7184 4810                            l8072 58E6  
                          l8064 58AC                            l8048 57F0                            l8056 581C  
                          _ADFM 007E07                            l7418 6A56                            l6490 6430  
                          l6482 6400                            l6474 63DE                            l6466 63C0  
                          l6626 5EEA                            l6618 5ECA                            l6298 5208  
                          l6394 4CBC                            l6386 4C84                            l6378 4C46  
                          l7362 5490                            l7354 541C                            l7346 53B8  
                          l7338 5344                            l6570 5FA8                            l6562 5F2C  
                          l7290 3FC0                            l7282 3F00                            l7274 3EC8  
                          l7266 3E48                            l7258 3DDA                            l7610 1518  
                          l7602 14B0                            l7530 0DCE                            l7514 0C7C  
                          l7522 0D9C                            l7506 0BFE                            l7450 0834  
                          l7442 07E6                            l7434 076A                            l6730 691A  
                          l6722 68D0                            l6538 65D4                            l6554 6722  
                          l6546 66A6                            l6714 5714                            l6706 568C  
                          l6650 64EC                            l6642 64B4                            l6810 336A  
                          l6802 32FA                            l7098 62AA                            l7194 48B6  
                          l7186 4832                            l7178 47B6                            l8066 58C0  
                          l8074 58F2                            l8058 5850                            l7372 6CAC  
                          l7380 6C4C                            l6492 6436                            l6484 6412  
                          l6476 63EC                            l6468 63C4                            l6628 5EFA  
                          l6396 4CD6                            l6388 4C90                            l7356 5438  
                          l7364 5498                            l7348 53C4                            l6580 602C  
                          l6572 5FB6                            l6564 5F5A                            l7292 3FD4  
                          l7284 3F68                            l7276 3EDC                            l7268 3E52  
                          l7700 1E6E                            l7612 153C                            l7620 157C  
                          l7604 14C8                            l7532 0DE4                            l7540 0E8A  
                          l7516 0CE0                            l7508 0C2A                            l7452 0850  
                          l7444 07F6                            l7436 078C                            l7428 0738  
                          l6724 68D4                            l6556 6746                            l6548 66D4  
                          l6660 6050                            l6708 56C8                            l6652 6518  
                          l6644 64C0                            l6636 6484                            l6900 3862  
                          l6820 3442                            l6812 33C4                            l6740 30D0  
                          l7196 48C8                            l7188 4842                            l8076 5902  
                          l8068 58C2                            l7374 6CB4                            l7390 6C56  
                          l7382 6C4E                            l6494 644C                            l6486 641A  
                          l6478 63F4                            l6398 4CE6                            l7366 54CA  
                          l7358 546C                            l6574 5FC8                            l6566 5F6A  
                          l7294 4012                            l7286 3F76                            l7278 3EE6  
                          l7710 1EEC                            l7702 1EA2                            l7630 16B0  
                          l7622 158C                            l7614 1550                            l7606 14E0  
                          l7542 0EAC                            l7518 0D60                            l7526 0DB0  
                          l7454 094E                            l7446 0804                            l7438 07AE  
                          l6718 6AB4                            l6726 68E8                            l6558 674C  
                          l6662 608E                            l6670 60CE                            l5950 6324  
                          l6654 652C                            l6646 64D4                            l6638 6492  
                          l6910 38C4                            l6902 3868                            l6830 348C  
                          l6822 3446                            l6814 33F8                            l6806 3330  
                          l6750 3120                            l6742 30D8                            l6734 30A8  
                          l7198 48DE                            l7392 6C58                            l7384 6C50  
                          l7376 6C3E                            l6496 6454                            l6488 6422  
                          l6592 5E24                            l6584 6AEC                            l5960 41F6  
                          l7368 54FE                            l6576 5FD6                            l6568 5F98  
                          l7296 405A                            l7288 3FA0                            l7800 27B8  
                          l7720 2062                            l7712 1F20                            l7704 1EB2  
                          l7640 170A                            l7632 16C0                            l7624 159C  
                          l7616 1560                            l7608 1504                            l7544 0ED0  
                          l7552 0FB6                            l7536 0E64                            l7528 0DC0  
                          l7472 0A46                            l7464 09EC                            l7456 09BA  
                          l7480 0A92                            l7448 0820                            l6728 6916  
                          l6672 60E0                            l6664 60B6                            l5952 6342  
                          l5944 62F6                            l6648 64E8                            l6680 67BA  
                          l6920 397A                            l6912 38D8                            l6904 389C  
                          l6840 34C8                            l6824 3458                            l6832 34A4  
                          l6816 3400                            l6808 3364                            l6760 3158  
                          l6752 312E                            l6744 30FC                            l6736 30B2  
                          l7394 6C5A                            l7386 6C52                            l7378 6C48  
                          l6498 6456                            l6594 5E3C                            l6586 6B02  
                          l5970 4236                            l5962 4204                            l6578 6026  
                          l7298 4064                            l7802 27DA                            l7810 29E2  
                          l7730 215E                            l7722 2088                            l7714 1F54  
                          l7706 1EC2                            l7650 1878                            l7642 1764  
                          l7634 16D0                            l7626 15FA                            l7618 156C  
                          l7570 11E8                            l7554 0FDA                            l7562 10D0  
                          l7546 0EDE                            l7538 0E7A                            l7482 0AAE  
                          l7474 0A54                            l7466 0A0E                            l7458 09D6  
                          l8098 5D50                            l6666 60C2                            l6658 6030  
                          l6690 5510                            l5954 6378                            l5946 6308  
                          l6930 39CA                            l6922 398E                            l6914 38E4  
                          l6906 38B0                            l6850 353C                            l6842 34E4  
                          l6826 346A                            l6818 3432                            l6770 31C0  
                          l6762 315C                            l6754 3140                            l6746 3106  
                          l6738 30C2                            l7396 6C5C                            l7388 6C54  
                          l6588 6B12                            l5980 4268                            l5972 4238  
                          l5964 4206                            l7820 2A60                            l7812 2A16  
                          l7804 290C                            l7740 222A                            l7732 216E  
                          l7724 20BC                            l7716 1F88                            l7708 1EDC  
                          l7660 19E8                            l7652 18D0                            l7644 17D6  
                          l7636 16E0                            l7628 167C                            l7580 1320  
                          l7572 121C                            l7564 1104                            l7556 0FF8  
                          l7548 0F4A                            l7492 0B58                            l7484 0ABC  
                          l7476 0A7C                            l7468 0A1C                            l6676 6124  
                          l6692 5530                            l5948 631A                            l6684 67F0  
                          l6940 39FE                            l6932 39D8                            l6924 39A0  
                          l6916 3908                            l6908 38B4                            l6860 3584  
                          l6852 354E                            l6844 3524                            l6828 3472  
                          l6772 31D2                            l6756 314C                            l6764 3162  
                          l6748 310E                            l7398 6C76                            l7910 6954  
                          l6598 5E50                            l5990 4290                            l5982 426A  
                          l5966 4216                            l5974 4240                            l5958 41EA  
                          l7830 2BAC                            l7822 2A94                            l7814 2A26  
                          l7806 299E                            l7750 22CC                            l7742 225E  
                          l7734 2188                            l7726 211A                            l7718 2004  
                          l7670 1B7C                            l7662 1A40                            l7654 1928  
                          l7646 17E6                            l7638 16FA                            l7590 13C6  
                          l7582 133A                            l7574 1250                            l7566 115C  
                          l7558 1064                            l7494 0B70                            l7486 0B08  
                          l6694 5588                            l6686 6802                            l6950 3A30  
                          l6942 3A0E                            l6934 39E8                            l6926 39AE  
                          l6918 396C                            l6870 35CC                            l6862 3592  
                          l6854 3560                            l6846 352E                            l6838 34B6  
                          l6790 32A8                            l6774 31EE                            l6766 3188  
                          l6782 3238                            l6758 3154                            l7904 6936  
                          l5992 42A0                            l5984 4270                            l5976 4250  
                          l5968 4226                            l7840 2CF8                            l7832 2BE0  
                          l7824 2AC8                            l7816 2A36                            l7808 29AE  
                          l7760 23F4                            l7752 22DC                            l7736 2198  
                          l7728 214E                            l7680 1CA4                            l7672 1BB0  
                          l7664 1A98                            l7656 195C                            l7648 1844  
                          l7592 13E2                            l7744 2292                            l7584 134A  
                          l7576 1300                            l7568 1190                            l7496 0B7E  
                          l7488 0B20                            l6696 559C                            l6960 3AD8  
                          l6952 3A42                            l6944 3A12                            l6936 39EC  
                          l6928 39B6                            l6880 36E0                            l6872 35DC  
                          l6864 35AA                            l6856 356E                            l6848 3534  
                          l6792 32C4                            l6784 325E                            l6776 3206  
                          l7920 68B6                            l7912 6876                            l7906 693A  
                          l5994 42B0                            l5986 427E                            l5978 4256  
                          l7850 2ED4                            l7842 2D50                            l7834 2C14  
                          l7826 2B20                            l7818 2A50                            l7762 2404  
                          l7754 2334                            l7746 22A2                            l7738 21CC  
                          l7690 1D22                            l7682 1CD8                            l7674 1C08  
                          l7666 1AF0                            l7658 1990                            l7594 1416  
                          l7586 137E                            l7578 1310                            l7930 5938  
                          l6698 55AA                            l6970 3B3A                            l6962 3AE0  
                          l6954 3A46                            l6946 3A18                            l6938 39F2  
                          l6890 3786                            l6874 35F0                            l6882 36E6  
                          l6866 35BC                            l6858 3572                            l6778 3210  
                          l7914 6888                            l7908 6950                            l5996 42B2  
                          l5988 4280                            l7860 2F90                            l7852 2F08  
                          l7844 2DA8                            l7836 2C48                            l7828 2B78  
                          l7780 25A2                            l7772 24A4                            l7764 2414  
                          l7756 238C                            l7748 22B2                            l7692 1D56  
                          l7684 1CE8                            l7676 1C3C                            l7668 1B48  
                          l7596 1428                            l7588 13B6                            l7924 5912  
                          l6980 3B7E                            l6972 3B48                            l6948 3A1E  
                          l6956 3A4C                            l6964 3AE4                            l6892 37B8  
                          l6884 370A                            l6876 3654                            l6868 35C4  
                          l6788 3296                            l7916 6890                            l5998 42BA  
                          l7862 2FD2                            l7854 2F3C                            l7846 2E00  
                          l7838 2CA0                            l7790 2674                            l7782 25EA  
                          l7774 24BC                            l7766 2438                            l7758 23C0  
                          l7694 1D8A                            l7686 1CF8                            l7678 1C70  
                          l7598 1438                            l7950 5A76                            l7942 597E  
                          l7926 5916                            l6990 3BB4                            l6982 3B86  
                          l6974 3B58                            l6966 3B08                            l6958 3AA4  
                          l6894 37C8                            l6886 373E                            l6878 36AC  
                          l7870 6750                            l7918 6898                            l7880 6C68  
                          l7864 3022                            l7856 2F70                            l7848 2E7C  
                          l7792 26CA                            l7776 2536                            l7696 1DBE  
                          l7688 1D12                            l7960 5ABE                            l7952 5A86  
                          l7944 59C2                            l7936 5942                            l7928 5920  
                          l6992 3BBC                            l6984 3B96                            l6976 3B5C  
                          l6968 3B26                            l6896 37D8                            l6888 3770  
                          l7872 6758                            l7890 6B70                            l7882 6C6C  
                          l7866 3072                            l7858 2F80                            l7698 1DF2  
                          l7962 5ACC                            l7954 5AA2                            l7946 59F8  
                          l7938 5960                            l6994 3BC8                            l6986 3B9E  
                          l6978 3B6C                            l6898 380C                            l7874 6766  
                          l7892 6B86                            l7884 6B5A                            l7788 2656  
                          l7796 2736                            l7956 5AAA                            l7948 5A6E  
                          l6996 3BCE                            l6988 3BAC                            l7876 6794  
                          l7886 6B5E                            l7878 6C60                            l7798 27A8  
                          l7958 5AB8                            l6998 3BF4                            l7888 6B60  
                          l7896 6922                            l7898 692E                            STR_1 067D  
                          STR_2 0695                            STR_3 067D                            STR_4 0682  
                          STR_5 068A                            STR_8 0686                            STR_9 068E  
                          _CREN 007D5C                            _LATC 000F8B                            u7110 6308  
                          u7111 6304                            u7200 4290                            u8000 4EE8  
                          u7120 631A                            u7201 428C                            u8001 4EE4  
                          u7121 6316                            u7210 42A0                            u8010 4F22  
                          u7130 6342                            u7211 429C                            u8011 4F1E  
                          u7131 633E                            u8020 63D2                            u7300 43E6  
                          u7220 42DC                            u8100 658C                            u7140 6378  
                          _RCIF 007CF5                            i1l61 6CA0                            u8021 63CE  
                          u7301 43E2                            u7221 42D8                            u8101 6588  
                          u7141 6374                            u8030 63EC                            u7310 43F6  
                          u7230 42EA                            u7150 4204                            u8110 65AA  
                          u8031 63E8                            u7311 43F2                            u7231 42E6  
                          u7151 4200                            u8111 65A6                            u8040 6412  
                          u7400 4554                            u7320 4428                            u7240 4358  
                          u7160 4216                            u8200 5FD6                            u8120 65C0  
                          u9000 3B08                            u8041 640E                            u7401 4550  
                          u7321 4424                            u7241 4354                            u7161 4212  
                          u8201 5FD2                            u8121 65BC                            u9001 3B04  
                          i1l58 6C8E                            u8050 6430                            u7410 4570  
                          u7330 4436                            u7250 4370                            u7170 4226  
                          u8210 6026                            u8130 65E4                            u9010 3B26  
                          u8051 642C                            u7411 456C                            u7331 4432  
                          u7251 436A                            u7171 4222                            u8211 6022  
                          u8131 65E0                            u9011 3B22                            u8060 644C  
                          u8220 6B02                            u7500 4648                            u7420 4580  
                          u7340 4454                            u7260 4372                            u7180 4268  
                          u8140 66D4                            u8300 6492                            u9100 3CC4  
                          u9020 3B3A                            i1l85 0054                            u8061 6448  
                          u8221 6AFE                            u7501 4644                            u7421 457C  
                          u7341 4450                            u7181 4264                            u8141 66D0  
                          u8301 648E                            u9021 3B36                            i1l78 6A38  
                          u8070 6472                            u8230 5E3C                            u7510 4668  
                          u7430 4592                            u7350 448C                            u7270 439A  
                          u7190 427E                            u8150 6712                            u8310 64B4  
                          u9110 3CDC                            u9030 3B48                            u8071 646E  
                          u8231 5E38                            u7511 4664                            u7431 458E  
                          u7351 4488                            u7271 4396                            u7191 427A  
                          u8151 670E                            u8311 64B0                            u9111 3CD8  
                          u9031 3B44                            u8240 5E70                            u7600 4F5C  
                          u7520 467A                            u7440 45A8                            u7360 44D2  
                          u7280 43B8                            u9120 5CCC                            u8080 6558  
                          u8160 6746                            u8400 611C                            u8320 650A  
                          u9040 3B7E                            u9200 627C                            u7601 4F58  
                          u7521 4676                            u7441 45A4                            u7361 44CE  
                          u7281 43B4                            u9121 5CC8                            u8081 6554  
                          u8161 6742                            u8321 6506                            u9041 3B7A  
                          u9201 6278                            u8250 5E9E                            u7610 4F6E  
                          u7530 4696                            u7450 45BE                            u7370 4508  
                          u7290 43D8                            u8170 5F5A                            u9130 5D02  
                          u8090 6572                            u8330 6518                            u8410 67EA  
                          u9050 3BAC                            u9210 6298                            u8251 5E9A  
                          u7611 4F6A                            u7531 4692                            u7451 45BA  
                          u7371 4504                            u7291 43D4                            u8171 5F56  
                          u9131 5CFE                            u8091 656E                            u8331 6514  
                          u8411 67E4                            u9051 3BA8                            u9211 6294  
                          u8260 5EB2                            u7700 5126                            u7620 4F7E  
                          u7460 45D2                            u7380 4518                            u9300 5C2A  
                          u8180 5F98                            u9140 5D1E                            u8340 6070  
                          u8500 5658                            u7540 69F4                            u8420 67EC  
                          u9060 3C30                            u9220 62AA                            u8261 5EAE  
                          u8245 5E66                            u7701 5122                            u7621 4F7A  
                          u7461 45CE                            u7381 4514                            u9301 5C26  
                          u8181 5F94                            u9141 5D1A                            u8501 5654  
                          u7541 69F0                            u9061 3C2C                            u9221 62A6  
                          u8270 5EDA                            u7710 514A                            u7630 4FC2  
                          u7470 45EC                            u7390 4544                            u9310 5C38  
                          u8190 5FB6                            u9150 5DD4                            u8350 608E  
                          u8510 56AC                            u7550 6B4C                            u8430 6802  
                          u9070 3C4A                            u9230 62D2                            u8271 5ED6  
                          u7711 5146                            u7631 4FBE                            u7471 45E8  
                          u7391 4540                            u9311 5C34                            u8191 5FB2  
                          u9151 5DCE                            u8351 608A                            u7551 6B48  
                          u8431 67FE                            u9071 3C46                            u9231 62CE  
                          u8280 5EFA                            u7800 526A                            u7720 5160  
                          u7640 4FD4                            u7480 4626                            u9320 5C72  
                          u9240 5AF2                            u9160 5DD6                            u8360 60B6  
                          u8520 56C8                            u8440 5558                            u7560 6AAC  
                          u9080 3C62                            u8600 312E                            u9400 4842  
                          u8281 5EF6                            u7801 5266                            u7721 515C  
                          u7641 4FD0                            u7481 4622                            u9321 5C6E  
                          u9241 5AEE                            u8361 60B2                            u8345 6066  
                          u8521 56C4                            u7561 6AA6                            u9081 3C5E  
                          u8601 312A                            u9401 483E                            u8290 5F0A  
                          u7810 529A                            u7730 517E                            u7650 4FE4  
                          u7490 4638                            u9330 5C80                            u9250 5B00  
                          u9170 5DEC                            u8370 60E0                            u8530 5704  
                          u8450 5588                            u7570 6AAE                            u9090 3CC2  
                          u8610 3140                            u9410 4884                            u8291 5F06  
                          u7811 5296                            u7731 517A                            u7651 4FE0  
                          u7491 4634                            u9331 5C7C                            u9251 5AFC  
                          u9171 5DE8                            u8371 60DC                            u8531 5700  
                          u8515 56A2                            u8451 5584                            u9091 3CBC  
                          u8611 313C                            u9411 4880                            u7820 52C8  
                          u7740 519E                            u7660 5024                            u9260 5B5C  
                          u7900 4BFA                            u9500 3E26                            u7580 6862  
                          u8540 6AE4                            u9180 5DFE                            u8460 55AA  
                          u8700 332C                            u8620 3188                            u9420 48C8  
                          u9340 46CE                            u7821 52C4                            u7741 519A  
                          u7661 5020                            u9261 5B58                            u7901 4BF6  
                          u9501 3E22                            u8541 6ADE                            u9181 5DFA  
                          u8461 55A6                            u8445 554E                            u8701 3328  
                          u8621 3184                            u9421 48C4                            u9341 46CA  
                          u7750 51B0                            u7670 5064                            u9270 5BB2  
                          u7910 4D74                            u7830 4B30                            u9510 3E48  
                          u7590 6874                            u8550 6AE6                            u8390 611A  
                          u8710 33C0                            u8630 31B8                            u9190 624A  
                          u9430 4976                            u9350 4714                            u7751 51AC  
                          u7671 5060                            u9271 5BAE                            u7831 4B2C  
                          u9511 3E44                            u7591 6870                            u8391 6114  
                          u8711 33BC                            u8631 31B2                            u9191 6246  
                          u9431 4972                            u9351 4710                            u7760 51DE  
                          u7680 50DA                            u9280 5BFC                            u7920 4DCE  
                          u7840 4B42                            u9600 4116                            u8560 68E8  
                          u8480 5618                            u8800 354E                            u8720 3432  
                          u8640 31BA                            u9440 49DE                            u9360 474E  
                          u7761 51DA                            u7681 50D6                            u9281 5BF8  
                          u7921 4DCA                            u7841 4B3E                            u9601 4112  
                          u8561 68E4                            u8385 60F2                            u8481 5614  
                          u8801 354A                            u8721 342E                            u9441 49D8  
                          u9361 474A                            u7770 51F4                            u7690 50FC  
                          u9290 5C1A                            u7930 4DEE                            u7850 4B52  
                          u9530 3EC8                            u8570 6916                            u8490 563C  
                          u8810 3560                            u8730 3458                            u8650 31D2  
                          u9450 49E0                            u9370 47F8                            u7771 51F0  
                          u7691 50F8                            u9291 5C16                            u7931 4DEA  
                          u7915 4D6A                            u7851 4B4E                            u9531 3EC4  
                          u7587 6858                            u8571 6912                            u8475 55BE  
                          u8811 355C                            u8731 3454                            u8651 31CE  
                          u9371 47F2                            u7780 5208                            u7940 4E00  
                          u7860 4B92                            u9620 5308                            u9540 3F00  
                          u9700 0722                            u8476 55C8                            u8900 3862  
                          u8820 356E                            u8740 346A                            u8660 325E  
                          u8580 30D0                            u9460 49F6                            u9380 47FA  
                          u7781 5204                            u7941 4DFC                            u7861 4B8E  
                          u9621 5304                            u9541 3EFC                            u9525 3E86  
                          u9701 071E                            u8477 55D8                            u8901 385E  
                          u8821 356A                            u8741 3466                            u8661 325A  
                          u8581 30CC                            u9461 49F2                            u7790 5222  
                          u7950 4E2E                            u7870 4BA4                            u9630 5360  
                          u9550 3F76                            u9526 3E90                            u9710 0754  
                          u8910 38B0                            u8830 3584                            u8750 348C  
                          u8670 328E                            u8590 3120                            u9470 4A92  
                          u9390 4810                            u7791 521E                            u7951 4E2A  
                          u7871 4BA0                            u9631 535C                            u9615 4198  
                          u9551 3F72                            u9527 3EA0                            u9711 0750  
                          u8495 5632                            u8911 38AC                            u8831 3580  
                          u8751 3488                            u8671 3288                            u8591 311C  
                          u9471 4A8E                            u9391 480C                            u7960 4E44  
                          u7880 4BB4                            u9640 53B8                            u9560 4012  
                          u9480 3D7E                            u9800 094E                            u9720 078C  
                          u8920 38D8                            u8840 3592                            u8760 34B2  
                          u8680 3290                            u7961 4E40                            u7881 4BB0  
                          u9641 53B4                            u9561 400E                            u9481 3D7A  
                          u9801 094A                            u9721 0788                            u8921 38D4  
                          u8841 358E                            u8761 34AE                            u7970 4E58  
                          u7890 4BEA                            u9650 53E0                            u9570 407A  
                          u9490 3DF8                            u9810 09BA                            u9730 07AE  
                          u8930 397A                            u8850 35BC                            u8770 34C8  
                          u8690 32A8                            u7971 4E54                            u7891 4BE6  
                          u9651 53DC                            u9571 4076                            u9491 3DF4  
                          u9811 09B6                            u9731 07AA                            u8931 3976  
                          u8851 35B8                            u8771 34C4                            u8691 32A4  
                          u7980 4E72                            u9660 5438                            u9580 4090  
                          u9900 0B7E                            u9820 09D6                            u9740 0804  
                          u8940 398E                            u8860 370A                            u8780 34E4  
                          u7981 4E6E                            u9661 5434                            u9581 408C  
                          u9901 0B7A                            u9821 09D2                            u9741 0800  
                          u8941 398A                            u8861 3706                            u8781 34E0  
                          u7990 4EBA                            u9670 5490                            u9590 40D2  
                          u9910 0BE8                            u9830 0A0E                            u9750 0820  
                          u8950 39A0                            u8870 3770                            u8790 3524  
                          u7991 4EB6                            u9671 548C                            u9591 40CE  
                          u9911 0BE4                            u9831 0A0A                            u9751 081C  
                          u8951 399C                            u8871 376C                            u8791 3520  
                          u9920 0BFE                            u9840 0A1C                            u9760 0850  
                          u8960 39AE                            u8880 37B8                            u9921 0BFA  
                          u9841 0A18                            u9761 084C                            u8961 39AA  
                          u8881 37B4                            u9690 6A72                            u9930 0C1A  
                          u9850 0A54                            u8970 39CA                            u8890 37C8  
                          u9691 6A6E                            u9931 0C16                            u9851 0A50  
                          u8971 39C6                            u8891 37C4                            u9940 0C38  
                          u9860 0AAE                            u8980 39D8                            u9685 54AA  
                          u9941 0C34                            u9861 0AAA                            u8981 39D4  
                          u9950 0C7C                            u9870 0ABC                            u9790 0914  
                          u8990 3A30                            u9951 0C78                            u9871 0AB8  
                          u9775 0866                            u8991 3A2C                            u9960 0CE0  
                          u9880 0B20                            u9776 0870                            u9961 0CDC  
                          u9881 0B1C                            u9785 08C0                            u9777 0880  
                          u9970 0D78                            u9890 0B70                            u9786 08CA  
                          u9971 0D74                            u9891 0B6C                            u9795 090A  
                          u9787 08DA                            u9980 0DCE                            u9981 0DCA  
                          u9990 0DE4                            u9991 0DE0                            _dbuf 0208  
                          _cp_h 0679                            _cp_l 0675                            _dp_h 0609  
                          _dp_l 0601                            _atoi 5C94                            _main 5726  
                          _nanf 6C1C                            _huge 0661                            _prec 0060  
                          _time 006A                            _nout 01FA                            _powf 069A  
                          pad@i 0029                            pad@p 0026                            _tiny 065D  
                          fsr1h 000FE2                            fsr2h 000FDA                            indf1 000FE7  
                          indf2 000FDF                            fsr1l 000FE1                            pad@w 002B  
                          fsr2l 000FD9                            btemp 006E                __end_of_ADC_Read 6B90  
                 ___fpclassifyf 6030                            prodh 000FF4                            prodl 000FF3  
                          start 006C                 ___fldiv@new_exp 0085                    _tolower$1764 001E  
                  ___param_bank 000000                           ??_pad 0028                ?_UART_Initialize 0001  
__size_of_OSCILLATOR_Initialize 0008   __end_of_OSCILLATOR_Initialize 6CB4                   ___fltol@sign1 005C  
                         ?_atoi 0019                 __end_of___fladd 46AA                           ?_main 0001  
                         ?_nanf 0012                 __end_of___fldiv 52DC                 __end_of___awdiv 6484  
               __end_of___flneg 6B24                           STR_12 0692                           STR_14 0692  
                         STR_17 0697                 __end_of___awmod 65F6                 __end_of___flmul 4F40  
                         ?_powf 00A8                 __end_of___flsub 69B2                 __end_of___fltol 5F2C  
                         u10000 0E7A                           u10001 0E76                           u10010 0EAC  
                         u10011 0EA8                           u10020 0ED0                           u10021 0ECC  
                         u10110 2438                           u10030 0EDE                           u10111 2434  
                         u10031 0EDA                           u10120 24BC                           u10040 0FDA  
                         u10121 24B8                           u10105 1776                           u10041 0FD6  
                         u10130 2536                           u10050 0FF8                           u10131 2532  
                         u10051 0FF4                           u10300 696A                           u10140 25EA  
                         u10060 13E2                           u10301 6966                           u10205 285E  
                         u10141 25E6                           u10061 13DE                           u10230 299E  
                         u10206 2868                           u10150 2674                           u10310 5960  
                         u10231 299A                           u10215 28B6                           u10207 2878  
                         u10151 2670                           u10311 595C                           u10216 28C0  
                         u10160 26CA                           u10080 1504                           u10320 597A  
                         u10400 5796                           u10225 2964                           u10217 28D0  
                         u10161 26C6                           u10081 1500                           u10321 5976  
                         u10401 5792                           u10226 296E                           u10090 153C  
                         u10330 5A84                           u10410 57A8                           u10227 297E  
                         u10091 1538                           u10075 145E                           u10331 5A80  
                         u10411 57A4                           u10260 3022                           u10180 27DA  
                         u10076 1468                           u10340 5ACC                           u10500 5902  
                         u10420 57BA                           u10261 301E                           u10245 2FA2  
                         u10181 27D6                           u10077 1478                           u10341 5AC8  
                         u10501 58FE                           u10421 57B6                           u10350 5ADE  
                         u10270 67B0                           u10430 57CC                           u10255 2FE8  
                         u10175 2766                           u10351 5ADA                           u10271 67AC  
                         u10431 57C8                           u10280 6B70                           u10256 2FF2  
                         u10176 2770                           u10440 57DE                           u10281 6B6C  
                         u10257 3002                           u10177 2780                           u10441 57DA  
                         u10290 6950                           u10450 57F0                           u10291 694C  
                         u10195 27F4                           u10451 57EC                           u10196 27FE  
                         u10460 5802                 ___awdiv@divisor 0014                           u10197 280E  
                         u10461 57FE                           u10470 5814                           u10471 5810  
                         u10480 58A8                           _T1CON 000FCD                           u10481 58A4  
                         u10490 58C0                           u10491 58BC                           _T2CON 000FCA  
                         _IRCF0 007E9C                           _IRCF1 007E9D                           _IRCF2 007E9E  
                         i1l485 66A4                           i2l198 621C                 ___awdiv@counter 0016  
                         _RCREG 000FAE                    vfpfcnvrt@fmt 00CF                           _TMR1H 000FCF  
                         _TMR1L 000FCE                           _SPBRG 000FAF                           _TRISA 000F92  
                         _TRISC 000F94                           _TXREG 000FAD                     ?_UART_Write 0001  
                         _lg2_h 0629                  i1___awmod@sign 000C                           _lg2_l 0625  
                         _fabsf 6B90                           _delay 6922                           _flags 0062  
                         _count 0066                           _errno 01F8                           _ivln2 0619  
                         _fputc 62F6                           _fputs 69B2                 __end_of_isdigit 6AEC  
               __end_of_ivln2_h 0675                 __end_of_ivln2_l 0619                           _two24 0665  
               __end_of_scalbnf 5510                           atoi@n 0026                           pad@fp 0022  
                         atoi@s 0019                           _width 005E                           _putch 6CBC  
                         main@n 00FB                           _sqrtf 3D28                     _ClearBuffer 6A3A  
                         nanf@s 0012                           nanf@u 0016                 __end_of_isspace 6922  
               __end_of_isupper 6AB4                           tablat 000FF5                           powf@i 012C  
                         powf@j 01AC                           powf@k 01A0                           powf@n 0180  
                         powf@r 014C                           powf@s 015C                           powf@t 01B0  
                         powf@u 0174                           powf@v 0178                           powf@w 0144  
                         powf@x 00A8                           powf@y 00AC                           powf@z 01B4  
                         ttemp5 006F                           ttemp6 0072                           ttemp7 0076  
                         status 000FD8                           wtemp8 006F                 __end_of_sprintf 68D0  
                ?___fpclassifyf 0012                 __end_of_tolower 681A              __size_ofi1___awmod 00B0  
               __end_of_strncmp 62F6                 __initialization 6BC4                    __end_of_cp_h 067D  
                  __end_of_cp_l 0679                    __end_of_dp_h 0611                    __end_of_dp_l 0609  
                  __end_of_atoi 5E24                    __end_of_main 5912                    __end_of_nanf 6C3E  
                  __end_of_huge 0665                    __end_of_powf 30A8                    __end_of_tiny 0661  
                        ??_atoi 001B                          ??_main 00EF                          ??_nanf 0016  
              ?_CCP1_Initialize 0001                          ??_powf 00B0                   __activetblptr 000002  
            __size_of_GetString 000A                          ?_fabsf 0012                          ?_delay 0012  
                        _ADCON1 000FC1                          ?_fputc 0012                          ?_fputs 001B  
                        _ADRESH 000FC4                          _ADRESL 000FC3                          _CCPR1L 000FBE  
                        _CCPR2L 000FBB                ___awdiv@dividend 0012                          ?_putch 0001  
                        ?_sqrtf 0053                          i1l5182 6C8E                          i1l5184 6C9C  
                        i1l5710 69F6                          i1l5712 6A06                          i1l5714 6A18  
                        i1l5802 002E                          i1l5660 65F6                          i1l5716 6A1C  
                        i1l5804 003C                          i1l5670 6622                          i1l5662 65FA  
                        i1l5806 004A                          i1l5680 665A                          i1l5672 662A  
                        i1l5664 6608                          i1l5808 0050                          i1l5690 6694  
                        i1l5682 6670                          i1l5674 663C                          i1l5666 6610  
                        i1l5692 669C                          i1l5684 6678                          i1l5676 6644  
                        i1l5668 6614                          i2l3550 614C                          i1l5686 667E  
                        i1l5678 664C                          i2l3560 6184                          i2l3552 6164  
                        i2l3544 6130                          i1l5688 6684                          i2l3570 61B8  
                        i2l3562 6188                          i2l3546 6132                          i2l3580 6208  
                        i2l3564 618E                          i2l3572 61D4                          i2l3548 613A  
                        i2l3574 61E4                          i2l3566 61A8                          i2l3558 6170  
                        i2l3582 6214                          i2l3576 61E8                          i2l3568 61B4  
                        i2l3584 6218                          i2l3586 621A                          i2l3578 61EC  
              __end_of___xxtofl 5C94                          _Lo_ISR 0018                    vfprintf@cfmt 00E3  
                        ___flge 5F2C                          ___fleq 66A6             __size_of_UART_Write 0016  
                     ??___fladd 001A                          ___wmul 6BF6                       ??___fldiv 004F  
                     ??___awdiv 0016                       ??___flneg 0016                       ??___awmod 0016  
                     ??___flmul 002E                       ??___flsub 0047                       ??___fltol 00BD  
                        _efgtoa 30A8                 ADC_Read@channel 0012                          _lenStr 006C  
                        _floorf 5510                          fabsf@u 0016                          fabsf@x 0012  
                        delay@i 0014                          delay@j 0016                 ADC_Read@digital 0016  
                        clear_0 6BCA                          clear_1 6BD6                          clear_2 6BE2  
              ___awdiv@quotient 0018                 ___awmod@divisor 0014                 ___awmod@counter 0016  
                        pad@buf 0024                          main@m2 00F1                          _strcpy 681A  
                        _strlen 6B24               __end_ofi1___awmod 66A6                          fputc@c 0012  
                        fputs@c 001F                          fputs@i 0020                          fputs@s 001B  
                     ??_isdigit 0014                __end_of_set_time 5AE0                       ??_scalbnf 0045  
               ___fpclassifyf@e 001A                 ___fpclassifyf@u 001C                       ?_ADC_Read 0012  
               ___fpclassifyf@x 0012                    __mediumconst 0000                       ??_isspace 0014  
                        powf@s2 018C                          powf@t1 0184                          powf@t2 011C  
                        tblptrh 000FF7                       ??_isupper 0014                          tblptrl 000FF6  
                        powf@y1 0128                          tblptru 000FF8                          powf@ax 0170  
                        powf@is 0194                          powf@hx 0160                          powf@hy 017C  
                        powf@ix 01A8                          powf@iy 0190                          powf@sn 0188  
                        putch@c 0001                __end_of_vfprintf 67BA                          sqrtf@i 0088  
                        sqrtf@m 009C                          sqrtf@q 0090                          sqrtf@r 00A0  
                        sqrtf@s 0084                          sqrtf@t 0094                          sqrtf@x 0053  
                        sqrtf@z 0098                _tiny@sqrtf$F1715 0611                       ??_sprintf 005E  
                     ??_tolower 001A                       ??_strncmp 0018   __size_of_INTERRUPT_Initialize 0008  
                    ___flge@ff1 0047                      ___flge@ff2 004B                 ??___fpclassifyf 0016  
                  ___xxtofl@arg 0022                    ___xxtofl@exp 0021               _SYSTEM_Initialize 6C60  
                  ___xxtofl@val 0018                      ___fleq@ff1 0012                      ___fleq@ff2 0016  
                    __accesstop 0080         __end_of__initialization 6BE8                      ___flneg@f1 0012  
            ?_SYSTEM_Initialize 0001                   ___rparam_used 000001                      ___fltol@f1 00B9  
             __end_of_GetString 6CAC                  __pcstackCOMRAM 0001                   __end_of_lg2_h 062D  
                 __end_of_lg2_l 0629             ??_SYSTEM_Initialize 0012                   __end_of_fabsf 6BC4  
                 __end_of_delay 696C                   __end_of_ivln2 061D                   __end_of_fputc 63C0  
                 __end_of_fputs 69F6                   __end_of_two24 0669                   __end_of_putch 6CBE  
                 __end_of_sqrtf 41EA                      __end_of_L1 065D                      __end_of_L2 0659  
                    __end_of_L3 0655                      __end_of_L4 0651                      __end_of_L5 064D  
                    __end_of_L6 0649                      __end_of_P1 0645                      __end_of_P2 0641  
                    __end_of_P3 063D                      __end_of_P4 0639                      __end_of_P5 0635  
                    __end_of_bp 0671                      __end_of_cp 0621                      ??_ADC_Read 0014  
                 ??_MyusartRead 000D                         ??_fabsf 0016                         ??_delay 0014  
                       ??_fputc 0016       __end_of_SYSTEM_Initialize 6C76                         ??_fputs 001F  
                       ??_putch 0012                         ??_sqrtf 0057                      __pbssBANK1 01F4  
                    __pbssBANK2 0200                         ?_Lo_ISR 0001                         ?___flge 0047  
                       ?___fleq 0012                         ?___wmul 0012                         ?_efgtoa 00C1  
                       ?_floorf 0053         __size_of_ADC_Initialize 0016                         ?_strcpy 0014  
                       ?_strlen 0012                       ?___xxtofl 0018                    ??_UART_Write 0007  
            __size_of_vfpfcnvrt 046C                 my_isr_routine@i 0005         __size_of_my_isr_routine 6218  
                  ?_ClearBuffer 0001             __end_of_MyusartRead 6A3A                 __size_of_Lo_ISR 0054  
                       __Hparam 0000                         __Lparam 0000                       ?_set_time 0001  
               __size_of___flge 0104                 __size_of___fleq 00AA                         ___fladd 41EA  
                       ___fldiv 4F40                         ___awdiv 63C0                         ___flneg 6AEC  
                       ___awmod 6546                         ___flmul 4B16                         ___flsub 696C  
                       ___fltol 5E24                 __size_of___wmul 0026              __end_of_UART_Write 6CA2  
                     ?_vfprintf 0280                    __psmallconst 0600                 __size_of_efgtoa 0C80  
               __size_of_floorf 0216                         __pcinit 6BC4                         __ramtop 0600  
                       __ptext0 5726                         __ptext1 6876                         __ptext2 6750  
                       __ptext3 46AA                         __ptext4 6220                         __ptext5 30A8  
                       __ptext6 67BA                         __ptext7 6A7C                         __ptext8 6484  
                       __ptext9 6B24                 __size_of_strcpy 005C                 __size_of_strlen 0036  
                     _T1CONbits 000FCD           _OSCILLATOR_Initialize 6CAC                    __size_of_pad 00C2  
                       _isdigit 6AB4                         _ivln2_h 0671                         _ivln2_l 0615  
                    ??___xxtofl 001C                         _scalbnf 52DC                ___awmod@dividend 0012  
      __size_of_UART_Initialize 0022                         _isspace 68D0                         _isupper 6A7C  
                       efgtoa@c 00C7                         efgtoa@d 01D4                         efgtoa@e 01EC  
                       efgtoa@f 00C3                         efgtoa@g 01E8                         efgtoa@h 01DE  
                       efgtoa@i 01E6                         efgtoa@l 01E2                         efgtoa@m 01CE  
                       efgtoa@n 01EE                         efgtoa@p 01D8                         efgtoa@t 01C8  
                       efgtoa@u 01F0                         efgtoa@w 01DA                         atoi@neg 001F  
    __size_of_SYSTEM_Initialize 0016                         _sprintf 6876                         _tolower 67BA  
                       _strncmp 6220                  __pintcode_body 612E            end_of_initialization 6BE8  
                       floorf@e 0091                         floorf@m 008D                         floorf@u 0093  
                       floorf@x 0053                         fputc@fp 0014                   __Lmediumconst 0000  
                       int_func 612E                         fputs@fp 001D                         powf@p_h 019C  
                       powf@p_l 0164                         powf@s_h 016C                         powf@t_h 0168  
                       powf@s_l 0130                         powf@t_l 0134                         powf@z_h 0120  
                       powf@z_l 0124                      ??_set_time 00C1               __end_of_vfpfcnvrt 4B16  
                    efgtoa@mode 01DD                      efgtoa@sign 01D6                       _RCSTAbits 000FAB  
                       postdec2 000FDD                         postinc0 000FEE                         postinc1 000FE6  
                       postinc2 000FDE        __end_of_tiny@sqrtf$F1715 0615                      ??_vfprintf 005E  
                       sqrtf@ix 00A4                         strcpy@d 001C                         strlen@a 0014  
                       strcpy@s 001A                         strlen@s 0012                  UART_Write@data 0007  
                   ___fladd@grs 0021                   ___xxtofl@sign 0020                       _TRISCbits 000F94  
                   _MyusartRead 69F6                       i1___awmod 65F6                     ___fldiv@grs 0087  
                   ___fldiv@rem 0080               __size_of_ADC_Read 0036        __size_of_CCP1_Initialize 0002  
                   ___flmul@grs 0034                     _CCP1CONbits 000FBD                     _CCP2CONbits 000FBA  
                     _TXSTAbits 000FAC                  __end_of_Lo_ISR 006C    __end_of_INTERRUPT_Initialize 6CBC  
                __end_of___flge 6030                  __end_of___fleq 6750                       _GetString 6CA2  
                   vfpfcnvrt@ap 00D1                     vfpfcnvrt@ct 00DF                     vfpfcnvrt@fp 00CD  
                __end_of___wmul 6C1C                     _BAUDCONbits 000FB8                  __end_of_efgtoa 3D28  
                _ADC_Initialize 6C76                  __end_of_floorf 5726          ?_OSCILLATOR_Initialize 0001  
                    floorf@F527 0204                  __end_of_strcpy 6876                  __end_of_strlen 6B5A  
           start_initialization 6BC4                     __end_of_lg2 0631                     __end_of_pad 6546  
                    ?i1___awmod 0007                     __end_of_ovt 0625                  _my_isr_routine 0008  
                  ClearBuffer@i 0012               ??_UART_Initialize 0012            __size_of_ClearBuffer 0042  
         __end_of___fpclassifyf 612E                        ??_Lo_ISR 000D                     vfprintf@fmt 0282  
                      ??___flge 004F                        ??___fleq 001A                        ??___wmul 0016  
                      ??_efgtoa 00C8          __end_of_ADC_Initialize 6C8C                      ?_GetString 0012  
            i1___awmod@dividend 0007                        ??_floorf 0057                        ??_strcpy 0018  
                      ??_strlen 0014                       ___fladd@a 0016                       ___fladd@b 0012  
                     ___fldiv@a 004B                       ___fldiv@b 0047                       ___flmul@a 002A  
                     ___flmul@b 0026                     __pbssCOMRAM 005E                       ___flsub@a 0043  
                     ___flsub@b 003F                   __pcstackBANK0 0080                   __pcstackBANK1 0100  
                 __pcstackBANK2 0280          __end_of_my_isr_routine 6220               __size_of___xxtofl 01B4  
                     _atoi$1526 0021                       _atoi$1527 0025                       _atoi$1528 0023  
             ??_CCP1_Initialize 0012                     _delay_cycle 0068                     _efgtoa$1462 01BC  
                   _efgtoa$1463 01BE                     _efgtoa$1472 01C2                     _efgtoa$1473 01C4  
                   _efgtoa$1474 01C6                     _efgtoa$1468 01C0                       __pintcode 0008  
                      ?___fladd 0012                        ?___fldiv 0047                        ?___awdiv 0012  
                      ?___flneg 0012                        ?___awmod 0012                        ?___flmul 0026  
                      ?___flsub 003F                        ?___fltol 00B9                 ?_ADC_Initialize 0001  
             __size_of_set_time 01CE                     __pintcodelo 0018               __size_of_vfprintf 006A  
                     fabsf@F465 0200                     __smallconst 0600                        ?_isdigit 0012  
                      ?_scalbnf 003F                        _ADC_Read 6B5A                        ?_isspace 0012  
                      ?_isupper 0012                 ?_my_isr_routine 0001                     ??i1___awmod 000B  
                __size_of_fabsf 0034                  __size_of_delay 004A                        ?_sprintf 0286  
                      ?_tolower 0018                  __size_of_fputc 00CA                  __size_of_fputs 0044  
                      ?_strncmp 0012                  __size_of_putch 0002                  __size_of_sqrtf 04C2  
          _INTERRUPT_Initialize 6CB4                       _powf$1982 01A4                       _powf$1990 013C  
                     _powf$1983 0154                       _powf$1991 0140                       _powf$1984 0148  
                     _powf$1992 0108                       _powf$1985 0198                       _powf$1993 010C  
                     _powf$1986 0138                       _powf$1994 0110                       _powf$1995 0114  
                     _powf$1987 0100                       _powf$1996 0118                       _powf$1988 0104  
                     _powf$1989 0158                  ___wmul@product 0016                        _IPR1bits 000F9F  
                      _PIE1bits 000F9D                        i1u617_20 6C9C                        i1u617_21 6C98  
                      i2u340_40 6184                        i2u340_41 6180                        i2u341_40 61D4  
                      i2u341_41 61D0                        i2u342_40 61E4                        i2u342_41 61E0  
                      i2u343_40 6208                        i2u343_41 6204                        i1u680_20 665A  
                      i1u680_21 6656                        i1u681_20 6670                        i1u681_21 666C  
                      _PIR1bits 000F9E                        i1u682_20 6694                        i1u682_21 6690  
                      i2u338_40 614C                        i2u338_41 6148                        i2u339_40 6164  
                      i2u339_41 6160                        i1u677_20 6608                        i1u677_21 6604  
                      i1u678_20 6622                        i1u694_20 003C                        i1u678_21 661E  
                      i1u694_21 0038                        i1u679_20 663C                        i1u695_20 004A  
                      i1u679_21 6638                        i1u695_21 0046                        _RCONbits 000FD0  
                    powf@yisint 0150                     ??_GetString 0014                   _set_time$1980 00C5  
                 _set_time$1981 00C9                       _vfpfcnvrt 46AA                      _ADCON0bits 000FC2  
                    _ADCON2bits 000FC0               ___wmul@multiplier 0012                    ?_MyusartRead 0001  
                  _isspace$1557 0018                      vfpfcnvrt@c 00E2                      vfpfcnvrt@f 00DB  
         ?_INTERRUPT_Initialize 0001                        __Hrparam 0000                      vfprintf@ap 0284  
                      __Lrparam 0000                      vfprintf@fp 0280               i1___awmod@divisor 0009  
       ??_OSCILLATOR_Initialize 0012               i1___awmod@counter 000B                __size_of___fladd 04C0  
              __size_of___fldiv 039C                __size_of___awdiv 00C4                __size_of___flneg 0038  
              __size_of___awmod 00B0                __size_of___flmul 042A                __size_of___flsub 0046  
              __size_of___fltol 0108                      ?_vfpfcnvrt 00CD              ___fpclassifyf@F465 01F4  
               _UART_Initialize 6C3E                      sprintf@fmt 0288                        ___xxtofl 5AE0  
              __size_of_isdigit 0038                __size_of_scalbnf 0234                __size_of_isspace 0052  
                      __ptext10 69B2                        __ptext11 62F6                        __ptext20 6BF6  
                      __ptext12 6CBC                        __ptext21 5912                        __ptext13 5510  
                      __ptext30 5AE0                        __ptext22 681A                        __ptext14 6030  
                      __ptext31 696C                        __ptext23 069A                        __ptext15 66A6  
                      __ptext40 6C60                        __ptext32 41EA                        __ptext24 3D28  
                      __ptext16 6546                        __ptext41 6C3E                        __ptext33 6AEC  
                      __ptext25 6C1C                        __ptext17 5C94                        __ptext50 6C8C  
                      __ptext42 6CAC                        __ptext34 4F40                        __ptext26 5F2C  
                      __ptext18 68D0                        __ptext43 6CB4                        __ptext35 5E24  
                      __ptext27 52DC                        __ptext19 6AB4                        __ptext44 6CBE  
                      __ptext36 63C0                        __ptext28 4B16                        __ptext45 6C76  
                      __ptext37 6CA2                        __ptext29 6B90                        __ptext46 6B5A  
                      __ptext38 6A3A                        __ptext39 6922                        __ptext48 69F6  
                      __ptext49 65F6                __size_of_isupper 0038                __size_of_sprintf 005A  
              __size_of_tolower 0060                      strcpy@dest 0014                __size_of_strncmp 00D6  
                 __size_of_atoi 0190                   __size_of_main 01EC                   __size_of_nanf 0022  
                 __size_of_powf 2A0E                        delay@val 0012                       set_time@b 00CD  
                     set_time@i 00D1                       set_time@j 00CF            powf@__xc8_float_word 01B8  
                      efgtoa@fp 00C1                        efgtoa@ne 01CC                        efgtoa@pp 01CA  
                      efgtoa@ou 01D0                        _set_time 5912                        int$flags 006E  
                      _vfprintf 6750                        _mystring 026C                  _vfpfcnvrt$1492 00D9  
                _vfpfcnvrt$1488 00D7                      _INTCONbits 000FF2                 _CCP1_Initialize 6CBE  
                      isdigit@c 0012          ??_INTERRUPT_Initialize 0012                   ??_ClearBuffer 0012  
                      scalbnf@n 0043                        scalbnf@u 0049                        scalbnf@x 003F  
                      scalbnf@y 004D                        intlevel1 0000                        intlevel2 0000  
                     sprintf@ap 00E7                        isspace@c 0012                       strcpy@src 0016  
                      isupper@c 0012                       strncmp@_l 0012                       strncmp@_r 0014  
              ??_ADC_Initialize 0012           my_isr_routine@counter 0003                     efgtoa@nmode 01DC  
       __end_of_UART_Initialize 6C60                     ??_vfpfcnvrt 00D3                ??_my_isr_routine 0001  
                      sprintf@f 00E9                        tolower@c 0018                        sprintf@s 0286  
        __size_of___fpclassifyf 00FE                        strncmp@l 0019                        strncmp@n 0016  
                      strncmp@r 001B                      _UART_Write 6C8C                   ___fladd@signs 001E  
          __size_of_MyusartRead 0044           sqrtf@__xc8_float_word 008C                    ___fladd@aexp 001F  
                  ___fladd@bexp 0020             __end_of_ClearBuffer 6A7C  
